Archive member included because of file (symbol)

c:/altera/13.1/nios2eds/bin/gnu/h-i686-mingw32/bin/../lib/gcc/nios2-elf/4.7.3/mno-hw-mul\libgcc.a(lib2-mul.o)
                              obj/default/ledos/cortex/acortex/pcm_bffr/pcm_bffr.o (__mulsi3)
G:/WorK/github/synesthesia_moksha/wxp/dgn/sw/limbus_bsp/\libchibios_v246_bsp.a(chthreads.o)
                              obj/default/ledos/cortex/acortex/i2c/i2c.o (chThdSleep)
G:/WorK/github/synesthesia_moksha/wxp/dgn/sw/limbus_bsp/\libchibios_v246_bsp.a(chvt.o)
                              G:/WorK/github/synesthesia_moksha/wxp/dgn/sw/limbus_bsp/\libchibios_v246_bsp.a(chthreads.o) (vtlist)
G:/WorK/github/synesthesia_moksha/wxp/dgn/sw/limbus_bsp/\libchibios_v246_bsp.a(chcoreasm.o)
                              G:/WorK/github/synesthesia_moksha/wxp/dgn/sw/limbus_bsp/\libchibios_v246_bsp.a(chthreads.o) (_port_thread_start)
G:/WorK/github/synesthesia_moksha/wxp/dgn/sw/limbus_bsp/\libchibios_v246_bsp.a(alt_load.o)
                              G:/WorK/github/synesthesia_moksha/wxp/dgn/sw/limbus_bsp//obj/HAL/src/crt0.o (alt_load)
G:/WorK/github/synesthesia_moksha/wxp/dgn/sw/limbus_bsp/\libchibios_v246_bsp.a(alt_main.o)
                              G:/WorK/github/synesthesia_moksha/wxp/dgn/sw/limbus_bsp//obj/HAL/src/crt0.o (alt_main)
G:/WorK/github/synesthesia_moksha/wxp/dgn/sw/limbus_bsp/\libchibios_v246_bsp.a(alt_printf.o)
                              obj/default/hello_world_small.o (alt_printf)
G:/WorK/github/synesthesia_moksha/wxp/dgn/sw/limbus_bsp/\libchibios_v246_bsp.a(alt_putchar.o)
                              G:/WorK/github/synesthesia_moksha/wxp/dgn/sw/limbus_bsp/\libchibios_v246_bsp.a(alt_printf.o) (alt_putchar)
G:/WorK/github/synesthesia_moksha/wxp/dgn/sw/limbus_bsp/\libchibios_v246_bsp.a(alt_putstr.o)
                              obj/default/hello_world_small.o (alt_putstr)
G:/WorK/github/synesthesia_moksha/wxp/dgn/sw/limbus_bsp/\libchibios_v246_bsp.a(alt_sys_init.o)
                              G:/WorK/github/synesthesia_moksha/wxp/dgn/sw/limbus_bsp/\libchibios_v246_bsp.a(alt_main.o) (alt_irq_init)
G:/WorK/github/synesthesia_moksha/wxp/dgn/sw/limbus_bsp/\libchibios_v246_bsp.a(altera_avalon_jtag_uart_fd.o)
                              G:/WorK/github/synesthesia_moksha/wxp/dgn/sw/limbus_bsp/\libchibios_v246_bsp.a(alt_sys_init.o) (altera_avalon_jtag_uart_read_fd)
G:/WorK/github/synesthesia_moksha/wxp/dgn/sw/limbus_bsp/\libchibios_v246_bsp.a(altera_avalon_jtag_uart_init.o)
                              G:/WorK/github/synesthesia_moksha/wxp/dgn/sw/limbus_bsp/\libchibios_v246_bsp.a(alt_sys_init.o) (altera_avalon_jtag_uart_init)
G:/WorK/github/synesthesia_moksha/wxp/dgn/sw/limbus_bsp/\libchibios_v246_bsp.a(altera_avalon_jtag_uart_ioctl.o)
                              G:/WorK/github/synesthesia_moksha/wxp/dgn/sw/limbus_bsp/\libchibios_v246_bsp.a(altera_avalon_jtag_uart_fd.o) (altera_avalon_jtag_uart_ioctl)
G:/WorK/github/synesthesia_moksha/wxp/dgn/sw/limbus_bsp/\libchibios_v246_bsp.a(altera_avalon_jtag_uart_read.o)
                              G:/WorK/github/synesthesia_moksha/wxp/dgn/sw/limbus_bsp/\libchibios_v246_bsp.a(altera_avalon_jtag_uart_fd.o) (altera_avalon_jtag_uart_read)
G:/WorK/github/synesthesia_moksha/wxp/dgn/sw/limbus_bsp/\libchibios_v246_bsp.a(altera_avalon_jtag_uart_write.o)
                              G:/WorK/github/synesthesia_moksha/wxp/dgn/sw/limbus_bsp/\libchibios_v246_bsp.a(altera_avalon_jtag_uart_fd.o) (altera_avalon_jtag_uart_write)
G:/WorK/github/synesthesia_moksha/wxp/dgn/sw/limbus_bsp/\libchibios_v246_bsp.a(altera_avalon_timer_sc.o)
                              G:/WorK/github/synesthesia_moksha/wxp/dgn/sw/limbus_bsp/\libchibios_v246_bsp.a(alt_sys_init.o) (alt_avalon_timer_sc_init)
G:/WorK/github/synesthesia_moksha/wxp/dgn/sw/limbus_bsp/\libchibios_v246_bsp.a(altera_avalon_uart_fd.o)
                              G:/WorK/github/synesthesia_moksha/wxp/dgn/sw/limbus_bsp/\libchibios_v246_bsp.a(alt_sys_init.o) (altera_avalon_uart_read_fd)
G:/WorK/github/synesthesia_moksha/wxp/dgn/sw/limbus_bsp/\libchibios_v246_bsp.a(altera_avalon_uart_init.o)
                              G:/WorK/github/synesthesia_moksha/wxp/dgn/sw/limbus_bsp/\libchibios_v246_bsp.a(alt_sys_init.o) (altera_avalon_uart_init)
G:/WorK/github/synesthesia_moksha/wxp/dgn/sw/limbus_bsp/\libchibios_v246_bsp.a(altera_avalon_uart_read.o)
                              G:/WorK/github/synesthesia_moksha/wxp/dgn/sw/limbus_bsp/\libchibios_v246_bsp.a(altera_avalon_uart_fd.o) (altera_avalon_uart_read)
G:/WorK/github/synesthesia_moksha/wxp/dgn/sw/limbus_bsp/\libchibios_v246_bsp.a(altera_avalon_uart_write.o)
                              G:/WorK/github/synesthesia_moksha/wxp/dgn/sw/limbus_bsp/\libchibios_v246_bsp.a(altera_avalon_uart_fd.o) (altera_avalon_uart_write)
G:/WorK/github/synesthesia_moksha/wxp/dgn/sw/limbus_bsp/\libchibios_v246_bsp.a(chdynamic.o)
                              G:/WorK/github/synesthesia_moksha/wxp/dgn/sw/limbus_bsp/\libchibios_v246_bsp.a(chthreads.o) (chThdRelease)
G:/WorK/github/synesthesia_moksha/wxp/dgn/sw/limbus_bsp/\libchibios_v246_bsp.a(chheap.o)
                              G:/WorK/github/synesthesia_moksha/wxp/dgn/sw/limbus_bsp/\libchibios_v246_bsp.a(chdynamic.o) (chHeapAlloc)
G:/WorK/github/synesthesia_moksha/wxp/dgn/sw/limbus_bsp/\libchibios_v246_bsp.a(chmemcore.o)
                              G:/WorK/github/synesthesia_moksha/wxp/dgn/sw/limbus_bsp/\libchibios_v246_bsp.a(chheap.o) (chCoreAlloc)
G:/WorK/github/synesthesia_moksha/wxp/dgn/sw/limbus_bsp/\libchibios_v246_bsp.a(chmempools.o)
                              G:/WorK/github/synesthesia_moksha/wxp/dgn/sw/limbus_bsp/\libchibios_v246_bsp.a(chdynamic.o) (chPoolAlloc)
G:/WorK/github/synesthesia_moksha/wxp/dgn/sw/limbus_bsp/\libchibios_v246_bsp.a(chmtx.o)
                              G:/WorK/github/synesthesia_moksha/wxp/dgn/sw/limbus_bsp/\libchibios_v246_bsp.a(chheap.o) (chMtxInit)
G:/WorK/github/synesthesia_moksha/wxp/dgn/sw/limbus_bsp/\libchibios_v246_bsp.a(chschd.o)
                              G:/WorK/github/synesthesia_moksha/wxp/dgn/sw/limbus_bsp/\libchibios_v246_bsp.a(chthreads.o) (rlist)
G:/WorK/github/synesthesia_moksha/wxp/dgn/sw/limbus_bsp/\libchibios_v246_bsp.a(chsys.o)
                              G:/WorK/github/synesthesia_moksha/wxp/dgn/sw/limbus_bsp/\libchibios_v246_bsp.a(alt_main.o) (chSysInit)
G:/WorK/github/synesthesia_moksha/wxp/dgn/sw/limbus_bsp/\libchibios_v246_bsp.a(alt_alarm_start.o)
                              G:/WorK/github/synesthesia_moksha/wxp/dgn/sw/limbus_bsp/\libchibios_v246_bsp.a(altera_avalon_jtag_uart_init.o) (alt_alarm_start)
G:/WorK/github/synesthesia_moksha/wxp/dgn/sw/limbus_bsp/\libchibios_v246_bsp.a(alt_close.o)
                              G:/WorK/github/synesthesia_moksha/wxp/dgn/sw/limbus_bsp/\libchibios_v246_bsp.a(alt_main.o) (close)
G:/WorK/github/synesthesia_moksha/wxp/dgn/sw/limbus_bsp/\libchibios_v246_bsp.a(alt_dcache_flush_all.o)
                              G:/WorK/github/synesthesia_moksha/wxp/dgn/sw/limbus_bsp/\libchibios_v246_bsp.a(alt_load.o) (alt_dcache_flush_all)
G:/WorK/github/synesthesia_moksha/wxp/dgn/sw/limbus_bsp/\libchibios_v246_bsp.a(alt_dev.o)
                              G:/WorK/github/synesthesia_moksha/wxp/dgn/sw/limbus_bsp/\libchibios_v246_bsp.a(alt_sys_init.o) (alt_dev_list)
G:/WorK/github/synesthesia_moksha/wxp/dgn/sw/limbus_bsp/\libchibios_v246_bsp.a(alt_dev_llist_insert.o)
                              G:/WorK/github/synesthesia_moksha/wxp/dgn/sw/limbus_bsp/\libchibios_v246_bsp.a(alt_sys_init.o) (alt_dev_llist_insert)
G:/WorK/github/synesthesia_moksha/wxp/dgn/sw/limbus_bsp/\libchibios_v246_bsp.a(alt_do_ctors.o)
                              G:/WorK/github/synesthesia_moksha/wxp/dgn/sw/limbus_bsp/\libchibios_v246_bsp.a(alt_main.o) (_do_ctors)
G:/WorK/github/synesthesia_moksha/wxp/dgn/sw/limbus_bsp/\libchibios_v246_bsp.a(alt_do_dtors.o)
                              G:/WorK/github/synesthesia_moksha/wxp/dgn/sw/limbus_bsp/\libchibios_v246_bsp.a(alt_main.o) (_do_dtors)
G:/WorK/github/synesthesia_moksha/wxp/dgn/sw/limbus_bsp/\libchibios_v246_bsp.a(alt_errno.o)
                              G:/WorK/github/synesthesia_moksha/wxp/dgn/sw/limbus_bsp/\libchibios_v246_bsp.a(altera_avalon_uart_read.o) (alt_errno)
G:/WorK/github/synesthesia_moksha/wxp/dgn/sw/limbus_bsp/\libchibios_v246_bsp.a(alt_icache_flush_all.o)
                              G:/WorK/github/synesthesia_moksha/wxp/dgn/sw/limbus_bsp/\libchibios_v246_bsp.a(alt_load.o) (alt_icache_flush_all)
G:/WorK/github/synesthesia_moksha/wxp/dgn/sw/limbus_bsp/\libchibios_v246_bsp.a(alt_iic.o)
                              G:/WorK/github/synesthesia_moksha/wxp/dgn/sw/limbus_bsp/\libchibios_v246_bsp.a(altera_avalon_jtag_uart_init.o) (alt_ic_isr_register)
G:/WorK/github/synesthesia_moksha/wxp/dgn/sw/limbus_bsp/\libchibios_v246_bsp.a(alt_iic_isr_register.o)
                              G:/WorK/github/synesthesia_moksha/wxp/dgn/sw/limbus_bsp/\libchibios_v246_bsp.a(alt_iic.o) (alt_iic_isr_register)
G:/WorK/github/synesthesia_moksha/wxp/dgn/sw/limbus_bsp/\libchibios_v246_bsp.a(alt_io_redirect.o)
                              G:/WorK/github/synesthesia_moksha/wxp/dgn/sw/limbus_bsp/\libchibios_v246_bsp.a(alt_main.o) (alt_io_redirect)
G:/WorK/github/synesthesia_moksha/wxp/dgn/sw/limbus_bsp/\libchibios_v246_bsp.a(alt_irq_entry.o)
                              G:/WorK/github/synesthesia_moksha/wxp/dgn/sw/limbus_bsp/\libchibios_v246_bsp.a(alt_iic_isr_register.o) (alt_irq_entry)
G:/WorK/github/synesthesia_moksha/wxp/dgn/sw/limbus_bsp/\libchibios_v246_bsp.a(alt_irq_handler.o)
                              G:/WorK/github/synesthesia_moksha/wxp/dgn/sw/limbus_bsp/\libchibios_v246_bsp.a(alt_iic_isr_register.o) (alt_irq)
G:/WorK/github/synesthesia_moksha/wxp/dgn/sw/limbus_bsp/\libchibios_v246_bsp.a(alt_irq_vars.o)
                              G:/WorK/github/synesthesia_moksha/wxp/dgn/sw/limbus_bsp/\libchibios_v246_bsp.a(alt_iic.o) (alt_irq_active)
G:/WorK/github/synesthesia_moksha/wxp/dgn/sw/limbus_bsp/\libchibios_v246_bsp.a(alt_open.o)
                              G:/WorK/github/synesthesia_moksha/wxp/dgn/sw/limbus_bsp/\libchibios_v246_bsp.a(alt_io_redirect.o) (open)
G:/WorK/github/synesthesia_moksha/wxp/dgn/sw/limbus_bsp/\libchibios_v246_bsp.a(alt_release_fd.o)
                              G:/WorK/github/synesthesia_moksha/wxp/dgn/sw/limbus_bsp/\libchibios_v246_bsp.a(alt_close.o) (alt_release_fd)
G:/WorK/github/synesthesia_moksha/wxp/dgn/sw/limbus_bsp/\libchibios_v246_bsp.a(alt_tick.o)
                              G:/WorK/github/synesthesia_moksha/wxp/dgn/sw/limbus_bsp/\libchibios_v246_bsp.a(altera_avalon_jtag_uart_init.o) (_alt_tick_rate)
G:/WorK/github/synesthesia_moksha/wxp/dgn/sw/limbus_bsp/\libchibios_v246_bsp.a(altera_nios2_qsys_irq.o)
                              G:/WorK/github/synesthesia_moksha/wxp/dgn/sw/limbus_bsp/\libchibios_v246_bsp.a(alt_sys_init.o) (altera_nios2_qsys_irq_init)
G:/WorK/github/synesthesia_moksha/wxp/dgn/sw/limbus_bsp/\libchibios_v246_bsp.a(chregistry.o)
                              G:/WorK/github/synesthesia_moksha/wxp/dgn/sw/limbus_bsp/\libchibios_v246_bsp.a(chsys.o) (ch_debug)
G:/WorK/github/synesthesia_moksha/wxp/dgn/sw/limbus_bsp/\libchibios_v246_bsp.a(chcore.o)
                              G:/WorK/github/synesthesia_moksha/wxp/dgn/sw/limbus_bsp/\libchibios_v246_bsp.a(alt_tick.o) (port_time_tick)
G:/WorK/github/synesthesia_moksha/wxp/dgn/sw/limbus_bsp/\libchibios_v246_bsp.a(alt_exception_entry.o)
                              G:/WorK/github/synesthesia_moksha/wxp/dgn/sw/limbus_bsp/\libchibios_v246_bsp.a(alt_irq_entry.o) (alt_exception)
G:/WorK/github/synesthesia_moksha/wxp/dgn/sw/limbus_bsp/\libchibios_v246_bsp.a(alt_find_dev.o)
                              G:/WorK/github/synesthesia_moksha/wxp/dgn/sw/limbus_bsp/\libchibios_v246_bsp.a(alt_open.o) (alt_find_dev)
G:/WorK/github/synesthesia_moksha/wxp/dgn/sw/limbus_bsp/\libchibios_v246_bsp.a(alt_find_file.o)
                              G:/WorK/github/synesthesia_moksha/wxp/dgn/sw/limbus_bsp/\libchibios_v246_bsp.a(alt_open.o) (alt_find_file)
G:/WorK/github/synesthesia_moksha/wxp/dgn/sw/limbus_bsp/\libchibios_v246_bsp.a(alt_get_fd.o)
                              G:/WorK/github/synesthesia_moksha/wxp/dgn/sw/limbus_bsp/\libchibios_v246_bsp.a(alt_open.o) (alt_get_fd)
c:/altera/13.1/nios2eds/bin/gnu/h-i686-mingw32/bin/../lib/gcc/nios2-elf/4.7.3/../../../../../H-i686-mingw32/nios2-elf/lib/mno-hw-mul\libc.a(lib_a-atexit.o)
                              G:/WorK/github/synesthesia_moksha/wxp/dgn/sw/limbus_bsp/\libchibios_v246_bsp.a(alt_main.o) (atexit)
c:/altera/13.1/nios2eds/bin/gnu/h-i686-mingw32/bin/../lib/gcc/nios2-elf/4.7.3/../../../../../H-i686-mingw32/nios2-elf/lib/mno-hw-mul\libc.a(lib_a-exit.o)
                              G:/WorK/github/synesthesia_moksha/wxp/dgn/sw/limbus_bsp/\libchibios_v246_bsp.a(alt_main.o) (exit)
c:/altera/13.1/nios2eds/bin/gnu/h-i686-mingw32/bin/../lib/gcc/nios2-elf/4.7.3/../../../../../H-i686-mingw32/nios2-elf/lib/mno-hw-mul\libc.a(lib_a-fputs.o)
                              G:/WorK/github/synesthesia_moksha/wxp/dgn/sw/limbus_bsp/\libchibios_v246_bsp.a(alt_putstr.o) (fputs)
c:/altera/13.1/nios2eds/bin/gnu/h-i686-mingw32/bin/../lib/gcc/nios2-elf/4.7.3/../../../../../H-i686-mingw32/nios2-elf/lib/mno-hw-mul\libc.a(lib_a-fvwrite.o)
                              c:/altera/13.1/nios2eds/bin/gnu/h-i686-mingw32/bin/../lib/gcc/nios2-elf/4.7.3/../../../../../H-i686-mingw32/nios2-elf/lib/mno-hw-mul\libc.a(lib_a-fputs.o) (__sfvwrite_r)
c:/altera/13.1/nios2eds/bin/gnu/h-i686-mingw32/bin/../lib/gcc/nios2-elf/4.7.3/../../../../../H-i686-mingw32/nios2-elf/lib/mno-hw-mul\libc.a(lib_a-impure.o)
                              c:/altera/13.1/nios2eds/bin/gnu/h-i686-mingw32/bin/../lib/gcc/nios2-elf/4.7.3/../../../../../H-i686-mingw32/nios2-elf/lib/mno-hw-mul\libc.a(lib_a-exit.o) (_global_impure_ptr)
c:/altera/13.1/nios2eds/bin/gnu/h-i686-mingw32/bin/../lib/gcc/nios2-elf/4.7.3/../../../../../H-i686-mingw32/nios2-elf/lib/mno-hw-mul\libc.a(lib_a-int_errno.o)
                              G:/WorK/github/synesthesia_moksha/wxp/dgn/sw/limbus_bsp/\libchibios_v246_bsp.a(altera_avalon_uart_read.o) (errno)
c:/altera/13.1/nios2eds/bin/gnu/h-i686-mingw32/bin/../lib/gcc/nios2-elf/4.7.3/../../../../../H-i686-mingw32/nios2-elf/lib/mno-hw-mul\libc.a(lib_a-mallocr.o)
                              c:/altera/13.1/nios2eds/bin/gnu/h-i686-mingw32/bin/../lib/gcc/nios2-elf/4.7.3/../../../../../H-i686-mingw32/nios2-elf/lib/mno-hw-mul\libc.a(lib_a-fvwrite.o) (_malloc_r)
c:/altera/13.1/nios2eds/bin/gnu/h-i686-mingw32/bin/../lib/gcc/nios2-elf/4.7.3/../../../../../H-i686-mingw32/nios2-elf/lib/mno-hw-mul\libc.a(lib_a-memchr.o)
                              c:/altera/13.1/nios2eds/bin/gnu/h-i686-mingw32/bin/../lib/gcc/nios2-elf/4.7.3/../../../../../H-i686-mingw32/nios2-elf/lib/mno-hw-mul\libc.a(lib_a-fvwrite.o) (memchr)
c:/altera/13.1/nios2eds/bin/gnu/h-i686-mingw32/bin/../lib/gcc/nios2-elf/4.7.3/../../../../../H-i686-mingw32/nios2-elf/lib/mno-hw-mul\libc.a(lib_a-memcmp.o)
                              G:/WorK/github/synesthesia_moksha/wxp/dgn/sw/limbus_bsp/\libchibios_v246_bsp.a(alt_find_dev.o) (memcmp)
c:/altera/13.1/nios2eds/bin/gnu/h-i686-mingw32/bin/../lib/gcc/nios2-elf/4.7.3/../../../../../H-i686-mingw32/nios2-elf/lib/mno-hw-mul\libc.a(lib_a-memcpy.o)
                              G:/WorK/github/synesthesia_moksha/wxp/dgn/sw/limbus_bsp/\libchibios_v246_bsp.a(altera_avalon_jtag_uart_read.o) (memcpy)
c:/altera/13.1/nios2eds/bin/gnu/h-i686-mingw32/bin/../lib/gcc/nios2-elf/4.7.3/../../../../../H-i686-mingw32/nios2-elf/lib/mno-hw-mul\libc.a(lib_a-memmove.o)
                              c:/altera/13.1/nios2eds/bin/gnu/h-i686-mingw32/bin/../lib/gcc/nios2-elf/4.7.3/../../../../../H-i686-mingw32/nios2-elf/lib/mno-hw-mul\libc.a(lib_a-fvwrite.o) (memmove)
c:/altera/13.1/nios2eds/bin/gnu/h-i686-mingw32/bin/../lib/gcc/nios2-elf/4.7.3/../../../../../H-i686-mingw32/nios2-elf/lib/mno-hw-mul\libc.a(lib_a-putc.o)
                              G:/WorK/github/synesthesia_moksha/wxp/dgn/sw/limbus_bsp/\libchibios_v246_bsp.a(alt_putchar.o) (putc)
c:/altera/13.1/nios2eds/bin/gnu/h-i686-mingw32/bin/../lib/gcc/nios2-elf/4.7.3/../../../../../H-i686-mingw32/nios2-elf/lib/mno-hw-mul\libc.a(lib_a-reallocr.o)
                              c:/altera/13.1/nios2eds/bin/gnu/h-i686-mingw32/bin/../lib/gcc/nios2-elf/4.7.3/../../../../../H-i686-mingw32/nios2-elf/lib/mno-hw-mul\libc.a(lib_a-fvwrite.o) (_realloc_r)
c:/altera/13.1/nios2eds/bin/gnu/h-i686-mingw32/bin/../lib/gcc/nios2-elf/4.7.3/../../../../../H-i686-mingw32/nios2-elf/lib/mno-hw-mul\libc.a(lib_a-sbrkr.o)
                              c:/altera/13.1/nios2eds/bin/gnu/h-i686-mingw32/bin/../lib/gcc/nios2-elf/4.7.3/../../../../../H-i686-mingw32/nios2-elf/lib/mno-hw-mul\libc.a(lib_a-mallocr.o) (_sbrk_r)
c:/altera/13.1/nios2eds/bin/gnu/h-i686-mingw32/bin/../lib/gcc/nios2-elf/4.7.3/../../../../../H-i686-mingw32/nios2-elf/lib/mno-hw-mul\libc.a(lib_a-strlen.o)
                              G:/WorK/github/synesthesia_moksha/wxp/dgn/sw/limbus_bsp/\libchibios_v246_bsp.a(alt_find_dev.o) (strlen)
c:/altera/13.1/nios2eds/bin/gnu/h-i686-mingw32/bin/../lib/gcc/nios2-elf/4.7.3/../../../../../H-i686-mingw32/nios2-elf/lib/mno-hw-mul\libc.a(lib_a-wbuf.o)
                              c:/altera/13.1/nios2eds/bin/gnu/h-i686-mingw32/bin/../lib/gcc/nios2-elf/4.7.3/../../../../../H-i686-mingw32/nios2-elf/lib/mno-hw-mul\libc.a(lib_a-putc.o) (__swbuf_r)
c:/altera/13.1/nios2eds/bin/gnu/h-i686-mingw32/bin/../lib/gcc/nios2-elf/4.7.3/../../../../../H-i686-mingw32/nios2-elf/lib/mno-hw-mul\libc.a(lib_a-wsetup.o)
                              c:/altera/13.1/nios2eds/bin/gnu/h-i686-mingw32/bin/../lib/gcc/nios2-elf/4.7.3/../../../../../H-i686-mingw32/nios2-elf/lib/mno-hw-mul\libc.a(lib_a-fvwrite.o) (__swsetup_r)
c:/altera/13.1/nios2eds/bin/gnu/h-i686-mingw32/bin/../lib/gcc/nios2-elf/4.7.3/../../../../../H-i686-mingw32/nios2-elf/lib/mno-hw-mul\libc.a(lib_a-__atexit.o)
                              c:/altera/13.1/nios2eds/bin/gnu/h-i686-mingw32/bin/../lib/gcc/nios2-elf/4.7.3/../../../../../H-i686-mingw32/nios2-elf/lib/mno-hw-mul\libc.a(lib_a-atexit.o) (__register_exitproc)
c:/altera/13.1/nios2eds/bin/gnu/h-i686-mingw32/bin/../lib/gcc/nios2-elf/4.7.3/../../../../../H-i686-mingw32/nios2-elf/lib/mno-hw-mul\libc.a(lib_a-__call_atexit.o)
                              c:/altera/13.1/nios2eds/bin/gnu/h-i686-mingw32/bin/../lib/gcc/nios2-elf/4.7.3/../../../../../H-i686-mingw32/nios2-elf/lib/mno-hw-mul\libc.a(lib_a-exit.o) (__call_exitprocs)
c:/altera/13.1/nios2eds/bin/gnu/h-i686-mingw32/bin/../lib/gcc/nios2-elf/4.7.3/../../../../../H-i686-mingw32/nios2-elf/lib/mno-hw-mul\libc.a(lib_a-fflush.o)
                              c:/altera/13.1/nios2eds/bin/gnu/h-i686-mingw32/bin/../lib/gcc/nios2-elf/4.7.3/../../../../../H-i686-mingw32/nios2-elf/lib/mno-hw-mul\libc.a(lib_a-fvwrite.o) (_fflush_r)
c:/altera/13.1/nios2eds/bin/gnu/h-i686-mingw32/bin/../lib/gcc/nios2-elf/4.7.3/../../../../../H-i686-mingw32/nios2-elf/lib/mno-hw-mul\libc.a(lib_a-findfp.o)
                              c:/altera/13.1/nios2eds/bin/gnu/h-i686-mingw32/bin/../lib/gcc/nios2-elf/4.7.3/../../../../../H-i686-mingw32/nios2-elf/lib/mno-hw-mul\libc.a(lib_a-fputs.o) (__sinit)
c:/altera/13.1/nios2eds/bin/gnu/h-i686-mingw32/bin/../lib/gcc/nios2-elf/4.7.3/../../../../../H-i686-mingw32/nios2-elf/lib/mno-hw-mul\libc.a(lib_a-freer.o)
                              c:/altera/13.1/nios2eds/bin/gnu/h-i686-mingw32/bin/../lib/gcc/nios2-elf/4.7.3/../../../../../H-i686-mingw32/nios2-elf/lib/mno-hw-mul\libc.a(lib_a-fvwrite.o) (_free_r)
c:/altera/13.1/nios2eds/bin/gnu/h-i686-mingw32/bin/../lib/gcc/nios2-elf/4.7.3/../../../../../H-i686-mingw32/nios2-elf/lib/mno-hw-mul\libc.a(lib_a-fwalk.o)
                              c:/altera/13.1/nios2eds/bin/gnu/h-i686-mingw32/bin/../lib/gcc/nios2-elf/4.7.3/../../../../../H-i686-mingw32/nios2-elf/lib/mno-hw-mul\libc.a(lib_a-findfp.o) (_fwalk)
c:/altera/13.1/nios2eds/bin/gnu/h-i686-mingw32/bin/../lib/gcc/nios2-elf/4.7.3/../../../../../H-i686-mingw32/nios2-elf/lib/mno-hw-mul\libc.a(lib_a-makebuf.o)
                              c:/altera/13.1/nios2eds/bin/gnu/h-i686-mingw32/bin/../lib/gcc/nios2-elf/4.7.3/../../../../../H-i686-mingw32/nios2-elf/lib/mno-hw-mul\libc.a(lib_a-wsetup.o) (__smakebuf_r)
c:/altera/13.1/nios2eds/bin/gnu/h-i686-mingw32/bin/../lib/gcc/nios2-elf/4.7.3/../../../../../H-i686-mingw32/nios2-elf/lib/mno-hw-mul\libc.a(lib_a-memset.o)
                              c:/altera/13.1/nios2eds/bin/gnu/h-i686-mingw32/bin/../lib/gcc/nios2-elf/4.7.3/../../../../../H-i686-mingw32/nios2-elf/lib/mno-hw-mul\libc.a(lib_a-findfp.o) (memset)
c:/altera/13.1/nios2eds/bin/gnu/h-i686-mingw32/bin/../lib/gcc/nios2-elf/4.7.3/../../../../../H-i686-mingw32/nios2-elf/lib/mno-hw-mul\libc.a(lib_a-stdio.o)
                              c:/altera/13.1/nios2eds/bin/gnu/h-i686-mingw32/bin/../lib/gcc/nios2-elf/4.7.3/../../../../../H-i686-mingw32/nios2-elf/lib/mno-hw-mul\libc.a(lib_a-findfp.o) (__sread)
c:/altera/13.1/nios2eds/bin/gnu/h-i686-mingw32/bin/../lib/gcc/nios2-elf/4.7.3/../../../../../H-i686-mingw32/nios2-elf/lib/mno-hw-mul\libc.a(lib_a-writer.o)
                              c:/altera/13.1/nios2eds/bin/gnu/h-i686-mingw32/bin/../lib/gcc/nios2-elf/4.7.3/../../../../../H-i686-mingw32/nios2-elf/lib/mno-hw-mul\libc.a(lib_a-stdio.o) (_write_r)
c:/altera/13.1/nios2eds/bin/gnu/h-i686-mingw32/bin/../lib/gcc/nios2-elf/4.7.3/../../../../../H-i686-mingw32/nios2-elf/lib/mno-hw-mul\libc.a(lib_a-closer.o)
                              c:/altera/13.1/nios2eds/bin/gnu/h-i686-mingw32/bin/../lib/gcc/nios2-elf/4.7.3/../../../../../H-i686-mingw32/nios2-elf/lib/mno-hw-mul\libc.a(lib_a-stdio.o) (_close_r)
c:/altera/13.1/nios2eds/bin/gnu/h-i686-mingw32/bin/../lib/gcc/nios2-elf/4.7.3/../../../../../H-i686-mingw32/nios2-elf/lib/mno-hw-mul\libc.a(lib_a-fclose.o)
                              c:/altera/13.1/nios2eds/bin/gnu/h-i686-mingw32/bin/../lib/gcc/nios2-elf/4.7.3/../../../../../H-i686-mingw32/nios2-elf/lib/mno-hw-mul\libc.a(lib_a-findfp.o) (fclose)
c:/altera/13.1/nios2eds/bin/gnu/h-i686-mingw32/bin/../lib/gcc/nios2-elf/4.7.3/../../../../../H-i686-mingw32/nios2-elf/lib/mno-hw-mul\libc.a(lib_a-fstatr.o)
                              c:/altera/13.1/nios2eds/bin/gnu/h-i686-mingw32/bin/../lib/gcc/nios2-elf/4.7.3/../../../../../H-i686-mingw32/nios2-elf/lib/mno-hw-mul\libc.a(lib_a-makebuf.o) (_fstat_r)
c:/altera/13.1/nios2eds/bin/gnu/h-i686-mingw32/bin/../lib/gcc/nios2-elf/4.7.3/../../../../../H-i686-mingw32/nios2-elf/lib/mno-hw-mul\libc.a(lib_a-isattyr.o)
                              c:/altera/13.1/nios2eds/bin/gnu/h-i686-mingw32/bin/../lib/gcc/nios2-elf/4.7.3/../../../../../H-i686-mingw32/nios2-elf/lib/mno-hw-mul\libc.a(lib_a-makebuf.o) (_isatty_r)
c:/altera/13.1/nios2eds/bin/gnu/h-i686-mingw32/bin/../lib/gcc/nios2-elf/4.7.3/../../../../../H-i686-mingw32/nios2-elf/lib/mno-hw-mul\libc.a(lib_a-lseekr.o)
                              c:/altera/13.1/nios2eds/bin/gnu/h-i686-mingw32/bin/../lib/gcc/nios2-elf/4.7.3/../../../../../H-i686-mingw32/nios2-elf/lib/mno-hw-mul\libc.a(lib_a-stdio.o) (_lseek_r)
c:/altera/13.1/nios2eds/bin/gnu/h-i686-mingw32/bin/../lib/gcc/nios2-elf/4.7.3/../../../../../H-i686-mingw32/nios2-elf/lib/mno-hw-mul\libc.a(lib_a-readr.o)
                              c:/altera/13.1/nios2eds/bin/gnu/h-i686-mingw32/bin/../lib/gcc/nios2-elf/4.7.3/../../../../../H-i686-mingw32/nios2-elf/lib/mno-hw-mul\libc.a(lib_a-stdio.o) (_read_r)
G:/WorK/github/synesthesia_moksha/wxp/dgn/sw/limbus_bsp/\libchibios_v246_bsp.a(alt_exit.o)
                              c:/altera/13.1/nios2eds/bin/gnu/h-i686-mingw32/bin/../lib/gcc/nios2-elf/4.7.3/../../../../../H-i686-mingw32/nios2-elf/lib/mno-hw-mul\libc.a(lib_a-exit.o) (_exit)
G:/WorK/github/synesthesia_moksha/wxp/dgn/sw/limbus_bsp/\libchibios_v246_bsp.a(alt_fstat.o)
                              c:/altera/13.1/nios2eds/bin/gnu/h-i686-mingw32/bin/../lib/gcc/nios2-elf/4.7.3/../../../../../H-i686-mingw32/nios2-elf/lib/mno-hw-mul\libc.a(lib_a-fstatr.o) (fstat)
G:/WorK/github/synesthesia_moksha/wxp/dgn/sw/limbus_bsp/\libchibios_v246_bsp.a(alt_isatty.o)
                              c:/altera/13.1/nios2eds/bin/gnu/h-i686-mingw32/bin/../lib/gcc/nios2-elf/4.7.3/../../../../../H-i686-mingw32/nios2-elf/lib/mno-hw-mul\libc.a(lib_a-isattyr.o) (isatty)
G:/WorK/github/synesthesia_moksha/wxp/dgn/sw/limbus_bsp/\libchibios_v246_bsp.a(alt_lseek.o)
                              c:/altera/13.1/nios2eds/bin/gnu/h-i686-mingw32/bin/../lib/gcc/nios2-elf/4.7.3/../../../../../H-i686-mingw32/nios2-elf/lib/mno-hw-mul\libc.a(lib_a-lseekr.o) (lseek)
G:/WorK/github/synesthesia_moksha/wxp/dgn/sw/limbus_bsp/\libchibios_v246_bsp.a(alt_malloc_lock.o)
                              c:/altera/13.1/nios2eds/bin/gnu/h-i686-mingw32/bin/../lib/gcc/nios2-elf/4.7.3/../../../../../H-i686-mingw32/nios2-elf/lib/mno-hw-mul\libc.a(lib_a-mallocr.o) (__malloc_lock)
G:/WorK/github/synesthesia_moksha/wxp/dgn/sw/limbus_bsp/\libchibios_v246_bsp.a(alt_read.o)
                              c:/altera/13.1/nios2eds/bin/gnu/h-i686-mingw32/bin/../lib/gcc/nios2-elf/4.7.3/../../../../../H-i686-mingw32/nios2-elf/lib/mno-hw-mul\libc.a(lib_a-readr.o) (read)
G:/WorK/github/synesthesia_moksha/wxp/dgn/sw/limbus_bsp/\libchibios_v246_bsp.a(alt_sbrk.o)
                              c:/altera/13.1/nios2eds/bin/gnu/h-i686-mingw32/bin/../lib/gcc/nios2-elf/4.7.3/../../../../../H-i686-mingw32/nios2-elf/lib/mno-hw-mul\libc.a(lib_a-sbrkr.o) (sbrk)
G:/WorK/github/synesthesia_moksha/wxp/dgn/sw/limbus_bsp/\libchibios_v246_bsp.a(alt_write.o)
                              c:/altera/13.1/nios2eds/bin/gnu/h-i686-mingw32/bin/../lib/gcc/nios2-elf/4.7.3/../../../../../H-i686-mingw32/nios2-elf/lib/mno-hw-mul\libc.a(lib_a-writer.o) (write)

Allocating common symbols
Common symbol       size              file

alt_irq             0x100             G:/WorK/github/synesthesia_moksha/wxp/dgn/sw/limbus_bsp/\libchibios_v246_bsp.a(alt_irq_handler.o)
aud_codec_i2c_bffr  0x2               obj/default/hello_world_small.o
errno               0x4               c:/altera/13.1/nios2eds/bin/gnu/h-i686-mingw32/bin/../lib/gcc/nios2-elf/4.7.3/../../../../../H-i686-mingw32/nios2-elf/lib/mno-hw-mul\libc.a(lib_a-int_errno.o)
vtlist              0x10              G:/WorK/github/synesthesia_moksha/wxp/dgn/sw/limbus_bsp/\libchibios_v246_bsp.a(chvt.o)
rlist               0x20              G:/WorK/github/synesthesia_moksha/wxp/dgn/sw/limbus_bsp/\libchibios_v246_bsp.a(chschd.o)
_atexit0            0x190             c:/altera/13.1/nios2eds/bin/gnu/h-i686-mingw32/bin/../lib/gcc/nios2-elf/4.7.3/../../../../../H-i686-mingw32/nios2-elf/lib/mno-hw-mul\libc.a(lib_a-atexit.o)
_idle_thread_wa     0x1c8             G:/WorK/github/synesthesia_moksha/wxp/dgn/sw/limbus_bsp/\libchibios_v246_bsp.a(chsys.o)

Memory Configuration

Name             Origin             Length             Attributes
reset            0x00180000         0x00000020
sram_cntrlr      0x00180020         0x0007ffe0
*default*        0x00000000         0xffffffff

Linker script and memory map

LOAD G:/WorK/github/synesthesia_moksha/wxp/dgn/sw/limbus_bsp//obj/HAL/src/crt0.o
LOAD obj/default/hello_world_small.o
LOAD obj/default/ledos/aud_codec/aud_codec.o
LOAD obj/default/ledos/cortex/acortex/i2c/i2c.o
LOAD obj/default/ledos/cortex/acortex/pcm_bffr/pcm_bffr.o
LOAD obj/default/ledos/cortex/acortex/ssm2603_drvr/ssm2603_drvr.o
LOAD c:/altera/13.1/nios2eds/bin/gnu/h-i686-mingw32/bin/../lib/gcc/nios2-elf/4.7.3/../../../../../H-i686-mingw32/nios2-elf/lib/mno-hw-mul\libstdc++.a
LOAD c:/altera/13.1/nios2eds/bin/gnu/h-i686-mingw32/bin/../lib/gcc/nios2-elf/4.7.3/../../../../../H-i686-mingw32/nios2-elf/lib/mno-hw-mul\libm.a
LOAD c:/altera/13.1/nios2eds/bin/gnu/h-i686-mingw32/bin/../lib/gcc/nios2-elf/4.7.3/mno-hw-mul\libgcc.a
START GROUP
LOAD c:/altera/13.1/nios2eds/bin/gnu/h-i686-mingw32/bin/../lib/gcc/nios2-elf/4.7.3/../../../../../H-i686-mingw32/nios2-elf/lib/mno-hw-mul\libc.a
LOAD c:/altera/13.1/nios2eds/bin/gnu/h-i686-mingw32/bin/../lib/gcc/nios2-elf/4.7.3/mno-hw-mul\libgcc.a
LOAD G:/WorK/github/synesthesia_moksha/wxp/dgn/sw/limbus_bsp/\libchibios_v246_bsp.a
END GROUP
LOAD c:/altera/13.1/nios2eds/bin/gnu/h-i686-mingw32/bin/../lib/gcc/nios2-elf/4.7.3/mno-hw-mul\libgcc.a
                0x00180000                __alt_mem_sram_cntrlr = 0x180000

.entry          0x00180000       0x20
 *(.entry)
 .entry         0x00180000       0x20 G:/WorK/github/synesthesia_moksha/wxp/dgn/sw/limbus_bsp//obj/HAL/src/crt0.o
                0x00180000                __reset

.exceptions     0x00180020      0x1a4
                0x00180020                PROVIDE (__ram_exceptions_start, ABSOLUTE (.))
                0x00180020                . = ALIGN (0x20)
 *(.irq)
 *(.exceptions.entry.label)
 .exceptions.entry.label
                0x00180020        0x0 G:/WorK/github/synesthesia_moksha/wxp/dgn/sw/limbus_bsp/\libchibios_v246_bsp.a(alt_irq_entry.o)
                0x00180020                alt_irq_entry
 .exceptions.entry.label
                0x00180020        0x0 G:/WorK/github/synesthesia_moksha/wxp/dgn/sw/limbus_bsp/\libchibios_v246_bsp.a(alt_exception_entry.o)
                0x00180020                alt_exception
 *(.exceptions.entry.user)
 *(.exceptions.entry.ecc_fatal)
 *(.exceptions.entry)
 .exceptions.entry
                0x00180020       0x54 G:/WorK/github/synesthesia_moksha/wxp/dgn/sw/limbus_bsp/\libchibios_v246_bsp.a(alt_exception_entry.o)
 *(.exceptions.irqtest.user)
 *(.exceptions.irqtest)
 .exceptions.irqtest
                0x00180074       0x10 G:/WorK/github/synesthesia_moksha/wxp/dgn/sw/limbus_bsp/\libchibios_v246_bsp.a(alt_irq_entry.o)
 *(.exceptions.irqhandler.user)
 *(.exceptions.irqhandler)
 .exceptions.irqhandler
                0x00180084        0x4 G:/WorK/github/synesthesia_moksha/wxp/dgn/sw/limbus_bsp/\libchibios_v246_bsp.a(alt_irq_entry.o)
 *(.exceptions.irqreturn.user)
 *(.exceptions.irqreturn)
 .exceptions.irqreturn
                0x00180088        0x4 G:/WorK/github/synesthesia_moksha/wxp/dgn/sw/limbus_bsp/\libchibios_v246_bsp.a(alt_irq_entry.o)
 *(.exceptions.notirq.label)
 .exceptions.notirq.label
                0x0018008c        0x0 G:/WorK/github/synesthesia_moksha/wxp/dgn/sw/limbus_bsp/\libchibios_v246_bsp.a(alt_irq_entry.o)
 *(.exceptions.notirq.user)
 *(.exceptions.notirq)
 .exceptions.notirq
                0x0018008c        0x8 G:/WorK/github/synesthesia_moksha/wxp/dgn/sw/limbus_bsp/\libchibios_v246_bsp.a(alt_exception_entry.o)
 *(.exceptions.soft.user)
 *(.exceptions.soft)
 *(.exceptions.unknown.user)
 *(.exceptions.unknown)
 .exceptions.unknown
                0x00180094        0x4 G:/WorK/github/synesthesia_moksha/wxp/dgn/sw/limbus_bsp/\libchibios_v246_bsp.a(alt_exception_entry.o)
 *(.exceptions.exit.label)
 .exceptions.exit.label
                0x00180098        0x0 G:/WorK/github/synesthesia_moksha/wxp/dgn/sw/limbus_bsp/\libchibios_v246_bsp.a(alt_irq_entry.o)
 .exceptions.exit.label
                0x00180098        0x0 G:/WorK/github/synesthesia_moksha/wxp/dgn/sw/limbus_bsp/\libchibios_v246_bsp.a(alt_exception_entry.o)
 *(.exceptions.exit.user)
 *(.exceptions.exit)
 .exceptions.exit
                0x00180098       0x54 G:/WorK/github/synesthesia_moksha/wxp/dgn/sw/limbus_bsp/\libchibios_v246_bsp.a(alt_exception_entry.o)
 *(.exceptions)
 .exceptions    0x001800ec       0xd8 G:/WorK/github/synesthesia_moksha/wxp/dgn/sw/limbus_bsp/\libchibios_v246_bsp.a(alt_irq_handler.o)
                0x001800ec                alt_irq_handler
                0x001801c4                PROVIDE (__ram_exceptions_end, ABSOLUTE (.))
                0x00180020                PROVIDE (__flash_exceptions_start, LOADADDR (.exceptions))

.text           0x001801c4     0x8cac
                0x001801c4                PROVIDE (stext, ABSOLUTE (.))
 *(.interp)
 *(.hash)
 *(.dynsym)
 *(.dynstr)
 *(.gnu.version)
 *(.gnu.version_d)
 *(.gnu.version_r)
 *(.rel.init)
 *(.rela.init)
 *(.rel.text .rel.text.* .rel.gnu.linkonce.t.*)
 *(.rela.text .rela.text.* .rela.gnu.linkonce.t.*)
 *(.rel.fini)
 *(.rela.fini)
 *(.rel.rodata .rel.rodata.* .rel.gnu.linkonce.r.*)
 *(.rela.rodata .rela.rodata.* .rela.gnu.linkonce.r.*)
 *(.rel.data .rel.data.* .rel.gnu.linkonce.d.*)
 *(.rela.data .rela.data.* .rela.gnu.linkonce.d.*)
 *(.rel.tdata .rel.tdata.* .rel.gnu.linkonce.td.*)
 *(.rela.tdata .rela.tdata.* .rela.gnu.linkonce.td.*)
 *(.rel.tbss .rel.tbss.* .rel.gnu.linkonce.tb.*)
 *(.rela.tbss .rela.tbss.* .rela.gnu.linkonce.tb.*)
 *(.rel.ctors)
 *(.rela.ctors)
 *(.rel.dtors)
 *(.rela.dtors)
 *(.rel.got)
 *(.rela.got)
 *(.rel.sdata .rel.sdata.* .rel.gnu.linkonce.s.*)
 *(.rela.sdata .rela.sdata.* .rela.gnu.linkonce.s.*)
 *(.rel.sbss .rel.sbss.* .rel.gnu.linkonce.sb.*)
 *(.rela.sbss .rela.sbss.* .rela.gnu.linkonce.sb.*)
 *(.rel.sdata2 .rel.sdata2.* .rel.gnu.linkonce.s2.*)
 *(.rela.sdata2 .rela.sdata2.* .rela.gnu.linkonce.s2.*)
 *(.rel.sbss2 .rel.sbss2.* .rel.gnu.linkonce.sb2.*)
 *(.rela.sbss2 .rela.sbss2.* .rela.gnu.linkonce.sb2.*)
 *(.rel.bss .rel.bss.* .rel.gnu.linkonce.b.*)
 *(.rela.bss .rela.bss.* .rela.gnu.linkonce.b.*)
 *(.rel.plt)
 *(.rela.plt)
 *(.rel.dyn)
 *(.init)
 *(.plt)
 *(.text .stub .text.* .gnu.linkonce.t.*)
 .text          0x001801c4       0x3c G:/WorK/github/synesthesia_moksha/wxp/dgn/sw/limbus_bsp//obj/HAL/src/crt0.o
                0x001801c4                _start
 .text          0x00180200        0x0 obj/default/hello_world_small.o
 .text.startup  0x00180200       0x50 obj/default/hello_world_small.o
                0x00180200                main
 .text          0x00180250       0xbc obj/default/ledos/aud_codec/aud_codec.o
                0x00180250                aud_codec_write_reg
                0x00180290                aud_codec_read_reg
 .text          0x0018030c      0x200 obj/default/ledos/cortex/acortex/i2c/i2c.o
                0x0018030c                get_i2c_status
                0x00180334                configure_i2c_clk
                0x00180344                get_i2c_clk
                0x00180350                configure_i2c_addr
                0x00180360                get_i2c_addr
                0x0018036c                i2c_xtn_write
                0x00180428                i2c_xtn_read
 .text          0x0018050c       0x50 obj/default/ledos/cortex/acortex/pcm_bffr/pcm_bffr.o
                0x0018050c                update_acache_mode
                0x0018051c                dump_acache_cap_data
 .text          0x0018055c       0x94 obj/default/ledos/cortex/acortex/ssm2603_drvr/ssm2603_drvr.o
                0x0018055c                disable_dac_drvr
                0x00180574                enable_dac_drvr
                0x00180588                disable_adc_drvr
                0x001805a0                enable_adc_drvr
                0x001805b4                configure_drvr_bps
                0x001805d8                configure_drvr_fs_div
                0x001805e4                configure_drvr_bclk_div
 .text          0x001805f0       0x28 c:/altera/13.1/nios2eds/bin/gnu/h-i686-mingw32/bin/../lib/gcc/nios2-elf/4.7.3/mno-hw-mul\libgcc.a(lib2-mul.o)
                0x001805f0                __mulsi3
 .text          0x00180618      0x7f0 G:/WorK/github/synesthesia_moksha/wxp/dgn/sw/limbus_bsp/\libchibios_v246_bsp.a(chthreads.o)
                0x00180698                _thread_init
                0x00180794                chThdCreateI
                0x001808fc                chThdCreateStatic
                0x00180988                chThdSetPriority
                0x00180a58                chThdResume
                0x00180ab8                chThdTerminate
                0x00180b18                chThdSleep
                0x00180b74                chThdSleepUntil
                0x00180bf0                chThdYield
                0x00180c64                chThdExit
                0x00180cac                chThdExitS
                0x00180d64                chThdWait
 .text          0x00180e08      0x284 G:/WorK/github/synesthesia_moksha/wxp/dgn/sw/limbus_bsp/\libchibios_v246_bsp.a(chvt.o)
                0x00180e08                _vt_init
                0x00180e6c                chVTSetI
                0x00180f78                chVTResetI
                0x00181000                chTimeIsWithin
 .text          0x0018108c       0x8c G:/WorK/github/synesthesia_moksha/wxp/dgn/sw/limbus_bsp/\libchibios_v246_bsp.a(chcoreasm.o)
                0x0018108c                _port_thread_start
                0x001810a0                port_switch
 .text          0x00181118       0xec G:/WorK/github/synesthesia_moksha/wxp/dgn/sw/limbus_bsp/\libchibios_v246_bsp.a(alt_load.o)
                0x00181184                alt_load
 .text          0x00181204       0x90 G:/WorK/github/synesthesia_moksha/wxp/dgn/sw/limbus_bsp/\libchibios_v246_bsp.a(alt_main.o)
                0x00181204                alt_main
 .text          0x00181294      0x244 G:/WorK/github/synesthesia_moksha/wxp/dgn/sw/limbus_bsp/\libchibios_v246_bsp.a(alt_printf.o)
                0x00181294                alt_printf
 .text          0x001814d8       0x44 G:/WorK/github/synesthesia_moksha/wxp/dgn/sw/limbus_bsp/\libchibios_v246_bsp.a(alt_putchar.o)
                0x001814d8                alt_putchar
 .text          0x0018151c       0x44 G:/WorK/github/synesthesia_moksha/wxp/dgn/sw/limbus_bsp/\libchibios_v246_bsp.a(alt_putstr.o)
                0x0018151c                alt_putstr
 .text          0x00181560       0xec G:/WorK/github/synesthesia_moksha/wxp/dgn/sw/limbus_bsp/\libchibios_v246_bsp.a(alt_sys_init.o)
                0x00181598                alt_irq_init
                0x001815cc                alt_sys_init
 .text          0x0018164c      0x164 G:/WorK/github/synesthesia_moksha/wxp/dgn/sw/limbus_bsp/\libchibios_v246_bsp.a(altera_avalon_jtag_uart_fd.o)
                0x0018164c                altera_avalon_jtag_uart_read_fd
                0x001816ac                altera_avalon_jtag_uart_write_fd
                0x0018170c                altera_avalon_jtag_uart_close_fd
                0x0018175c                altera_avalon_jtag_uart_ioctl_fd
 .text          0x001817b0      0x3d0 G:/WorK/github/synesthesia_moksha/wxp/dgn/sw/limbus_bsp/\libchibios_v246_bsp.a(altera_avalon_jtag_uart_init.o)
                0x001817b0                altera_avalon_jtag_uart_init
                0x00181b18                altera_avalon_jtag_uart_close
 .text          0x00181b80       0xf4 G:/WorK/github/synesthesia_moksha/wxp/dgn/sw/limbus_bsp/\libchibios_v246_bsp.a(altera_avalon_jtag_uart_ioctl.o)
                0x00181b80                altera_avalon_jtag_uart_ioctl
 .text          0x00181c74      0x218 G:/WorK/github/synesthesia_moksha/wxp/dgn/sw/limbus_bsp/\libchibios_v246_bsp.a(altera_avalon_jtag_uart_read.o)
                0x00181c74                altera_avalon_jtag_uart_read
 .text          0x00181e8c      0x224 G:/WorK/github/synesthesia_moksha/wxp/dgn/sw/limbus_bsp/\libchibios_v246_bsp.a(altera_avalon_jtag_uart_write.o)
                0x00181e8c                altera_avalon_jtag_uart_write
 .text          0x001820b0       0xfc G:/WorK/github/synesthesia_moksha/wxp/dgn/sw/limbus_bsp/\libchibios_v246_bsp.a(altera_avalon_timer_sc.o)
                0x00182124                alt_avalon_timer_sc_init
 .text          0x001821ac      0x110 G:/WorK/github/synesthesia_moksha/wxp/dgn/sw/limbus_bsp/\libchibios_v246_bsp.a(altera_avalon_uart_fd.o)
                0x001821ac                altera_avalon_uart_read_fd
                0x0018220c                altera_avalon_uart_write_fd
                0x0018226c                altera_avalon_uart_close_fd
 .text          0x001822bc      0x3a8 G:/WorK/github/synesthesia_moksha/wxp/dgn/sw/limbus_bsp/\libchibios_v246_bsp.a(altera_avalon_uart_init.o)
                0x001822bc                altera_avalon_uart_init
                0x00182610                altera_avalon_uart_close
 .text          0x00182664      0x254 G:/WorK/github/synesthesia_moksha/wxp/dgn/sw/limbus_bsp/\libchibios_v246_bsp.a(altera_avalon_uart_read.o)
                0x001826b4                altera_avalon_uart_read
 .text          0x001828b8      0x1f8 G:/WorK/github/synesthesia_moksha/wxp/dgn/sw/limbus_bsp/\libchibios_v246_bsp.a(altera_avalon_uart_write.o)
                0x00182908                altera_avalon_uart_write
 .text          0x00182ab0      0x30c G:/WorK/github/synesthesia_moksha/wxp/dgn/sw/limbus_bsp/\libchibios_v246_bsp.a(chdynamic.o)
                0x00182ab0                chThdAddRef
                0x00182b14                chThdRelease
                0x00182c3c                chThdCreateFromHeap
                0x00182cf4                chThdCreateFromMemoryPool
 .text          0x00182dbc      0x4c8 G:/WorK/github/synesthesia_moksha/wxp/dgn/sw/limbus_bsp/\libchibios_v246_bsp.a(chheap.o)
                0x00182dbc                _heap_init
                0x00182e18                chHeapInit
                0x00182ea0                chHeapAlloc
                0x00183044                chHeapFree
                0x001831c4                chHeapStatus
 .text          0x00183284      0x148 G:/WorK/github/synesthesia_moksha/wxp/dgn/sw/limbus_bsp/\libchibios_v246_bsp.a(chmemcore.o)
                0x00183284                _core_init
                0x001832cc                chCoreAlloc
                0x0018332c                chCoreAllocI
                0x001833a0                chCoreStatus
 .text          0x001833cc      0x1f4 G:/WorK/github/synesthesia_moksha/wxp/dgn/sw/limbus_bsp/\libchibios_v246_bsp.a(chmempools.o)
                0x001833cc                chPoolInit
                0x00183428                chPoolAllocI
                0x001834a8                chPoolAlloc
                0x00183508                chPoolFreeI
                0x00183560                chPoolFree
 .text          0x001835c0      0x76c G:/WorK/github/synesthesia_moksha/wxp/dgn/sw/limbus_bsp/\libchibios_v246_bsp.a(chmtx.o)
                0x001836f0                chMtxInit
                0x00183734                chMtxLock
                0x0018378c                chMtxLockS
                0x001838e8                chMtxTryLock
                0x00183948                chMtxTryLockS
                0x001839c0                chMtxUnlock
                0x00183b0c                chMtxUnlockS
                0x00183c2c                chMtxUnlockAll
 .text          0x00183d2c      0x59c G:/WorK/github/synesthesia_moksha/wxp/dgn/sw/limbus_bsp/\libchibios_v246_bsp.a(chschd.o)
                0x00183dc8                _scheduler_init
                0x00183e58                chSchReadyI
                0x00183eec                chSchGoSleepS
                0x00184028                chSchGoSleepTimeoutS
                0x001840c4                chSchWakeupS
                0x00184174                chSchRescheduleS
                0x001841c0                chSchIsPreemptionRequired
                0x00184238                chSchDoReschedule
 .text          0x001842c8      0x200 G:/WorK/github/synesthesia_moksha/wxp/dgn/sw/limbus_bsp/\libchibios_v246_bsp.a(chsys.o)
                0x001842c8                _idle_thread
                0x001842f8                chSysInit
                0x001843a4                chSysTimerHandlerI
 .text          0x001844c8      0x140 G:/WorK/github/synesthesia_moksha/wxp/dgn/sw/limbus_bsp/\libchibios_v246_bsp.a(alt_alarm_start.o)
                0x001844c8                alt_alarm_start
 .text          0x00184608      0x11c G:/WorK/github/synesthesia_moksha/wxp/dgn/sw/limbus_bsp/\libchibios_v246_bsp.a(alt_close.o)
                0x00184658                close
 .text          0x00184724       0x1c G:/WorK/github/synesthesia_moksha/wxp/dgn/sw/limbus_bsp/\libchibios_v246_bsp.a(alt_dcache_flush_all.o)
                0x00184724                alt_dcache_flush_all
 .text          0x00184740       0x2c G:/WorK/github/synesthesia_moksha/wxp/dgn/sw/limbus_bsp/\libchibios_v246_bsp.a(alt_dev.o)
 .text          0x0018476c       0xf0 G:/WorK/github/synesthesia_moksha/wxp/dgn/sw/limbus_bsp/\libchibios_v246_bsp.a(alt_dev_llist_insert.o)
                0x001847bc                alt_dev_llist_insert
 .text          0x0018485c       0x5c G:/WorK/github/synesthesia_moksha/wxp/dgn/sw/limbus_bsp/\libchibios_v246_bsp.a(alt_do_ctors.o)
                0x0018485c                _do_ctors
 .text          0x001848b8       0x5c G:/WorK/github/synesthesia_moksha/wxp/dgn/sw/limbus_bsp/\libchibios_v246_bsp.a(alt_do_dtors.o)
                0x001848b8                _do_dtors
 .text          0x00184914        0x0 G:/WorK/github/synesthesia_moksha/wxp/dgn/sw/limbus_bsp/\libchibios_v246_bsp.a(alt_errno.o)
 .text          0x00184914       0x1c G:/WorK/github/synesthesia_moksha/wxp/dgn/sw/limbus_bsp/\libchibios_v246_bsp.a(alt_icache_flush_all.o)
                0x00184914                alt_icache_flush_all
 .text          0x00184930      0x1d8 G:/WorK/github/synesthesia_moksha/wxp/dgn/sw/limbus_bsp/\libchibios_v246_bsp.a(alt_iic.o)
                0x00184930                alt_ic_isr_register
                0x00184980                alt_ic_irq_enable
                0x00184a1c                alt_ic_irq_disable
                0x00184abc                alt_ic_irq_enabled
 .text          0x00184b08       0xf0 G:/WorK/github/synesthesia_moksha/wxp/dgn/sw/limbus_bsp/\libchibios_v246_bsp.a(alt_iic_isr_register.o)
                0x00184b08                alt_iic_isr_register
 .text          0x00184bf8      0x158 G:/WorK/github/synesthesia_moksha/wxp/dgn/sw/limbus_bsp/\libchibios_v246_bsp.a(alt_io_redirect.o)
                0x00184cd8                alt_io_redirect
 .text          0x00184d50        0x0 G:/WorK/github/synesthesia_moksha/wxp/dgn/sw/limbus_bsp/\libchibios_v246_bsp.a(alt_irq_entry.o)
 .text          0x00184d50        0x0 G:/WorK/github/synesthesia_moksha/wxp/dgn/sw/limbus_bsp/\libchibios_v246_bsp.a(alt_irq_handler.o)
 .text          0x00184d50        0x0 G:/WorK/github/synesthesia_moksha/wxp/dgn/sw/limbus_bsp/\libchibios_v246_bsp.a(alt_irq_vars.o)
 .text          0x00184d50      0x298 G:/WorK/github/synesthesia_moksha/wxp/dgn/sw/limbus_bsp/\libchibios_v246_bsp.a(alt_open.o)
                0x00184e90                open
 .text          0x00184fe8       0x80 G:/WorK/github/synesthesia_moksha/wxp/dgn/sw/limbus_bsp/\libchibios_v246_bsp.a(alt_release_fd.o)
                0x00184fe8                alt_release_fd
 .text          0x00185068      0x19c G:/WorK/github/synesthesia_moksha/wxp/dgn/sw/limbus_bsp/\libchibios_v246_bsp.a(alt_tick.o)
                0x00185068                alt_alarm_stop
                0x00185100                alt_tick
 .text          0x00185204       0x20 G:/WorK/github/synesthesia_moksha/wxp/dgn/sw/limbus_bsp/\libchibios_v246_bsp.a(altera_nios2_qsys_irq.o)
                0x00185204                altera_nios2_qsys_irq_init
 .text          0x00185224      0x108 G:/WorK/github/synesthesia_moksha/wxp/dgn/sw/limbus_bsp/\libchibios_v246_bsp.a(chregistry.o)
                0x00185224                chRegFirstThread
                0x00185294                chRegNextThread
 .text          0x0018532c       0x50 G:/WorK/github/synesthesia_moksha/wxp/dgn/sw/limbus_bsp/\libchibios_v246_bsp.a(chcore.o)
                0x0018532c                port_halt
                0x00185354                port_time_tick
 .text          0x0018537c        0x0 G:/WorK/github/synesthesia_moksha/wxp/dgn/sw/limbus_bsp/\libchibios_v246_bsp.a(alt_exception_entry.o)
 .text          0x0018537c       0x90 G:/WorK/github/synesthesia_moksha/wxp/dgn/sw/limbus_bsp/\libchibios_v246_bsp.a(alt_find_dev.o)
                0x0018537c                alt_find_dev
 .text          0x0018540c      0x114 G:/WorK/github/synesthesia_moksha/wxp/dgn/sw/limbus_bsp/\libchibios_v246_bsp.a(alt_find_file.o)
                0x0018540c                alt_find_file
 .text          0x00185520       0xd4 G:/WorK/github/synesthesia_moksha/wxp/dgn/sw/limbus_bsp/\libchibios_v246_bsp.a(alt_get_fd.o)
                0x00185520                alt_get_fd
 .text          0x001855f4       0x14 c:/altera/13.1/nios2eds/bin/gnu/h-i686-mingw32/bin/../lib/gcc/nios2-elf/4.7.3/../../../../../H-i686-mingw32/nios2-elf/lib/mno-hw-mul\libc.a(lib_a-atexit.o)
                0x001855f4                atexit
 .text          0x00185608       0x38 c:/altera/13.1/nios2eds/bin/gnu/h-i686-mingw32/bin/../lib/gcc/nios2-elf/4.7.3/../../../../../H-i686-mingw32/nios2-elf/lib/mno-hw-mul\libc.a(lib_a-exit.o)
                0x00185608                exit
 .text          0x00185640       0x90 c:/altera/13.1/nios2eds/bin/gnu/h-i686-mingw32/bin/../lib/gcc/nios2-elf/4.7.3/../../../../../H-i686-mingw32/nios2-elf/lib/mno-hw-mul\libc.a(lib_a-fputs.o)
                0x00185640                _fputs_r
                0x001856b4                fputs
 .text          0x001856d0      0x4e4 c:/altera/13.1/nios2eds/bin/gnu/h-i686-mingw32/bin/../lib/gcc/nios2-elf/4.7.3/../../../../../H-i686-mingw32/nios2-elf/lib/mno-hw-mul\libc.a(lib_a-fvwrite.o)
                0x001856d0                __sfvwrite_r
 .text          0x00185bb4        0x0 c:/altera/13.1/nios2eds/bin/gnu/h-i686-mingw32/bin/../lib/gcc/nios2-elf/4.7.3/../../../../../H-i686-mingw32/nios2-elf/lib/mno-hw-mul\libc.a(lib_a-impure.o)
 .text          0x00185bb4        0x0 c:/altera/13.1/nios2eds/bin/gnu/h-i686-mingw32/bin/../lib/gcc/nios2-elf/4.7.3/../../../../../H-i686-mingw32/nios2-elf/lib/mno-hw-mul\libc.a(lib_a-int_errno.o)
 .text          0x00185bb4      0x784 c:/altera/13.1/nios2eds/bin/gnu/h-i686-mingw32/bin/../lib/gcc/nios2-elf/4.7.3/../../../../../H-i686-mingw32/nios2-elf/lib/mno-hw-mul\libc.a(lib_a-mallocr.o)
                0x00185bb4                _malloc_r
 .text          0x00186338       0xf8 c:/altera/13.1/nios2eds/bin/gnu/h-i686-mingw32/bin/../lib/gcc/nios2-elf/4.7.3/../../../../../H-i686-mingw32/nios2-elf/lib/mno-hw-mul\libc.a(lib_a-memchr.o)
                0x00186338                memchr
 .text          0x00186430       0x7c c:/altera/13.1/nios2eds/bin/gnu/h-i686-mingw32/bin/../lib/gcc/nios2-elf/4.7.3/../../../../../H-i686-mingw32/nios2-elf/lib/mno-hw-mul\libc.a(lib_a-memcmp.o)
                0x00186430                memcmp
 .text          0x001864ac      0x140 c:/altera/13.1/nios2eds/bin/gnu/h-i686-mingw32/bin/../lib/gcc/nios2-elf/4.7.3/../../../../../H-i686-mingw32/nios2-elf/lib/mno-hw-mul\libc.a(lib_a-memcpy.o)
                0x001864ac                memcpy
 .text          0x001865ec      0x18c c:/altera/13.1/nios2eds/bin/gnu/h-i686-mingw32/bin/../lib/gcc/nios2-elf/4.7.3/../../../../../H-i686-mingw32/nios2-elf/lib/mno-hw-mul\libc.a(lib_a-memmove.o)
                0x001865ec                memmove
 .text          0x00186778      0x1ac c:/altera/13.1/nios2eds/bin/gnu/h-i686-mingw32/bin/../lib/gcc/nios2-elf/4.7.3/../../../../../H-i686-mingw32/nios2-elf/lib/mno-hw-mul\libc.a(lib_a-putc.o)
                0x00186778                _putc_r
                0x00186834                putc
 .text          0x00186924      0x5fc c:/altera/13.1/nios2eds/bin/gnu/h-i686-mingw32/bin/../lib/gcc/nios2-elf/4.7.3/../../../../../H-i686-mingw32/nios2-elf/lib/mno-hw-mul\libc.a(lib_a-reallocr.o)
                0x00186924                _realloc_r
 .text          0x00186f20       0x64 c:/altera/13.1/nios2eds/bin/gnu/h-i686-mingw32/bin/../lib/gcc/nios2-elf/4.7.3/../../../../../H-i686-mingw32/nios2-elf/lib/mno-hw-mul\libc.a(lib_a-sbrkr.o)
                0x00186f20                _sbrk_r
 .text          0x00186f84       0x8c c:/altera/13.1/nios2eds/bin/gnu/h-i686-mingw32/bin/../lib/gcc/nios2-elf/4.7.3/../../../../../H-i686-mingw32/nios2-elf/lib/mno-hw-mul\libc.a(lib_a-strlen.o)
                0x00186f84                strlen
 .text          0x00187010      0x158 c:/altera/13.1/nios2eds/bin/gnu/h-i686-mingw32/bin/../lib/gcc/nios2-elf/4.7.3/../../../../../H-i686-mingw32/nios2-elf/lib/mno-hw-mul\libc.a(lib_a-wbuf.o)
                0x00187010                __swbuf_r
                0x0018714c                __swbuf
 .text          0x00187168      0x174 c:/altera/13.1/nios2eds/bin/gnu/h-i686-mingw32/bin/../lib/gcc/nios2-elf/4.7.3/../../../../../H-i686-mingw32/nios2-elf/lib/mno-hw-mul\libc.a(lib_a-wsetup.o)
                0x00187168                __swsetup_r
 .text          0x001872dc      0x130 c:/altera/13.1/nios2eds/bin/gnu/h-i686-mingw32/bin/../lib/gcc/nios2-elf/4.7.3/../../../../../H-i686-mingw32/nios2-elf/lib/mno-hw-mul\libc.a(lib_a-__atexit.o)
                0x001872dc                __register_exitproc
 .text          0x0018740c      0x1a0 c:/altera/13.1/nios2eds/bin/gnu/h-i686-mingw32/bin/../lib/gcc/nios2-elf/4.7.3/../../../../../H-i686-mingw32/nios2-elf/lib/mno-hw-mul\libc.a(lib_a-__call_atexit.o)
                0x0018740c                __call_exitprocs
 .text          0x001875ac      0x218 c:/altera/13.1/nios2eds/bin/gnu/h-i686-mingw32/bin/../lib/gcc/nios2-elf/4.7.3/../../../../../H-i686-mingw32/nios2-elf/lib/mno-hw-mul\libc.a(lib_a-fflush.o)
                0x001875ac                _fflush_r
                0x00187794                fflush
 .text          0x001877c4      0x2ec c:/altera/13.1/nios2eds/bin/gnu/h-i686-mingw32/bin/../lib/gcc/nios2-elf/4.7.3/../../../../../H-i686-mingw32/nios2-elf/lib/mno-hw-mul\libc.a(lib_a-findfp.o)
                0x001877d4                _cleanup_r
                0x001877e0                __sfmoreglue
                0x00187858                _cleanup
                0x00187868                __sinit
                0x00187974                __sfp
                0x00187a70                __sfp_lock_acquire
                0x00187a74                __sfp_lock_release
                0x00187a78                __sinit_lock_acquire
                0x00187a7c                __sinit_lock_release
                0x00187a80                __fp_lock_all
                0x00187a98                __fp_unlock_all
 .text          0x00187ab0      0x40c c:/altera/13.1/nios2eds/bin/gnu/h-i686-mingw32/bin/../lib/gcc/nios2-elf/4.7.3/../../../../../H-i686-mingw32/nios2-elf/lib/mno-hw-mul\libc.a(lib_a-freer.o)
                0x00187ab0                _malloc_trim_r
                0x00187bec                _free_r
 .text          0x00187ebc      0x160 c:/altera/13.1/nios2eds/bin/gnu/h-i686-mingw32/bin/../lib/gcc/nios2-elf/4.7.3/../../../../../H-i686-mingw32/nios2-elf/lib/mno-hw-mul\libc.a(lib_a-fwalk.o)
                0x00187ebc                _fwalk
                0x00187f64                _fwalk_reent
 .text          0x0018801c      0x1a8 c:/altera/13.1/nios2eds/bin/gnu/h-i686-mingw32/bin/../lib/gcc/nios2-elf/4.7.3/../../../../../H-i686-mingw32/nios2-elf/lib/mno-hw-mul\libc.a(lib_a-makebuf.o)
                0x0018801c                __smakebuf_r
 .text          0x001881c4       0xdc c:/altera/13.1/nios2eds/bin/gnu/h-i686-mingw32/bin/../lib/gcc/nios2-elf/4.7.3/../../../../../H-i686-mingw32/nios2-elf/lib/mno-hw-mul\libc.a(lib_a-memset.o)
                0x001881c4                memset
 .text          0x001882a0      0x140 c:/altera/13.1/nios2eds/bin/gnu/h-i686-mingw32/bin/../lib/gcc/nios2-elf/4.7.3/../../../../../H-i686-mingw32/nios2-elf/lib/mno-hw-mul\libc.a(lib_a-stdio.o)
                0x001882a0                __sread
                0x001882f4                __swrite
                0x0018837c                __sseek
                0x001883d8                __sclose
 .text          0x001883e0       0x6c c:/altera/13.1/nios2eds/bin/gnu/h-i686-mingw32/bin/../lib/gcc/nios2-elf/4.7.3/../../../../../H-i686-mingw32/nios2-elf/lib/mno-hw-mul\libc.a(lib_a-writer.o)
                0x001883e0                _write_r
 .text          0x0018844c       0x64 c:/altera/13.1/nios2eds/bin/gnu/h-i686-mingw32/bin/../lib/gcc/nios2-elf/4.7.3/../../../../../H-i686-mingw32/nios2-elf/lib/mno-hw-mul\libc.a(lib_a-closer.o)
                0x0018844c                _close_r
 .text          0x001884b0      0x150 c:/altera/13.1/nios2eds/bin/gnu/h-i686-mingw32/bin/../lib/gcc/nios2-elf/4.7.3/../../../../../H-i686-mingw32/nios2-elf/lib/mno-hw-mul\libc.a(lib_a-fclose.o)
                0x001884b0                _fclose_r
                0x001885ec                fclose
 .text          0x00188600       0x68 c:/altera/13.1/nios2eds/bin/gnu/h-i686-mingw32/bin/../lib/gcc/nios2-elf/4.7.3/../../../../../H-i686-mingw32/nios2-elf/lib/mno-hw-mul\libc.a(lib_a-fstatr.o)
                0x00188600                _fstat_r
 .text          0x00188668       0x64 c:/altera/13.1/nios2eds/bin/gnu/h-i686-mingw32/bin/../lib/gcc/nios2-elf/4.7.3/../../../../../H-i686-mingw32/nios2-elf/lib/mno-hw-mul\libc.a(lib_a-isattyr.o)
                0x00188668                _isatty_r
 .text          0x001886cc       0x6c c:/altera/13.1/nios2eds/bin/gnu/h-i686-mingw32/bin/../lib/gcc/nios2-elf/4.7.3/../../../../../H-i686-mingw32/nios2-elf/lib/mno-hw-mul\libc.a(lib_a-lseekr.o)
                0x001886cc                _lseek_r
 .text          0x00188738       0x6c c:/altera/13.1/nios2eds/bin/gnu/h-i686-mingw32/bin/../lib/gcc/nios2-elf/4.7.3/../../../../../H-i686-mingw32/nios2-elf/lib/mno-hw-mul\libc.a(lib_a-readr.o)
                0x00188738                _read_r
 .text          0x001887a4       0x40 G:/WorK/github/synesthesia_moksha/wxp/dgn/sw/limbus_bsp/\libchibios_v246_bsp.a(alt_exit.o)
                0x001887a4                _exit
 .text          0x001887e4      0x100 G:/WorK/github/synesthesia_moksha/wxp/dgn/sw/limbus_bsp/\libchibios_v246_bsp.a(alt_fstat.o)
                0x00188834                fstat
 .text          0x001888e4       0xf4 G:/WorK/github/synesthesia_moksha/wxp/dgn/sw/limbus_bsp/\libchibios_v246_bsp.a(alt_isatty.o)
                0x00188934                isatty
 .text          0x001889d8      0x124 G:/WorK/github/synesthesia_moksha/wxp/dgn/sw/limbus_bsp/\libchibios_v246_bsp.a(alt_lseek.o)
                0x00188a28                lseek
 .text          0x00188afc       0x40 G:/WorK/github/synesthesia_moksha/wxp/dgn/sw/limbus_bsp/\libchibios_v246_bsp.a(alt_malloc_lock.o)
                0x00188afc                __malloc_lock
                0x00188b1c                __malloc_unlock
 .text          0x00188b3c      0x144 G:/WorK/github/synesthesia_moksha/wxp/dgn/sw/limbus_bsp/\libchibios_v246_bsp.a(alt_read.o)
                0x00188b8c                read
 .text          0x00188c80       0xb0 G:/WorK/github/synesthesia_moksha/wxp/dgn/sw/limbus_bsp/\libchibios_v246_bsp.a(alt_sbrk.o)
                0x00188c80                sbrk
 .text          0x00188d30      0x140 G:/WorK/github/synesthesia_moksha/wxp/dgn/sw/limbus_bsp/\libchibios_v246_bsp.a(alt_write.o)
                0x00188d80                write
 *(.gnu.warning.*)
 *(.fini)
                0x00188e70                PROVIDE (__etext, ABSOLUTE (.))
                0x00188e70                PROVIDE (_etext, ABSOLUTE (.))
                0x00188e70                PROVIDE (etext, ABSOLUTE (.))
 *(.eh_frame_hdr)
                0x00188e70                . = ALIGN (0x4)
                0x00188e70                PROVIDE (__preinit_array_start, ABSOLUTE (.))
 *(.preinit_array)
                0x00188e70                PROVIDE (__preinit_array_end, ABSOLUTE (.))
                0x00188e70                PROVIDE (__init_array_start, ABSOLUTE (.))
 *(.init_array)
                0x00188e70                PROVIDE (__init_array_end, ABSOLUTE (.))
                0x00188e70                PROVIDE (__fini_array_start, ABSOLUTE (.))
 *(.fini_array)
                0x00188e70                PROVIDE (__fini_array_end, ABSOLUTE (.))
 *(.eh_frame)
 *(.gcc_except_table .gcc_except_table.*)
 *(.dynamic)
                0x00188e70                PROVIDE (__CTOR_LIST__, ABSOLUTE (.))
 *(.ctors)
 *(SORT(.ctors.*))
                0x00188e70                PROVIDE (__CTOR_END__, ABSOLUTE (.))
                0x00188e70                PROVIDE (__DTOR_LIST__, ABSOLUTE (.))
 *(.dtors)
 *(SORT(.dtors.*))
                0x00188e70                PROVIDE (__DTOR_END__, ABSOLUTE (.))
 *(.jcr)
                0x00188e70                . = ALIGN (0x4)

.rodata         0x00188e70       0xbc
                0x00188e70                PROVIDE (__ram_rodata_start, ABSOLUTE (.))
                0x00188e70                . = ALIGN (0x4)
 *(.rodata .rodata.* .gnu.linkonce.r.*)
 .rodata.str1.4
                0x00188e70       0x1e obj/default/hello_world_small.o
                                 0x20 (size before relaxing)
 *fill*         0x00188e8e        0x2 
 .rodata.str1.4
                0x00188e90       0x3f obj/default/ledos/cortex/acortex/i2c/i2c.o
                                 0x40 (size before relaxing)
 *fill*         0x00188ecf        0x1 
 .rodata        0x00188ed0       0x10 G:/WorK/github/synesthesia_moksha/wxp/dgn/sw/limbus_bsp/\libchibios_v246_bsp.a(alt_main.o)
 .rodata        0x00188ee0       0x1c G:/WorK/github/synesthesia_moksha/wxp/dgn/sw/limbus_bsp/\libchibios_v246_bsp.a(alt_sys_init.o)
 .rodata        0x00188efc        0x8 G:/WorK/github/synesthesia_moksha/wxp/dgn/sw/limbus_bsp/\libchibios_v246_bsp.a(chsys.o)
 .rodata        0x00188f04        0xc G:/WorK/github/synesthesia_moksha/wxp/dgn/sw/limbus_bsp/\libchibios_v246_bsp.a(alt_dev.o)
 .rodata        0x00188f10       0x16 G:/WorK/github/synesthesia_moksha/wxp/dgn/sw/limbus_bsp/\libchibios_v246_bsp.a(chregistry.o)
                0x00188f10                ch_debug
 *fill*         0x00188f26        0x2 
 .rodata.str1.4
                0x00188f28        0x4 c:/altera/13.1/nios2eds/bin/gnu/h-i686-mingw32/bin/../lib/gcc/nios2-elf/4.7.3/../../../../../H-i686-mingw32/nios2-elf/lib/mno-hw-mul\libc.a(lib_a-impure.o)
 *(.rodata1)
                0x00188f2c                . = ALIGN (0x4)
                0x00188f2c                PROVIDE (__ram_rodata_end, ABSOLUTE (.))
                0x00188e70                PROVIDE (__flash_rodata_start, LOADADDR (.rodata))

.rwdata         0x00188f2c     0x1b0c load address 0x0018aa38
                0x00188f2c                PROVIDE (__ram_rwdata_start, ABSOLUTE (.))
                0x00188f2c                . = ALIGN (0x4)
 *(.got.plt)
 *(.got)
 *(.data1)
 *(.data .data.* .gnu.linkonce.d.*)
 .data          0x00188f2c        0x0 G:/WorK/github/synesthesia_moksha/wxp/dgn/sw/limbus_bsp//obj/HAL/src/crt0.o
 .data          0x00188f2c        0x0 obj/default/hello_world_small.o
 .data          0x00188f2c        0x0 obj/default/ledos/aud_codec/aud_codec.o
 .data          0x00188f2c        0x0 obj/default/ledos/cortex/acortex/i2c/i2c.o
 .data          0x00188f2c        0x0 obj/default/ledos/cortex/acortex/pcm_bffr/pcm_bffr.o
 .data          0x00188f2c        0x0 obj/default/ledos/cortex/acortex/ssm2603_drvr/ssm2603_drvr.o
 .data          0x00188f2c        0x0 c:/altera/13.1/nios2eds/bin/gnu/h-i686-mingw32/bin/../lib/gcc/nios2-elf/4.7.3/mno-hw-mul\libgcc.a(lib2-mul.o)
 .data          0x00188f2c        0x0 G:/WorK/github/synesthesia_moksha/wxp/dgn/sw/limbus_bsp/\libchibios_v246_bsp.a(chthreads.o)
 .data          0x00188f2c        0x0 G:/WorK/github/synesthesia_moksha/wxp/dgn/sw/limbus_bsp/\libchibios_v246_bsp.a(chvt.o)
 .data          0x00188f2c        0x0 G:/WorK/github/synesthesia_moksha/wxp/dgn/sw/limbus_bsp/\libchibios_v246_bsp.a(chcoreasm.o)
 .data          0x00188f2c        0x0 G:/WorK/github/synesthesia_moksha/wxp/dgn/sw/limbus_bsp/\libchibios_v246_bsp.a(alt_load.o)
 .data          0x00188f2c        0x0 G:/WorK/github/synesthesia_moksha/wxp/dgn/sw/limbus_bsp/\libchibios_v246_bsp.a(alt_main.o)
 .data          0x00188f2c        0x0 G:/WorK/github/synesthesia_moksha/wxp/dgn/sw/limbus_bsp/\libchibios_v246_bsp.a(alt_printf.o)
 .data          0x00188f2c        0x0 G:/WorK/github/synesthesia_moksha/wxp/dgn/sw/limbus_bsp/\libchibios_v246_bsp.a(alt_putchar.o)
 .data          0x00188f2c        0x0 G:/WorK/github/synesthesia_moksha/wxp/dgn/sw/limbus_bsp/\libchibios_v246_bsp.a(alt_putstr.o)
 .data          0x00188f2c     0x1124 G:/WorK/github/synesthesia_moksha/wxp/dgn/sw/limbus_bsp/\libchibios_v246_bsp.a(alt_sys_init.o)
 .data          0x0018a050        0x0 G:/WorK/github/synesthesia_moksha/wxp/dgn/sw/limbus_bsp/\libchibios_v246_bsp.a(altera_avalon_jtag_uart_fd.o)
 .data          0x0018a050        0x0 G:/WorK/github/synesthesia_moksha/wxp/dgn/sw/limbus_bsp/\libchibios_v246_bsp.a(altera_avalon_jtag_uart_init.o)
 .data          0x0018a050        0x0 G:/WorK/github/synesthesia_moksha/wxp/dgn/sw/limbus_bsp/\libchibios_v246_bsp.a(altera_avalon_jtag_uart_ioctl.o)
 .data          0x0018a050        0x0 G:/WorK/github/synesthesia_moksha/wxp/dgn/sw/limbus_bsp/\libchibios_v246_bsp.a(altera_avalon_jtag_uart_read.o)
 .data          0x0018a050        0x0 G:/WorK/github/synesthesia_moksha/wxp/dgn/sw/limbus_bsp/\libchibios_v246_bsp.a(altera_avalon_jtag_uart_write.o)
 .data          0x0018a050        0x0 G:/WorK/github/synesthesia_moksha/wxp/dgn/sw/limbus_bsp/\libchibios_v246_bsp.a(altera_avalon_timer_sc.o)
 .data          0x0018a050        0x0 G:/WorK/github/synesthesia_moksha/wxp/dgn/sw/limbus_bsp/\libchibios_v246_bsp.a(altera_avalon_uart_fd.o)
 .data          0x0018a050        0x0 G:/WorK/github/synesthesia_moksha/wxp/dgn/sw/limbus_bsp/\libchibios_v246_bsp.a(altera_avalon_uart_init.o)
 .data          0x0018a050        0x0 G:/WorK/github/synesthesia_moksha/wxp/dgn/sw/limbus_bsp/\libchibios_v246_bsp.a(altera_avalon_uart_read.o)
 .data          0x0018a050        0x0 G:/WorK/github/synesthesia_moksha/wxp/dgn/sw/limbus_bsp/\libchibios_v246_bsp.a(altera_avalon_uart_write.o)
 .data          0x0018a050        0x0 G:/WorK/github/synesthesia_moksha/wxp/dgn/sw/limbus_bsp/\libchibios_v246_bsp.a(chdynamic.o)
 .data          0x0018a050        0x0 G:/WorK/github/synesthesia_moksha/wxp/dgn/sw/limbus_bsp/\libchibios_v246_bsp.a(chheap.o)
 .data          0x0018a050        0x0 G:/WorK/github/synesthesia_moksha/wxp/dgn/sw/limbus_bsp/\libchibios_v246_bsp.a(chmemcore.o)
 .data          0x0018a050        0x0 G:/WorK/github/synesthesia_moksha/wxp/dgn/sw/limbus_bsp/\libchibios_v246_bsp.a(chmempools.o)
 .data          0x0018a050        0x0 G:/WorK/github/synesthesia_moksha/wxp/dgn/sw/limbus_bsp/\libchibios_v246_bsp.a(chmtx.o)
 .data          0x0018a050        0x0 G:/WorK/github/synesthesia_moksha/wxp/dgn/sw/limbus_bsp/\libchibios_v246_bsp.a(chschd.o)
 .data          0x0018a050        0x0 G:/WorK/github/synesthesia_moksha/wxp/dgn/sw/limbus_bsp/\libchibios_v246_bsp.a(chsys.o)
 .data          0x0018a050        0x0 G:/WorK/github/synesthesia_moksha/wxp/dgn/sw/limbus_bsp/\libchibios_v246_bsp.a(alt_alarm_start.o)
 .data          0x0018a050        0x0 G:/WorK/github/synesthesia_moksha/wxp/dgn/sw/limbus_bsp/\libchibios_v246_bsp.a(alt_close.o)
 .data          0x0018a050        0x0 G:/WorK/github/synesthesia_moksha/wxp/dgn/sw/limbus_bsp/\libchibios_v246_bsp.a(alt_dcache_flush_all.o)
 .data          0x0018a050      0x1a8 G:/WorK/github/synesthesia_moksha/wxp/dgn/sw/limbus_bsp/\libchibios_v246_bsp.a(alt_dev.o)
                0x0018a050                alt_dev_null
                0x0018a078                alt_fd_list
 .data          0x0018a1f8        0x0 G:/WorK/github/synesthesia_moksha/wxp/dgn/sw/limbus_bsp/\libchibios_v246_bsp.a(alt_dev_llist_insert.o)
 .data          0x0018a1f8        0x0 G:/WorK/github/synesthesia_moksha/wxp/dgn/sw/limbus_bsp/\libchibios_v246_bsp.a(alt_do_ctors.o)
 .data          0x0018a1f8        0x0 G:/WorK/github/synesthesia_moksha/wxp/dgn/sw/limbus_bsp/\libchibios_v246_bsp.a(alt_do_dtors.o)
 .data          0x0018a1f8        0x0 G:/WorK/github/synesthesia_moksha/wxp/dgn/sw/limbus_bsp/\libchibios_v246_bsp.a(alt_errno.o)
 .data          0x0018a1f8        0x0 G:/WorK/github/synesthesia_moksha/wxp/dgn/sw/limbus_bsp/\libchibios_v246_bsp.a(alt_icache_flush_all.o)
 .data          0x0018a1f8        0x0 G:/WorK/github/synesthesia_moksha/wxp/dgn/sw/limbus_bsp/\libchibios_v246_bsp.a(alt_iic.o)
 .data          0x0018a1f8        0x0 G:/WorK/github/synesthesia_moksha/wxp/dgn/sw/limbus_bsp/\libchibios_v246_bsp.a(alt_iic_isr_register.o)
 .data          0x0018a1f8        0x0 G:/WorK/github/synesthesia_moksha/wxp/dgn/sw/limbus_bsp/\libchibios_v246_bsp.a(alt_io_redirect.o)
 .data          0x0018a1f8        0x0 G:/WorK/github/synesthesia_moksha/wxp/dgn/sw/limbus_bsp/\libchibios_v246_bsp.a(alt_irq_entry.o)
 .data          0x0018a1f8        0x0 G:/WorK/github/synesthesia_moksha/wxp/dgn/sw/limbus_bsp/\libchibios_v246_bsp.a(alt_irq_handler.o)
 .data          0x0018a1f8        0x0 G:/WorK/github/synesthesia_moksha/wxp/dgn/sw/limbus_bsp/\libchibios_v246_bsp.a(alt_irq_vars.o)
 .data          0x0018a1f8        0x0 G:/WorK/github/synesthesia_moksha/wxp/dgn/sw/limbus_bsp/\libchibios_v246_bsp.a(alt_open.o)
 .data          0x0018a1f8        0x0 G:/WorK/github/synesthesia_moksha/wxp/dgn/sw/limbus_bsp/\libchibios_v246_bsp.a(alt_release_fd.o)
 .data          0x0018a1f8        0x0 G:/WorK/github/synesthesia_moksha/wxp/dgn/sw/limbus_bsp/\libchibios_v246_bsp.a(alt_tick.o)
 .data          0x0018a1f8        0x0 G:/WorK/github/synesthesia_moksha/wxp/dgn/sw/limbus_bsp/\libchibios_v246_bsp.a(altera_nios2_qsys_irq.o)
 .data          0x0018a1f8        0x0 G:/WorK/github/synesthesia_moksha/wxp/dgn/sw/limbus_bsp/\libchibios_v246_bsp.a(chregistry.o)
 .data          0x0018a1f8        0x0 G:/WorK/github/synesthesia_moksha/wxp/dgn/sw/limbus_bsp/\libchibios_v246_bsp.a(chcore.o)
 .data          0x0018a1f8        0x0 G:/WorK/github/synesthesia_moksha/wxp/dgn/sw/limbus_bsp/\libchibios_v246_bsp.a(alt_exception_entry.o)
 .data          0x0018a1f8        0x0 G:/WorK/github/synesthesia_moksha/wxp/dgn/sw/limbus_bsp/\libchibios_v246_bsp.a(alt_find_dev.o)
 .data          0x0018a1f8        0x0 G:/WorK/github/synesthesia_moksha/wxp/dgn/sw/limbus_bsp/\libchibios_v246_bsp.a(alt_find_file.o)
 .data          0x0018a1f8        0x0 G:/WorK/github/synesthesia_moksha/wxp/dgn/sw/limbus_bsp/\libchibios_v246_bsp.a(alt_get_fd.o)
 .data          0x0018a1f8        0x0 c:/altera/13.1/nios2eds/bin/gnu/h-i686-mingw32/bin/../lib/gcc/nios2-elf/4.7.3/../../../../../H-i686-mingw32/nios2-elf/lib/mno-hw-mul\libc.a(lib_a-atexit.o)
 .data          0x0018a1f8        0x0 c:/altera/13.1/nios2eds/bin/gnu/h-i686-mingw32/bin/../lib/gcc/nios2-elf/4.7.3/../../../../../H-i686-mingw32/nios2-elf/lib/mno-hw-mul\libc.a(lib_a-exit.o)
 .data          0x0018a1f8        0x0 c:/altera/13.1/nios2eds/bin/gnu/h-i686-mingw32/bin/../lib/gcc/nios2-elf/4.7.3/../../../../../H-i686-mingw32/nios2-elf/lib/mno-hw-mul\libc.a(lib_a-fputs.o)
 .data          0x0018a1f8        0x0 c:/altera/13.1/nios2eds/bin/gnu/h-i686-mingw32/bin/../lib/gcc/nios2-elf/4.7.3/../../../../../H-i686-mingw32/nios2-elf/lib/mno-hw-mul\libc.a(lib_a-fvwrite.o)
 .data          0x0018a1f8      0x400 c:/altera/13.1/nios2eds/bin/gnu/h-i686-mingw32/bin/../lib/gcc/nios2-elf/4.7.3/../../../../../H-i686-mingw32/nios2-elf/lib/mno-hw-mul\libc.a(lib_a-impure.o)
 .data          0x0018a5f8        0x0 c:/altera/13.1/nios2eds/bin/gnu/h-i686-mingw32/bin/../lib/gcc/nios2-elf/4.7.3/../../../../../H-i686-mingw32/nios2-elf/lib/mno-hw-mul\libc.a(lib_a-int_errno.o)
 .data          0x0018a5f8      0x408 c:/altera/13.1/nios2eds/bin/gnu/h-i686-mingw32/bin/../lib/gcc/nios2-elf/4.7.3/../../../../../H-i686-mingw32/nios2-elf/lib/mno-hw-mul\libc.a(lib_a-mallocr.o)
                0x0018a5f8                __malloc_av_
 .data          0x0018aa00        0x0 c:/altera/13.1/nios2eds/bin/gnu/h-i686-mingw32/bin/../lib/gcc/nios2-elf/4.7.3/../../../../../H-i686-mingw32/nios2-elf/lib/mno-hw-mul\libc.a(lib_a-memchr.o)
 .data          0x0018aa00        0x0 c:/altera/13.1/nios2eds/bin/gnu/h-i686-mingw32/bin/../lib/gcc/nios2-elf/4.7.3/../../../../../H-i686-mingw32/nios2-elf/lib/mno-hw-mul\libc.a(lib_a-memcmp.o)
 .data          0x0018aa00        0x0 c:/altera/13.1/nios2eds/bin/gnu/h-i686-mingw32/bin/../lib/gcc/nios2-elf/4.7.3/../../../../../H-i686-mingw32/nios2-elf/lib/mno-hw-mul\libc.a(lib_a-memcpy.o)
 .data          0x0018aa00        0x0 c:/altera/13.1/nios2eds/bin/gnu/h-i686-mingw32/bin/../lib/gcc/nios2-elf/4.7.3/../../../../../H-i686-mingw32/nios2-elf/lib/mno-hw-mul\libc.a(lib_a-memmove.o)
 .data          0x0018aa00        0x0 c:/altera/13.1/nios2eds/bin/gnu/h-i686-mingw32/bin/../lib/gcc/nios2-elf/4.7.3/../../../../../H-i686-mingw32/nios2-elf/lib/mno-hw-mul\libc.a(lib_a-putc.o)
 .data          0x0018aa00        0x0 c:/altera/13.1/nios2eds/bin/gnu/h-i686-mingw32/bin/../lib/gcc/nios2-elf/4.7.3/../../../../../H-i686-mingw32/nios2-elf/lib/mno-hw-mul\libc.a(lib_a-reallocr.o)
 .data          0x0018aa00        0x0 c:/altera/13.1/nios2eds/bin/gnu/h-i686-mingw32/bin/../lib/gcc/nios2-elf/4.7.3/../../../../../H-i686-mingw32/nios2-elf/lib/mno-hw-mul\libc.a(lib_a-sbrkr.o)
 .data          0x0018aa00        0x0 c:/altera/13.1/nios2eds/bin/gnu/h-i686-mingw32/bin/../lib/gcc/nios2-elf/4.7.3/../../../../../H-i686-mingw32/nios2-elf/lib/mno-hw-mul\libc.a(lib_a-strlen.o)
 .data          0x0018aa00        0x0 c:/altera/13.1/nios2eds/bin/gnu/h-i686-mingw32/bin/../lib/gcc/nios2-elf/4.7.3/../../../../../H-i686-mingw32/nios2-elf/lib/mno-hw-mul\libc.a(lib_a-wbuf.o)
 .data          0x0018aa00        0x0 c:/altera/13.1/nios2eds/bin/gnu/h-i686-mingw32/bin/../lib/gcc/nios2-elf/4.7.3/../../../../../H-i686-mingw32/nios2-elf/lib/mno-hw-mul\libc.a(lib_a-wsetup.o)
 .data          0x0018aa00        0x0 c:/altera/13.1/nios2eds/bin/gnu/h-i686-mingw32/bin/../lib/gcc/nios2-elf/4.7.3/../../../../../H-i686-mingw32/nios2-elf/lib/mno-hw-mul\libc.a(lib_a-__atexit.o)
 .data          0x0018aa00        0x0 c:/altera/13.1/nios2eds/bin/gnu/h-i686-mingw32/bin/../lib/gcc/nios2-elf/4.7.3/../../../../../H-i686-mingw32/nios2-elf/lib/mno-hw-mul\libc.a(lib_a-__call_atexit.o)
 .data          0x0018aa00        0x0 c:/altera/13.1/nios2eds/bin/gnu/h-i686-mingw32/bin/../lib/gcc/nios2-elf/4.7.3/../../../../../H-i686-mingw32/nios2-elf/lib/mno-hw-mul\libc.a(lib_a-fflush.o)
 .data          0x0018aa00        0x0 c:/altera/13.1/nios2eds/bin/gnu/h-i686-mingw32/bin/../lib/gcc/nios2-elf/4.7.3/../../../../../H-i686-mingw32/nios2-elf/lib/mno-hw-mul\libc.a(lib_a-findfp.o)
 .data          0x0018aa00        0x0 c:/altera/13.1/nios2eds/bin/gnu/h-i686-mingw32/bin/../lib/gcc/nios2-elf/4.7.3/../../../../../H-i686-mingw32/nios2-elf/lib/mno-hw-mul\libc.a(lib_a-freer.o)
 .data          0x0018aa00        0x0 c:/altera/13.1/nios2eds/bin/gnu/h-i686-mingw32/bin/../lib/gcc/nios2-elf/4.7.3/../../../../../H-i686-mingw32/nios2-elf/lib/mno-hw-mul\libc.a(lib_a-fwalk.o)
 .data          0x0018aa00        0x0 c:/altera/13.1/nios2eds/bin/gnu/h-i686-mingw32/bin/../lib/gcc/nios2-elf/4.7.3/../../../../../H-i686-mingw32/nios2-elf/lib/mno-hw-mul\libc.a(lib_a-makebuf.o)
 .data          0x0018aa00        0x0 c:/altera/13.1/nios2eds/bin/gnu/h-i686-mingw32/bin/../lib/gcc/nios2-elf/4.7.3/../../../../../H-i686-mingw32/nios2-elf/lib/mno-hw-mul\libc.a(lib_a-memset.o)
 .data          0x0018aa00        0x0 c:/altera/13.1/nios2eds/bin/gnu/h-i686-mingw32/bin/../lib/gcc/nios2-elf/4.7.3/../../../../../H-i686-mingw32/nios2-elf/lib/mno-hw-mul\libc.a(lib_a-stdio.o)
 .data          0x0018aa00        0x0 c:/altera/13.1/nios2eds/bin/gnu/h-i686-mingw32/bin/../lib/gcc/nios2-elf/4.7.3/../../../../../H-i686-mingw32/nios2-elf/lib/mno-hw-mul\libc.a(lib_a-writer.o)
 .data          0x0018aa00        0x0 c:/altera/13.1/nios2eds/bin/gnu/h-i686-mingw32/bin/../lib/gcc/nios2-elf/4.7.3/../../../../../H-i686-mingw32/nios2-elf/lib/mno-hw-mul\libc.a(lib_a-closer.o)
 .data          0x0018aa00        0x0 c:/altera/13.1/nios2eds/bin/gnu/h-i686-mingw32/bin/../lib/gcc/nios2-elf/4.7.3/../../../../../H-i686-mingw32/nios2-elf/lib/mno-hw-mul\libc.a(lib_a-fclose.o)
 .data          0x0018aa00        0x0 c:/altera/13.1/nios2eds/bin/gnu/h-i686-mingw32/bin/../lib/gcc/nios2-elf/4.7.3/../../../../../H-i686-mingw32/nios2-elf/lib/mno-hw-mul\libc.a(lib_a-fstatr.o)
 .data          0x0018aa00        0x0 c:/altera/13.1/nios2eds/bin/gnu/h-i686-mingw32/bin/../lib/gcc/nios2-elf/4.7.3/../../../../../H-i686-mingw32/nios2-elf/lib/mno-hw-mul\libc.a(lib_a-isattyr.o)
 .data          0x0018aa00        0x0 c:/altera/13.1/nios2eds/bin/gnu/h-i686-mingw32/bin/../lib/gcc/nios2-elf/4.7.3/../../../../../H-i686-mingw32/nios2-elf/lib/mno-hw-mul\libc.a(lib_a-lseekr.o)
 .data          0x0018aa00        0x0 c:/altera/13.1/nios2eds/bin/gnu/h-i686-mingw32/bin/../lib/gcc/nios2-elf/4.7.3/../../../../../H-i686-mingw32/nios2-elf/lib/mno-hw-mul\libc.a(lib_a-readr.o)
 .data          0x0018aa00        0x0 G:/WorK/github/synesthesia_moksha/wxp/dgn/sw/limbus_bsp/\libchibios_v246_bsp.a(alt_exit.o)
 .data          0x0018aa00        0x0 G:/WorK/github/synesthesia_moksha/wxp/dgn/sw/limbus_bsp/\libchibios_v246_bsp.a(alt_fstat.o)
 .data          0x0018aa00        0x0 G:/WorK/github/synesthesia_moksha/wxp/dgn/sw/limbus_bsp/\libchibios_v246_bsp.a(alt_isatty.o)
 .data          0x0018aa00        0x0 G:/WorK/github/synesthesia_moksha/wxp/dgn/sw/limbus_bsp/\libchibios_v246_bsp.a(alt_lseek.o)
 .data          0x0018aa00        0x0 G:/WorK/github/synesthesia_moksha/wxp/dgn/sw/limbus_bsp/\libchibios_v246_bsp.a(alt_malloc_lock.o)
 .data          0x0018aa00        0x0 G:/WorK/github/synesthesia_moksha/wxp/dgn/sw/limbus_bsp/\libchibios_v246_bsp.a(alt_read.o)
 .data          0x0018aa00        0x0 G:/WorK/github/synesthesia_moksha/wxp/dgn/sw/limbus_bsp/\libchibios_v246_bsp.a(alt_sbrk.o)
 .data          0x0018aa00        0x0 G:/WorK/github/synesthesia_moksha/wxp/dgn/sw/limbus_bsp/\libchibios_v246_bsp.a(alt_write.o)
                0x00192a00                _gp = ABSOLUTE ((. + 0x8000))
                0x00192a00                PROVIDE (gp, _gp)
 *(.rwdata .rwdata.*)
 *(.sdata .sdata.* .gnu.linkonce.s.*)
 .sdata         0x0018aa00       0x14 G:/WorK/github/synesthesia_moksha/wxp/dgn/sw/limbus_bsp/\libchibios_v246_bsp.a(alt_dev.o)
                0x0018aa00                alt_fs_list
                0x0018aa08                alt_dev_list
                0x0018aa10                alt_max_fd
 .sdata         0x0018aa14        0x4 G:/WorK/github/synesthesia_moksha/wxp/dgn/sw/limbus_bsp/\libchibios_v246_bsp.a(alt_errno.o)
                0x0018aa14                alt_errno
 .sdata         0x0018aa18        0x4 G:/WorK/github/synesthesia_moksha/wxp/dgn/sw/limbus_bsp/\libchibios_v246_bsp.a(alt_irq_vars.o)
                0x0018aa18                alt_priority_mask
 .sdata         0x0018aa1c        0x8 G:/WorK/github/synesthesia_moksha/wxp/dgn/sw/limbus_bsp/\libchibios_v246_bsp.a(alt_tick.o)
                0x0018aa1c                alt_alarm_list
 .sdata         0x0018aa24        0x8 c:/altera/13.1/nios2eds/bin/gnu/h-i686-mingw32/bin/../lib/gcc/nios2-elf/4.7.3/../../../../../H-i686-mingw32/nios2-elf/lib/mno-hw-mul\libc.a(lib_a-impure.o)
                0x0018aa24                _global_impure_ptr
                0x0018aa28                _impure_ptr
 .sdata         0x0018aa2c        0x8 c:/altera/13.1/nios2eds/bin/gnu/h-i686-mingw32/bin/../lib/gcc/nios2-elf/4.7.3/../../../../../H-i686-mingw32/nios2-elf/lib/mno-hw-mul\libc.a(lib_a-mallocr.o)
                0x0018aa2c                __malloc_sbrk_base
                0x0018aa30                __malloc_trim_threshold
 .sdata         0x0018aa34        0x4 G:/WorK/github/synesthesia_moksha/wxp/dgn/sw/limbus_bsp/\libchibios_v246_bsp.a(alt_sbrk.o)
 *(.sdata2 .sdata2.* .gnu.linkonce.s2.*)
                0x0018aa38                . = ALIGN (0x4)
                0x0018aa38                _edata = ABSOLUTE (.)
                0x0018aa38                PROVIDE (edata, ABSOLUTE (.))
                0x0018aa38                PROVIDE (__ram_rwdata_end, ABSOLUTE (.))
                0x0018aa38                PROVIDE (__flash_rwdata_start, LOADADDR (.rwdata))

.bss            0x0018c544      0x550
                0x0018c544                __bss_start = ABSOLUTE (.)
                0x0018c544                PROVIDE (__sbss_start, ABSOLUTE (.))
                0x0018c544                PROVIDE (___sbss_start, ABSOLUTE (.))
 *(.dynsbss)
 *(.sbss .sbss.* .gnu.linkonce.sb.*)
 .sbss          0x0018c544        0x2 obj/default/hello_world_small.o
                0x0018c544                aud_codec_i2c_bffr
 *fill*         0x0018c546        0x2 
 .sbss          0x0018c548        0xc G:/WorK/github/synesthesia_moksha/wxp/dgn/sw/limbus_bsp/\libchibios_v246_bsp.a(alt_main.o)
                0x0018c548                alt_argc
                0x0018c54c                alt_argv
                0x0018c550                alt_envp
 .sbss          0x0018c554        0x8 G:/WorK/github/synesthesia_moksha/wxp/dgn/sw/limbus_bsp/\libchibios_v246_bsp.a(chmemcore.o)
 .sbss          0x0018c55c        0x4 G:/WorK/github/synesthesia_moksha/wxp/dgn/sw/limbus_bsp/\libchibios_v246_bsp.a(alt_irq_vars.o)
                0x0018c55c                alt_irq_active
 .sbss          0x0018c560        0x8 G:/WorK/github/synesthesia_moksha/wxp/dgn/sw/limbus_bsp/\libchibios_v246_bsp.a(alt_tick.o)
                0x0018c560                _alt_tick_rate
                0x0018c564                _alt_nticks
 .sbss          0x0018c568        0x4 c:/altera/13.1/nios2eds/bin/gnu/h-i686-mingw32/bin/../lib/gcc/nios2-elf/4.7.3/../../../../../H-i686-mingw32/nios2-elf/lib/mno-hw-mul\libc.a(lib_a-int_errno.o)
                0x0018c568                errno
 .sbss          0x0018c56c        0xc c:/altera/13.1/nios2eds/bin/gnu/h-i686-mingw32/bin/../lib/gcc/nios2-elf/4.7.3/../../../../../H-i686-mingw32/nios2-elf/lib/mno-hw-mul\libc.a(lib_a-mallocr.o)
                0x0018c56c                __malloc_max_total_mem
                0x0018c570                __malloc_max_sbrked_mem
                0x0018c574                __malloc_top_pad
 *(.sbss2 .sbss2.* .gnu.linkonce.sb2.*)
 *(.scommon)
                0x0018c578                PROVIDE (__sbss_end, ABSOLUTE (.))
                0x0018c578                PROVIDE (___sbss_end, ABSOLUTE (.))
 *(.dynbss)
 *(.bss .bss.* .gnu.linkonce.b.*)
 .bss           0x0018c578        0x0 G:/WorK/github/synesthesia_moksha/wxp/dgn/sw/limbus_bsp//obj/HAL/src/crt0.o
 .bss           0x0018c578        0x0 obj/default/hello_world_small.o
 .bss           0x0018c578        0x0 obj/default/ledos/aud_codec/aud_codec.o
 .bss           0x0018c578        0x0 obj/default/ledos/cortex/acortex/i2c/i2c.o
 .bss           0x0018c578        0x0 obj/default/ledos/cortex/acortex/pcm_bffr/pcm_bffr.o
 .bss           0x0018c578        0x0 obj/default/ledos/cortex/acortex/ssm2603_drvr/ssm2603_drvr.o
 .bss           0x0018c578        0x0 c:/altera/13.1/nios2eds/bin/gnu/h-i686-mingw32/bin/../lib/gcc/nios2-elf/4.7.3/mno-hw-mul\libgcc.a(lib2-mul.o)
 .bss           0x0018c578        0x0 G:/WorK/github/synesthesia_moksha/wxp/dgn/sw/limbus_bsp/\libchibios_v246_bsp.a(chthreads.o)
 .bss           0x0018c578        0x0 G:/WorK/github/synesthesia_moksha/wxp/dgn/sw/limbus_bsp/\libchibios_v246_bsp.a(chvt.o)
 .bss           0x0018c578        0x0 G:/WorK/github/synesthesia_moksha/wxp/dgn/sw/limbus_bsp/\libchibios_v246_bsp.a(chcoreasm.o)
 .bss           0x0018c578        0x0 G:/WorK/github/synesthesia_moksha/wxp/dgn/sw/limbus_bsp/\libchibios_v246_bsp.a(alt_load.o)
 .bss           0x0018c578        0x0 G:/WorK/github/synesthesia_moksha/wxp/dgn/sw/limbus_bsp/\libchibios_v246_bsp.a(alt_main.o)
 .bss           0x0018c578        0x0 G:/WorK/github/synesthesia_moksha/wxp/dgn/sw/limbus_bsp/\libchibios_v246_bsp.a(alt_printf.o)
 .bss           0x0018c578        0x0 G:/WorK/github/synesthesia_moksha/wxp/dgn/sw/limbus_bsp/\libchibios_v246_bsp.a(alt_putchar.o)
 .bss           0x0018c578        0x0 G:/WorK/github/synesthesia_moksha/wxp/dgn/sw/limbus_bsp/\libchibios_v246_bsp.a(alt_putstr.o)
 .bss           0x0018c578        0x0 G:/WorK/github/synesthesia_moksha/wxp/dgn/sw/limbus_bsp/\libchibios_v246_bsp.a(alt_sys_init.o)
 .bss           0x0018c578        0x0 G:/WorK/github/synesthesia_moksha/wxp/dgn/sw/limbus_bsp/\libchibios_v246_bsp.a(altera_avalon_jtag_uart_fd.o)
 .bss           0x0018c578        0x0 G:/WorK/github/synesthesia_moksha/wxp/dgn/sw/limbus_bsp/\libchibios_v246_bsp.a(altera_avalon_jtag_uart_init.o)
 .bss           0x0018c578        0x0 G:/WorK/github/synesthesia_moksha/wxp/dgn/sw/limbus_bsp/\libchibios_v246_bsp.a(altera_avalon_jtag_uart_ioctl.o)
 .bss           0x0018c578        0x0 G:/WorK/github/synesthesia_moksha/wxp/dgn/sw/limbus_bsp/\libchibios_v246_bsp.a(altera_avalon_jtag_uart_read.o)
 .bss           0x0018c578        0x0 G:/WorK/github/synesthesia_moksha/wxp/dgn/sw/limbus_bsp/\libchibios_v246_bsp.a(altera_avalon_jtag_uart_write.o)
 .bss           0x0018c578        0x0 G:/WorK/github/synesthesia_moksha/wxp/dgn/sw/limbus_bsp/\libchibios_v246_bsp.a(altera_avalon_timer_sc.o)
 .bss           0x0018c578        0x0 G:/WorK/github/synesthesia_moksha/wxp/dgn/sw/limbus_bsp/\libchibios_v246_bsp.a(altera_avalon_uart_fd.o)
 .bss           0x0018c578        0x0 G:/WorK/github/synesthesia_moksha/wxp/dgn/sw/limbus_bsp/\libchibios_v246_bsp.a(altera_avalon_uart_init.o)
 .bss           0x0018c578        0x0 G:/WorK/github/synesthesia_moksha/wxp/dgn/sw/limbus_bsp/\libchibios_v246_bsp.a(altera_avalon_uart_read.o)
 .bss           0x0018c578        0x0 G:/WorK/github/synesthesia_moksha/wxp/dgn/sw/limbus_bsp/\libchibios_v246_bsp.a(altera_avalon_uart_write.o)
 .bss           0x0018c578        0x0 G:/WorK/github/synesthesia_moksha/wxp/dgn/sw/limbus_bsp/\libchibios_v246_bsp.a(chdynamic.o)
 .bss           0x0018c578       0x1c G:/WorK/github/synesthesia_moksha/wxp/dgn/sw/limbus_bsp/\libchibios_v246_bsp.a(chheap.o)
 .bss           0x0018c594        0x0 G:/WorK/github/synesthesia_moksha/wxp/dgn/sw/limbus_bsp/\libchibios_v246_bsp.a(chmemcore.o)
 .bss           0x0018c594        0x0 G:/WorK/github/synesthesia_moksha/wxp/dgn/sw/limbus_bsp/\libchibios_v246_bsp.a(chmempools.o)
 .bss           0x0018c594        0x0 G:/WorK/github/synesthesia_moksha/wxp/dgn/sw/limbus_bsp/\libchibios_v246_bsp.a(chmtx.o)
 .bss           0x0018c594        0x0 G:/WorK/github/synesthesia_moksha/wxp/dgn/sw/limbus_bsp/\libchibios_v246_bsp.a(chschd.o)
 .bss           0x0018c594       0x50 G:/WorK/github/synesthesia_moksha/wxp/dgn/sw/limbus_bsp/\libchibios_v246_bsp.a(chsys.o)
 .bss           0x0018c5e4        0x0 G:/WorK/github/synesthesia_moksha/wxp/dgn/sw/limbus_bsp/\libchibios_v246_bsp.a(alt_alarm_start.o)
 .bss           0x0018c5e4        0x0 G:/WorK/github/synesthesia_moksha/wxp/dgn/sw/limbus_bsp/\libchibios_v246_bsp.a(alt_close.o)
 .bss           0x0018c5e4        0x0 G:/WorK/github/synesthesia_moksha/wxp/dgn/sw/limbus_bsp/\libchibios_v246_bsp.a(alt_dcache_flush_all.o)
 .bss           0x0018c5e4        0x0 G:/WorK/github/synesthesia_moksha/wxp/dgn/sw/limbus_bsp/\libchibios_v246_bsp.a(alt_dev.o)
 .bss           0x0018c5e4        0x0 G:/WorK/github/synesthesia_moksha/wxp/dgn/sw/limbus_bsp/\libchibios_v246_bsp.a(alt_dev_llist_insert.o)
 .bss           0x0018c5e4        0x0 G:/WorK/github/synesthesia_moksha/wxp/dgn/sw/limbus_bsp/\libchibios_v246_bsp.a(alt_do_ctors.o)
 .bss           0x0018c5e4        0x0 G:/WorK/github/synesthesia_moksha/wxp/dgn/sw/limbus_bsp/\libchibios_v246_bsp.a(alt_do_dtors.o)
 .bss           0x0018c5e4        0x0 G:/WorK/github/synesthesia_moksha/wxp/dgn/sw/limbus_bsp/\libchibios_v246_bsp.a(alt_errno.o)
 .bss           0x0018c5e4        0x0 G:/WorK/github/synesthesia_moksha/wxp/dgn/sw/limbus_bsp/\libchibios_v246_bsp.a(alt_icache_flush_all.o)
 .bss           0x0018c5e4        0x0 G:/WorK/github/synesthesia_moksha/wxp/dgn/sw/limbus_bsp/\libchibios_v246_bsp.a(alt_iic.o)
 .bss           0x0018c5e4        0x0 G:/WorK/github/synesthesia_moksha/wxp/dgn/sw/limbus_bsp/\libchibios_v246_bsp.a(alt_iic_isr_register.o)
 .bss           0x0018c5e4        0x0 G:/WorK/github/synesthesia_moksha/wxp/dgn/sw/limbus_bsp/\libchibios_v246_bsp.a(alt_io_redirect.o)
 .bss           0x0018c5e4        0x0 G:/WorK/github/synesthesia_moksha/wxp/dgn/sw/limbus_bsp/\libchibios_v246_bsp.a(alt_irq_entry.o)
 .bss           0x0018c5e4        0x0 G:/WorK/github/synesthesia_moksha/wxp/dgn/sw/limbus_bsp/\libchibios_v246_bsp.a(alt_irq_handler.o)
 .bss           0x0018c5e4        0x0 G:/WorK/github/synesthesia_moksha/wxp/dgn/sw/limbus_bsp/\libchibios_v246_bsp.a(alt_irq_vars.o)
 .bss           0x0018c5e4        0x0 G:/WorK/github/synesthesia_moksha/wxp/dgn/sw/limbus_bsp/\libchibios_v246_bsp.a(alt_open.o)
 .bss           0x0018c5e4        0x0 G:/WorK/github/synesthesia_moksha/wxp/dgn/sw/limbus_bsp/\libchibios_v246_bsp.a(alt_release_fd.o)
 .bss           0x0018c5e4        0x0 G:/WorK/github/synesthesia_moksha/wxp/dgn/sw/limbus_bsp/\libchibios_v246_bsp.a(alt_tick.o)
 .bss           0x0018c5e4        0x0 G:/WorK/github/synesthesia_moksha/wxp/dgn/sw/limbus_bsp/\libchibios_v246_bsp.a(altera_nios2_qsys_irq.o)
 .bss           0x0018c5e4        0x0 G:/WorK/github/synesthesia_moksha/wxp/dgn/sw/limbus_bsp/\libchibios_v246_bsp.a(chregistry.o)
 .bss           0x0018c5e4        0x0 G:/WorK/github/synesthesia_moksha/wxp/dgn/sw/limbus_bsp/\libchibios_v246_bsp.a(chcore.o)
 .bss           0x0018c5e4        0x0 G:/WorK/github/synesthesia_moksha/wxp/dgn/sw/limbus_bsp/\libchibios_v246_bsp.a(alt_exception_entry.o)
 .bss           0x0018c5e4        0x0 G:/WorK/github/synesthesia_moksha/wxp/dgn/sw/limbus_bsp/\libchibios_v246_bsp.a(alt_find_dev.o)
 .bss           0x0018c5e4        0x0 G:/WorK/github/synesthesia_moksha/wxp/dgn/sw/limbus_bsp/\libchibios_v246_bsp.a(alt_find_file.o)
 .bss           0x0018c5e4        0x0 G:/WorK/github/synesthesia_moksha/wxp/dgn/sw/limbus_bsp/\libchibios_v246_bsp.a(alt_get_fd.o)
 .bss           0x0018c5e4        0x0 c:/altera/13.1/nios2eds/bin/gnu/h-i686-mingw32/bin/../lib/gcc/nios2-elf/4.7.3/../../../../../H-i686-mingw32/nios2-elf/lib/mno-hw-mul\libc.a(lib_a-atexit.o)
 .bss           0x0018c5e4        0x0 c:/altera/13.1/nios2eds/bin/gnu/h-i686-mingw32/bin/../lib/gcc/nios2-elf/4.7.3/../../../../../H-i686-mingw32/nios2-elf/lib/mno-hw-mul\libc.a(lib_a-exit.o)
 .bss           0x0018c5e4        0x0 c:/altera/13.1/nios2eds/bin/gnu/h-i686-mingw32/bin/../lib/gcc/nios2-elf/4.7.3/../../../../../H-i686-mingw32/nios2-elf/lib/mno-hw-mul\libc.a(lib_a-fputs.o)
 .bss           0x0018c5e4        0x0 c:/altera/13.1/nios2eds/bin/gnu/h-i686-mingw32/bin/../lib/gcc/nios2-elf/4.7.3/../../../../../H-i686-mingw32/nios2-elf/lib/mno-hw-mul\libc.a(lib_a-fvwrite.o)
 .bss           0x0018c5e4        0x0 c:/altera/13.1/nios2eds/bin/gnu/h-i686-mingw32/bin/../lib/gcc/nios2-elf/4.7.3/../../../../../H-i686-mingw32/nios2-elf/lib/mno-hw-mul\libc.a(lib_a-impure.o)
 .bss           0x0018c5e4        0x0 c:/altera/13.1/nios2eds/bin/gnu/h-i686-mingw32/bin/../lib/gcc/nios2-elf/4.7.3/../../../../../H-i686-mingw32/nios2-elf/lib/mno-hw-mul\libc.a(lib_a-int_errno.o)
 .bss           0x0018c5e4       0x28 c:/altera/13.1/nios2eds/bin/gnu/h-i686-mingw32/bin/../lib/gcc/nios2-elf/4.7.3/../../../../../H-i686-mingw32/nios2-elf/lib/mno-hw-mul\libc.a(lib_a-mallocr.o)
                0x0018c5e4                __malloc_current_mallinfo
 .bss           0x0018c60c        0x0 c:/altera/13.1/nios2eds/bin/gnu/h-i686-mingw32/bin/../lib/gcc/nios2-elf/4.7.3/../../../../../H-i686-mingw32/nios2-elf/lib/mno-hw-mul\libc.a(lib_a-memchr.o)
 .bss           0x0018c60c        0x0 c:/altera/13.1/nios2eds/bin/gnu/h-i686-mingw32/bin/../lib/gcc/nios2-elf/4.7.3/../../../../../H-i686-mingw32/nios2-elf/lib/mno-hw-mul\libc.a(lib_a-memcmp.o)
 .bss           0x0018c60c        0x0 c:/altera/13.1/nios2eds/bin/gnu/h-i686-mingw32/bin/../lib/gcc/nios2-elf/4.7.3/../../../../../H-i686-mingw32/nios2-elf/lib/mno-hw-mul\libc.a(lib_a-memcpy.o)
 .bss           0x0018c60c        0x0 c:/altera/13.1/nios2eds/bin/gnu/h-i686-mingw32/bin/../lib/gcc/nios2-elf/4.7.3/../../../../../H-i686-mingw32/nios2-elf/lib/mno-hw-mul\libc.a(lib_a-memmove.o)
 .bss           0x0018c60c        0x0 c:/altera/13.1/nios2eds/bin/gnu/h-i686-mingw32/bin/../lib/gcc/nios2-elf/4.7.3/../../../../../H-i686-mingw32/nios2-elf/lib/mno-hw-mul\libc.a(lib_a-putc.o)
 .bss           0x0018c60c        0x0 c:/altera/13.1/nios2eds/bin/gnu/h-i686-mingw32/bin/../lib/gcc/nios2-elf/4.7.3/../../../../../H-i686-mingw32/nios2-elf/lib/mno-hw-mul\libc.a(lib_a-reallocr.o)
 .bss           0x0018c60c        0x0 c:/altera/13.1/nios2eds/bin/gnu/h-i686-mingw32/bin/../lib/gcc/nios2-elf/4.7.3/../../../../../H-i686-mingw32/nios2-elf/lib/mno-hw-mul\libc.a(lib_a-sbrkr.o)
 .bss           0x0018c60c        0x0 c:/altera/13.1/nios2eds/bin/gnu/h-i686-mingw32/bin/../lib/gcc/nios2-elf/4.7.3/../../../../../H-i686-mingw32/nios2-elf/lib/mno-hw-mul\libc.a(lib_a-strlen.o)
 .bss           0x0018c60c        0x0 c:/altera/13.1/nios2eds/bin/gnu/h-i686-mingw32/bin/../lib/gcc/nios2-elf/4.7.3/../../../../../H-i686-mingw32/nios2-elf/lib/mno-hw-mul\libc.a(lib_a-wbuf.o)
 .bss           0x0018c60c        0x0 c:/altera/13.1/nios2eds/bin/gnu/h-i686-mingw32/bin/../lib/gcc/nios2-elf/4.7.3/../../../../../H-i686-mingw32/nios2-elf/lib/mno-hw-mul\libc.a(lib_a-wsetup.o)
 .bss           0x0018c60c        0x0 c:/altera/13.1/nios2eds/bin/gnu/h-i686-mingw32/bin/../lib/gcc/nios2-elf/4.7.3/../../../../../H-i686-mingw32/nios2-elf/lib/mno-hw-mul\libc.a(lib_a-__atexit.o)
 .bss           0x0018c60c        0x0 c:/altera/13.1/nios2eds/bin/gnu/h-i686-mingw32/bin/../lib/gcc/nios2-elf/4.7.3/../../../../../H-i686-mingw32/nios2-elf/lib/mno-hw-mul\libc.a(lib_a-__call_atexit.o)
 .bss           0x0018c60c        0x0 c:/altera/13.1/nios2eds/bin/gnu/h-i686-mingw32/bin/../lib/gcc/nios2-elf/4.7.3/../../../../../H-i686-mingw32/nios2-elf/lib/mno-hw-mul\libc.a(lib_a-fflush.o)
 .bss           0x0018c60c        0x0 c:/altera/13.1/nios2eds/bin/gnu/h-i686-mingw32/bin/../lib/gcc/nios2-elf/4.7.3/../../../../../H-i686-mingw32/nios2-elf/lib/mno-hw-mul\libc.a(lib_a-findfp.o)
 .bss           0x0018c60c        0x0 c:/altera/13.1/nios2eds/bin/gnu/h-i686-mingw32/bin/../lib/gcc/nios2-elf/4.7.3/../../../../../H-i686-mingw32/nios2-elf/lib/mno-hw-mul\libc.a(lib_a-freer.o)
 .bss           0x0018c60c        0x0 c:/altera/13.1/nios2eds/bin/gnu/h-i686-mingw32/bin/../lib/gcc/nios2-elf/4.7.3/../../../../../H-i686-mingw32/nios2-elf/lib/mno-hw-mul\libc.a(lib_a-fwalk.o)
 .bss           0x0018c60c        0x0 c:/altera/13.1/nios2eds/bin/gnu/h-i686-mingw32/bin/../lib/gcc/nios2-elf/4.7.3/../../../../../H-i686-mingw32/nios2-elf/lib/mno-hw-mul\libc.a(lib_a-makebuf.o)
 .bss           0x0018c60c        0x0 c:/altera/13.1/nios2eds/bin/gnu/h-i686-mingw32/bin/../lib/gcc/nios2-elf/4.7.3/../../../../../H-i686-mingw32/nios2-elf/lib/mno-hw-mul\libc.a(lib_a-memset.o)
 .bss           0x0018c60c        0x0 c:/altera/13.1/nios2eds/bin/gnu/h-i686-mingw32/bin/../lib/gcc/nios2-elf/4.7.3/../../../../../H-i686-mingw32/nios2-elf/lib/mno-hw-mul\libc.a(lib_a-stdio.o)
 .bss           0x0018c60c        0x0 c:/altera/13.1/nios2eds/bin/gnu/h-i686-mingw32/bin/../lib/gcc/nios2-elf/4.7.3/../../../../../H-i686-mingw32/nios2-elf/lib/mno-hw-mul\libc.a(lib_a-writer.o)
 .bss           0x0018c60c        0x0 c:/altera/13.1/nios2eds/bin/gnu/h-i686-mingw32/bin/../lib/gcc/nios2-elf/4.7.3/../../../../../H-i686-mingw32/nios2-elf/lib/mno-hw-mul\libc.a(lib_a-closer.o)
 .bss           0x0018c60c        0x0 c:/altera/13.1/nios2eds/bin/gnu/h-i686-mingw32/bin/../lib/gcc/nios2-elf/4.7.3/../../../../../H-i686-mingw32/nios2-elf/lib/mno-hw-mul\libc.a(lib_a-fclose.o)
 .bss           0x0018c60c        0x0 c:/altera/13.1/nios2eds/bin/gnu/h-i686-mingw32/bin/../lib/gcc/nios2-elf/4.7.3/../../../../../H-i686-mingw32/nios2-elf/lib/mno-hw-mul\libc.a(lib_a-fstatr.o)
 .bss           0x0018c60c        0x0 c:/altera/13.1/nios2eds/bin/gnu/h-i686-mingw32/bin/../lib/gcc/nios2-elf/4.7.3/../../../../../H-i686-mingw32/nios2-elf/lib/mno-hw-mul\libc.a(lib_a-isattyr.o)
 .bss           0x0018c60c        0x0 c:/altera/13.1/nios2eds/bin/gnu/h-i686-mingw32/bin/../lib/gcc/nios2-elf/4.7.3/../../../../../H-i686-mingw32/nios2-elf/lib/mno-hw-mul\libc.a(lib_a-lseekr.o)
 .bss           0x0018c60c        0x0 c:/altera/13.1/nios2eds/bin/gnu/h-i686-mingw32/bin/../lib/gcc/nios2-elf/4.7.3/../../../../../H-i686-mingw32/nios2-elf/lib/mno-hw-mul\libc.a(lib_a-readr.o)
 .bss           0x0018c60c        0x0 G:/WorK/github/synesthesia_moksha/wxp/dgn/sw/limbus_bsp/\libchibios_v246_bsp.a(alt_exit.o)
 .bss           0x0018c60c        0x0 G:/WorK/github/synesthesia_moksha/wxp/dgn/sw/limbus_bsp/\libchibios_v246_bsp.a(alt_fstat.o)
 .bss           0x0018c60c        0x0 G:/WorK/github/synesthesia_moksha/wxp/dgn/sw/limbus_bsp/\libchibios_v246_bsp.a(alt_isatty.o)
 .bss           0x0018c60c        0x0 G:/WorK/github/synesthesia_moksha/wxp/dgn/sw/limbus_bsp/\libchibios_v246_bsp.a(alt_lseek.o)
 .bss           0x0018c60c        0x0 G:/WorK/github/synesthesia_moksha/wxp/dgn/sw/limbus_bsp/\libchibios_v246_bsp.a(alt_malloc_lock.o)
 .bss           0x0018c60c        0x0 G:/WorK/github/synesthesia_moksha/wxp/dgn/sw/limbus_bsp/\libchibios_v246_bsp.a(alt_read.o)
 .bss           0x0018c60c        0x0 G:/WorK/github/synesthesia_moksha/wxp/dgn/sw/limbus_bsp/\libchibios_v246_bsp.a(alt_sbrk.o)
 .bss           0x0018c60c        0x0 G:/WorK/github/synesthesia_moksha/wxp/dgn/sw/limbus_bsp/\libchibios_v246_bsp.a(alt_write.o)
 *(COMMON)
 COMMON         0x0018c60c       0x10 G:/WorK/github/synesthesia_moksha/wxp/dgn/sw/limbus_bsp/\libchibios_v246_bsp.a(chvt.o)
                0x0018c60c                vtlist
 COMMON         0x0018c61c       0x20 G:/WorK/github/synesthesia_moksha/wxp/dgn/sw/limbus_bsp/\libchibios_v246_bsp.a(chschd.o)
                0x0018c61c                rlist
 COMMON         0x0018c63c      0x1c8 G:/WorK/github/synesthesia_moksha/wxp/dgn/sw/limbus_bsp/\libchibios_v246_bsp.a(chsys.o)
                0x0018c63c                _idle_thread_wa
 COMMON         0x0018c804      0x100 G:/WorK/github/synesthesia_moksha/wxp/dgn/sw/limbus_bsp/\libchibios_v246_bsp.a(alt_irq_handler.o)
                0x0018c804                alt_irq
 COMMON         0x0018c904      0x190 c:/altera/13.1/nios2eds/bin/gnu/h-i686-mingw32/bin/../lib/gcc/nios2-elf/4.7.3/../../../../../H-i686-mingw32/nios2-elf/lib/mno-hw-mul\libc.a(lib_a-atexit.o)
                0x0018c904                _atexit0
                0x0018ca94                . = ALIGN (0x4)
                0x0018ca94                __bss_end = ABSOLUTE (.)

.sram_cntrlr    0x0018ca94        0x0
                0x0018ca94                PROVIDE (_alt_partition_sram_cntrlr_start, ABSOLUTE (.))
 *(.sram_cntrlr .sram_cntrlr. sram_cntrlr.*)
                0x0018ca94                . = ALIGN (0x4)
                0x0018ca94                PROVIDE (_alt_partition_sram_cntrlr_end, ABSOLUTE (.))
                0x0018ca94                _end = ABSOLUTE (.)
                0x0018ca94                end = ABSOLUTE (.)
                0x0018ca94                __alt_stack_base = ABSOLUTE (.)
                0x0018ca94                PROVIDE (_alt_partition_sram_cntrlr_load_addr, LOADADDR (.sram_cntrlr))

.stab
 *(.stab)

.stabstr
 *(.stabstr)

.stab.excl
 *(.stab.excl)

.stab.exclstr
 *(.stab.exclstr)

.stab.index
 *(.stab.index)

.stab.indexstr
 *(.stab.indexstr)

.comment        0x00000000       0x23
 *(.comment)
 .comment       0x00000000       0x23 obj/default/hello_world_small.o
                                 0x24 (size before relaxing)
 .comment       0x00000000       0x24 obj/default/ledos/aud_codec/aud_codec.o
 .comment       0x00000000       0x24 obj/default/ledos/cortex/acortex/i2c/i2c.o
 .comment       0x00000000       0x24 obj/default/ledos/cortex/acortex/pcm_bffr/pcm_bffr.o
 .comment       0x00000000       0x24 obj/default/ledos/cortex/acortex/ssm2603_drvr/ssm2603_drvr.o
 .comment       0x00000000       0x24 c:/altera/13.1/nios2eds/bin/gnu/h-i686-mingw32/bin/../lib/gcc/nios2-elf/4.7.3/mno-hw-mul\libgcc.a(lib2-mul.o)
 .comment       0x00000000       0x24 G:/WorK/github/synesthesia_moksha/wxp/dgn/sw/limbus_bsp/\libchibios_v246_bsp.a(chthreads.o)
 .comment       0x00000000       0x24 G:/WorK/github/synesthesia_moksha/wxp/dgn/sw/limbus_bsp/\libchibios_v246_bsp.a(chvt.o)
 .comment       0x00000000       0x24 G:/WorK/github/synesthesia_moksha/wxp/dgn/sw/limbus_bsp/\libchibios_v246_bsp.a(alt_load.o)
 .comment       0x00000000       0x24 G:/WorK/github/synesthesia_moksha/wxp/dgn/sw/limbus_bsp/\libchibios_v246_bsp.a(alt_main.o)
 .comment       0x00000000       0x24 G:/WorK/github/synesthesia_moksha/wxp/dgn/sw/limbus_bsp/\libchibios_v246_bsp.a(alt_printf.o)
 .comment       0x00000000       0x24 G:/WorK/github/synesthesia_moksha/wxp/dgn/sw/limbus_bsp/\libchibios_v246_bsp.a(alt_putchar.o)
 .comment       0x00000000       0x24 G:/WorK/github/synesthesia_moksha/wxp/dgn/sw/limbus_bsp/\libchibios_v246_bsp.a(alt_putstr.o)
 .comment       0x00000000       0x24 G:/WorK/github/synesthesia_moksha/wxp/dgn/sw/limbus_bsp/\libchibios_v246_bsp.a(alt_sys_init.o)
 .comment       0x00000000       0x24 G:/WorK/github/synesthesia_moksha/wxp/dgn/sw/limbus_bsp/\libchibios_v246_bsp.a(altera_avalon_jtag_uart_fd.o)
 .comment       0x00000000       0x24 G:/WorK/github/synesthesia_moksha/wxp/dgn/sw/limbus_bsp/\libchibios_v246_bsp.a(altera_avalon_jtag_uart_init.o)
 .comment       0x00000000       0x24 G:/WorK/github/synesthesia_moksha/wxp/dgn/sw/limbus_bsp/\libchibios_v246_bsp.a(altera_avalon_jtag_uart_ioctl.o)
 .comment       0x00000000       0x24 G:/WorK/github/synesthesia_moksha/wxp/dgn/sw/limbus_bsp/\libchibios_v246_bsp.a(altera_avalon_jtag_uart_read.o)
 .comment       0x00000000       0x24 G:/WorK/github/synesthesia_moksha/wxp/dgn/sw/limbus_bsp/\libchibios_v246_bsp.a(altera_avalon_jtag_uart_write.o)
 .comment       0x00000000       0x24 G:/WorK/github/synesthesia_moksha/wxp/dgn/sw/limbus_bsp/\libchibios_v246_bsp.a(altera_avalon_timer_sc.o)
 .comment       0x00000000       0x24 G:/WorK/github/synesthesia_moksha/wxp/dgn/sw/limbus_bsp/\libchibios_v246_bsp.a(altera_avalon_uart_fd.o)
 .comment       0x00000000       0x24 G:/WorK/github/synesthesia_moksha/wxp/dgn/sw/limbus_bsp/\libchibios_v246_bsp.a(altera_avalon_uart_init.o)
 .comment       0x00000000       0x24 G:/WorK/github/synesthesia_moksha/wxp/dgn/sw/limbus_bsp/\libchibios_v246_bsp.a(altera_avalon_uart_read.o)
 .comment       0x00000000       0x24 G:/WorK/github/synesthesia_moksha/wxp/dgn/sw/limbus_bsp/\libchibios_v246_bsp.a(altera_avalon_uart_write.o)
 .comment       0x00000000       0x24 G:/WorK/github/synesthesia_moksha/wxp/dgn/sw/limbus_bsp/\libchibios_v246_bsp.a(chdynamic.o)
 .comment       0x00000000       0x24 G:/WorK/github/synesthesia_moksha/wxp/dgn/sw/limbus_bsp/\libchibios_v246_bsp.a(chheap.o)
 .comment       0x00000000       0x24 G:/WorK/github/synesthesia_moksha/wxp/dgn/sw/limbus_bsp/\libchibios_v246_bsp.a(chmemcore.o)
 .comment       0x00000000       0x24 G:/WorK/github/synesthesia_moksha/wxp/dgn/sw/limbus_bsp/\libchibios_v246_bsp.a(chmempools.o)
 .comment       0x00000000       0x24 G:/WorK/github/synesthesia_moksha/wxp/dgn/sw/limbus_bsp/\libchibios_v246_bsp.a(chmtx.o)
 .comment       0x00000000       0x24 G:/WorK/github/synesthesia_moksha/wxp/dgn/sw/limbus_bsp/\libchibios_v246_bsp.a(chschd.o)
 .comment       0x00000000       0x24 G:/WorK/github/synesthesia_moksha/wxp/dgn/sw/limbus_bsp/\libchibios_v246_bsp.a(chsys.o)
 .comment       0x00000000       0x24 G:/WorK/github/synesthesia_moksha/wxp/dgn/sw/limbus_bsp/\libchibios_v246_bsp.a(alt_alarm_start.o)
 .comment       0x00000000       0x24 G:/WorK/github/synesthesia_moksha/wxp/dgn/sw/limbus_bsp/\libchibios_v246_bsp.a(alt_close.o)
 .comment       0x00000000       0x24 G:/WorK/github/synesthesia_moksha/wxp/dgn/sw/limbus_bsp/\libchibios_v246_bsp.a(alt_dcache_flush_all.o)
 .comment       0x00000000       0x24 G:/WorK/github/synesthesia_moksha/wxp/dgn/sw/limbus_bsp/\libchibios_v246_bsp.a(alt_dev.o)
 .comment       0x00000000       0x24 G:/WorK/github/synesthesia_moksha/wxp/dgn/sw/limbus_bsp/\libchibios_v246_bsp.a(alt_dev_llist_insert.o)
 .comment       0x00000000       0x24 G:/WorK/github/synesthesia_moksha/wxp/dgn/sw/limbus_bsp/\libchibios_v246_bsp.a(alt_do_ctors.o)
 .comment       0x00000000       0x24 G:/WorK/github/synesthesia_moksha/wxp/dgn/sw/limbus_bsp/\libchibios_v246_bsp.a(alt_do_dtors.o)
 .comment       0x00000000       0x24 G:/WorK/github/synesthesia_moksha/wxp/dgn/sw/limbus_bsp/\libchibios_v246_bsp.a(alt_errno.o)
 .comment       0x00000000       0x24 G:/WorK/github/synesthesia_moksha/wxp/dgn/sw/limbus_bsp/\libchibios_v246_bsp.a(alt_icache_flush_all.o)
 .comment       0x00000000       0x24 G:/WorK/github/synesthesia_moksha/wxp/dgn/sw/limbus_bsp/\libchibios_v246_bsp.a(alt_iic.o)
 .comment       0x00000000       0x24 G:/WorK/github/synesthesia_moksha/wxp/dgn/sw/limbus_bsp/\libchibios_v246_bsp.a(alt_iic_isr_register.o)
 .comment       0x00000000       0x24 G:/WorK/github/synesthesia_moksha/wxp/dgn/sw/limbus_bsp/\libchibios_v246_bsp.a(alt_io_redirect.o)
 .comment       0x00000000       0x24 G:/WorK/github/synesthesia_moksha/wxp/dgn/sw/limbus_bsp/\libchibios_v246_bsp.a(alt_irq_handler.o)
 .comment       0x00000000       0x24 G:/WorK/github/synesthesia_moksha/wxp/dgn/sw/limbus_bsp/\libchibios_v246_bsp.a(alt_irq_vars.o)
 .comment       0x00000000       0x24 G:/WorK/github/synesthesia_moksha/wxp/dgn/sw/limbus_bsp/\libchibios_v246_bsp.a(alt_open.o)
 .comment       0x00000000       0x24 G:/WorK/github/synesthesia_moksha/wxp/dgn/sw/limbus_bsp/\libchibios_v246_bsp.a(alt_release_fd.o)
 .comment       0x00000000       0x24 G:/WorK/github/synesthesia_moksha/wxp/dgn/sw/limbus_bsp/\libchibios_v246_bsp.a(alt_tick.o)
 .comment       0x00000000       0x24 G:/WorK/github/synesthesia_moksha/wxp/dgn/sw/limbus_bsp/\libchibios_v246_bsp.a(altera_nios2_qsys_irq.o)
 .comment       0x00000000       0x24 G:/WorK/github/synesthesia_moksha/wxp/dgn/sw/limbus_bsp/\libchibios_v246_bsp.a(chregistry.o)
 .comment       0x00000000       0x24 G:/WorK/github/synesthesia_moksha/wxp/dgn/sw/limbus_bsp/\libchibios_v246_bsp.a(chcore.o)
 .comment       0x00000000       0x24 G:/WorK/github/synesthesia_moksha/wxp/dgn/sw/limbus_bsp/\libchibios_v246_bsp.a(alt_find_dev.o)
 .comment       0x00000000       0x24 G:/WorK/github/synesthesia_moksha/wxp/dgn/sw/limbus_bsp/\libchibios_v246_bsp.a(alt_find_file.o)
 .comment       0x00000000       0x24 G:/WorK/github/synesthesia_moksha/wxp/dgn/sw/limbus_bsp/\libchibios_v246_bsp.a(alt_get_fd.o)
 .comment       0x00000000       0x24 c:/altera/13.1/nios2eds/bin/gnu/h-i686-mingw32/bin/../lib/gcc/nios2-elf/4.7.3/../../../../../H-i686-mingw32/nios2-elf/lib/mno-hw-mul\libc.a(lib_a-atexit.o)
 .comment       0x00000000       0x24 c:/altera/13.1/nios2eds/bin/gnu/h-i686-mingw32/bin/../lib/gcc/nios2-elf/4.7.3/../../../../../H-i686-mingw32/nios2-elf/lib/mno-hw-mul\libc.a(lib_a-exit.o)
 .comment       0x00000000       0x24 c:/altera/13.1/nios2eds/bin/gnu/h-i686-mingw32/bin/../lib/gcc/nios2-elf/4.7.3/../../../../../H-i686-mingw32/nios2-elf/lib/mno-hw-mul\libc.a(lib_a-fputs.o)
 .comment       0x00000000       0x24 c:/altera/13.1/nios2eds/bin/gnu/h-i686-mingw32/bin/../lib/gcc/nios2-elf/4.7.3/../../../../../H-i686-mingw32/nios2-elf/lib/mno-hw-mul\libc.a(lib_a-fvwrite.o)
 .comment       0x00000000       0x24 c:/altera/13.1/nios2eds/bin/gnu/h-i686-mingw32/bin/../lib/gcc/nios2-elf/4.7.3/../../../../../H-i686-mingw32/nios2-elf/lib/mno-hw-mul\libc.a(lib_a-impure.o)
 .comment       0x00000000       0x24 c:/altera/13.1/nios2eds/bin/gnu/h-i686-mingw32/bin/../lib/gcc/nios2-elf/4.7.3/../../../../../H-i686-mingw32/nios2-elf/lib/mno-hw-mul\libc.a(lib_a-int_errno.o)
 .comment       0x00000000       0x24 c:/altera/13.1/nios2eds/bin/gnu/h-i686-mingw32/bin/../lib/gcc/nios2-elf/4.7.3/../../../../../H-i686-mingw32/nios2-elf/lib/mno-hw-mul\libc.a(lib_a-mallocr.o)
 .comment       0x00000000       0x24 c:/altera/13.1/nios2eds/bin/gnu/h-i686-mingw32/bin/../lib/gcc/nios2-elf/4.7.3/../../../../../H-i686-mingw32/nios2-elf/lib/mno-hw-mul\libc.a(lib_a-memchr.o)
 .comment       0x00000000       0x24 c:/altera/13.1/nios2eds/bin/gnu/h-i686-mingw32/bin/../lib/gcc/nios2-elf/4.7.3/../../../../../H-i686-mingw32/nios2-elf/lib/mno-hw-mul\libc.a(lib_a-memcmp.o)
 .comment       0x00000000       0x24 c:/altera/13.1/nios2eds/bin/gnu/h-i686-mingw32/bin/../lib/gcc/nios2-elf/4.7.3/../../../../../H-i686-mingw32/nios2-elf/lib/mno-hw-mul\libc.a(lib_a-memcpy.o)
 .comment       0x00000000       0x24 c:/altera/13.1/nios2eds/bin/gnu/h-i686-mingw32/bin/../lib/gcc/nios2-elf/4.7.3/../../../../../H-i686-mingw32/nios2-elf/lib/mno-hw-mul\libc.a(lib_a-memmove.o)
 .comment       0x00000000       0x24 c:/altera/13.1/nios2eds/bin/gnu/h-i686-mingw32/bin/../lib/gcc/nios2-elf/4.7.3/../../../../../H-i686-mingw32/nios2-elf/lib/mno-hw-mul\libc.a(lib_a-putc.o)
 .comment       0x00000000       0x24 c:/altera/13.1/nios2eds/bin/gnu/h-i686-mingw32/bin/../lib/gcc/nios2-elf/4.7.3/../../../../../H-i686-mingw32/nios2-elf/lib/mno-hw-mul\libc.a(lib_a-reallocr.o)
 .comment       0x00000000       0x24 c:/altera/13.1/nios2eds/bin/gnu/h-i686-mingw32/bin/../lib/gcc/nios2-elf/4.7.3/../../../../../H-i686-mingw32/nios2-elf/lib/mno-hw-mul\libc.a(lib_a-sbrkr.o)
 .comment       0x00000000       0x24 c:/altera/13.1/nios2eds/bin/gnu/h-i686-mingw32/bin/../lib/gcc/nios2-elf/4.7.3/../../../../../H-i686-mingw32/nios2-elf/lib/mno-hw-mul\libc.a(lib_a-strlen.o)
 .comment       0x00000000       0x24 c:/altera/13.1/nios2eds/bin/gnu/h-i686-mingw32/bin/../lib/gcc/nios2-elf/4.7.3/../../../../../H-i686-mingw32/nios2-elf/lib/mno-hw-mul\libc.a(lib_a-wbuf.o)
 .comment       0x00000000       0x24 c:/altera/13.1/nios2eds/bin/gnu/h-i686-mingw32/bin/../lib/gcc/nios2-elf/4.7.3/../../../../../H-i686-mingw32/nios2-elf/lib/mno-hw-mul\libc.a(lib_a-wsetup.o)
 .comment       0x00000000       0x24 c:/altera/13.1/nios2eds/bin/gnu/h-i686-mingw32/bin/../lib/gcc/nios2-elf/4.7.3/../../../../../H-i686-mingw32/nios2-elf/lib/mno-hw-mul\libc.a(lib_a-__atexit.o)
 .comment       0x00000000       0x24 c:/altera/13.1/nios2eds/bin/gnu/h-i686-mingw32/bin/../lib/gcc/nios2-elf/4.7.3/../../../../../H-i686-mingw32/nios2-elf/lib/mno-hw-mul\libc.a(lib_a-__call_atexit.o)
 .comment       0x00000000       0x24 c:/altera/13.1/nios2eds/bin/gnu/h-i686-mingw32/bin/../lib/gcc/nios2-elf/4.7.3/../../../../../H-i686-mingw32/nios2-elf/lib/mno-hw-mul\libc.a(lib_a-fflush.o)
 .comment       0x00000000       0x24 c:/altera/13.1/nios2eds/bin/gnu/h-i686-mingw32/bin/../lib/gcc/nios2-elf/4.7.3/../../../../../H-i686-mingw32/nios2-elf/lib/mno-hw-mul\libc.a(lib_a-findfp.o)
 .comment       0x00000000       0x24 c:/altera/13.1/nios2eds/bin/gnu/h-i686-mingw32/bin/../lib/gcc/nios2-elf/4.7.3/../../../../../H-i686-mingw32/nios2-elf/lib/mno-hw-mul\libc.a(lib_a-freer.o)
 .comment       0x00000000       0x24 c:/altera/13.1/nios2eds/bin/gnu/h-i686-mingw32/bin/../lib/gcc/nios2-elf/4.7.3/../../../../../H-i686-mingw32/nios2-elf/lib/mno-hw-mul\libc.a(lib_a-fwalk.o)
 .comment       0x00000000       0x24 c:/altera/13.1/nios2eds/bin/gnu/h-i686-mingw32/bin/../lib/gcc/nios2-elf/4.7.3/../../../../../H-i686-mingw32/nios2-elf/lib/mno-hw-mul\libc.a(lib_a-makebuf.o)
 .comment       0x00000000       0x24 c:/altera/13.1/nios2eds/bin/gnu/h-i686-mingw32/bin/../lib/gcc/nios2-elf/4.7.3/../../../../../H-i686-mingw32/nios2-elf/lib/mno-hw-mul\libc.a(lib_a-memset.o)
 .comment       0x00000000       0x24 c:/altera/13.1/nios2eds/bin/gnu/h-i686-mingw32/bin/../lib/gcc/nios2-elf/4.7.3/../../../../../H-i686-mingw32/nios2-elf/lib/mno-hw-mul\libc.a(lib_a-stdio.o)
 .comment       0x00000000       0x24 c:/altera/13.1/nios2eds/bin/gnu/h-i686-mingw32/bin/../lib/gcc/nios2-elf/4.7.3/../../../../../H-i686-mingw32/nios2-elf/lib/mno-hw-mul\libc.a(lib_a-writer.o)
 .comment       0x00000000       0x24 c:/altera/13.1/nios2eds/bin/gnu/h-i686-mingw32/bin/../lib/gcc/nios2-elf/4.7.3/../../../../../H-i686-mingw32/nios2-elf/lib/mno-hw-mul\libc.a(lib_a-closer.o)
 .comment       0x00000000       0x24 c:/altera/13.1/nios2eds/bin/gnu/h-i686-mingw32/bin/../lib/gcc/nios2-elf/4.7.3/../../../../../H-i686-mingw32/nios2-elf/lib/mno-hw-mul\libc.a(lib_a-fclose.o)
 .comment       0x00000000       0x24 c:/altera/13.1/nios2eds/bin/gnu/h-i686-mingw32/bin/../lib/gcc/nios2-elf/4.7.3/../../../../../H-i686-mingw32/nios2-elf/lib/mno-hw-mul\libc.a(lib_a-fstatr.o)
 .comment       0x00000000       0x24 c:/altera/13.1/nios2eds/bin/gnu/h-i686-mingw32/bin/../lib/gcc/nios2-elf/4.7.3/../../../../../H-i686-mingw32/nios2-elf/lib/mno-hw-mul\libc.a(lib_a-isattyr.o)
 .comment       0x00000000       0x24 c:/altera/13.1/nios2eds/bin/gnu/h-i686-mingw32/bin/../lib/gcc/nios2-elf/4.7.3/../../../../../H-i686-mingw32/nios2-elf/lib/mno-hw-mul\libc.a(lib_a-lseekr.o)
 .comment       0x00000000       0x24 c:/altera/13.1/nios2eds/bin/gnu/h-i686-mingw32/bin/../lib/gcc/nios2-elf/4.7.3/../../../../../H-i686-mingw32/nios2-elf/lib/mno-hw-mul\libc.a(lib_a-readr.o)
 .comment       0x00000000       0x24 G:/WorK/github/synesthesia_moksha/wxp/dgn/sw/limbus_bsp/\libchibios_v246_bsp.a(alt_exit.o)
 .comment       0x00000000       0x24 G:/WorK/github/synesthesia_moksha/wxp/dgn/sw/limbus_bsp/\libchibios_v246_bsp.a(alt_fstat.o)
 .comment       0x00000000       0x24 G:/WorK/github/synesthesia_moksha/wxp/dgn/sw/limbus_bsp/\libchibios_v246_bsp.a(alt_isatty.o)
 .comment       0x00000000       0x24 G:/WorK/github/synesthesia_moksha/wxp/dgn/sw/limbus_bsp/\libchibios_v246_bsp.a(alt_lseek.o)
 .comment       0x00000000       0x24 G:/WorK/github/synesthesia_moksha/wxp/dgn/sw/limbus_bsp/\libchibios_v246_bsp.a(alt_malloc_lock.o)
 .comment       0x00000000       0x24 G:/WorK/github/synesthesia_moksha/wxp/dgn/sw/limbus_bsp/\libchibios_v246_bsp.a(alt_read.o)
 .comment       0x00000000       0x24 G:/WorK/github/synesthesia_moksha/wxp/dgn/sw/limbus_bsp/\libchibios_v246_bsp.a(alt_sbrk.o)
 .comment       0x00000000       0x24 G:/WorK/github/synesthesia_moksha/wxp/dgn/sw/limbus_bsp/\libchibios_v246_bsp.a(alt_write.o)

.debug
 *(.debug)

.line
 *(.line)

.debug_srcinfo
 *(.debug_srcinfo)

.debug_sfnames
 *(.debug_sfnames)

.debug_aranges  0x00000000      0xc70
 *(.debug_aranges)
 .debug_aranges
                0x00000000       0x28 G:/WorK/github/synesthesia_moksha/wxp/dgn/sw/limbus_bsp//obj/HAL/src/crt0.o
 .debug_aranges
                0x00000028       0x20 obj/default/hello_world_small.o
 .debug_aranges
                0x00000048       0x20 obj/default/ledos/aud_codec/aud_codec.o
 .debug_aranges
                0x00000068       0x20 obj/default/ledos/cortex/acortex/i2c/i2c.o
 .debug_aranges
                0x00000088       0x20 obj/default/ledos/cortex/acortex/pcm_bffr/pcm_bffr.o
 .debug_aranges
                0x000000a8       0x20 obj/default/ledos/cortex/acortex/ssm2603_drvr/ssm2603_drvr.o
 .debug_aranges
                0x000000c8       0x20 c:/altera/13.1/nios2eds/bin/gnu/h-i686-mingw32/bin/../lib/gcc/nios2-elf/4.7.3/mno-hw-mul\libgcc.a(lib2-mul.o)
 .debug_aranges
                0x000000e8       0x20 G:/WorK/github/synesthesia_moksha/wxp/dgn/sw/limbus_bsp/\libchibios_v246_bsp.a(chthreads.o)
 .debug_aranges
                0x00000108       0x20 G:/WorK/github/synesthesia_moksha/wxp/dgn/sw/limbus_bsp/\libchibios_v246_bsp.a(chvt.o)
 .debug_aranges
                0x00000128       0x20 G:/WorK/github/synesthesia_moksha/wxp/dgn/sw/limbus_bsp/\libchibios_v246_bsp.a(chcoreasm.o)
 .debug_aranges
                0x00000148       0x20 G:/WorK/github/synesthesia_moksha/wxp/dgn/sw/limbus_bsp/\libchibios_v246_bsp.a(alt_load.o)
 .debug_aranges
                0x00000168       0x20 G:/WorK/github/synesthesia_moksha/wxp/dgn/sw/limbus_bsp/\libchibios_v246_bsp.a(alt_main.o)
 .debug_aranges
                0x00000188       0x20 G:/WorK/github/synesthesia_moksha/wxp/dgn/sw/limbus_bsp/\libchibios_v246_bsp.a(alt_printf.o)
 .debug_aranges
                0x000001a8       0x20 G:/WorK/github/synesthesia_moksha/wxp/dgn/sw/limbus_bsp/\libchibios_v246_bsp.a(alt_putchar.o)
 .debug_aranges
                0x000001c8       0x20 G:/WorK/github/synesthesia_moksha/wxp/dgn/sw/limbus_bsp/\libchibios_v246_bsp.a(alt_putstr.o)
 .debug_aranges
                0x000001e8       0x20 G:/WorK/github/synesthesia_moksha/wxp/dgn/sw/limbus_bsp/\libchibios_v246_bsp.a(alt_sys_init.o)
 .debug_aranges
                0x00000208       0x20 G:/WorK/github/synesthesia_moksha/wxp/dgn/sw/limbus_bsp/\libchibios_v246_bsp.a(altera_avalon_jtag_uart_fd.o)
 .debug_aranges
                0x00000228       0x20 G:/WorK/github/synesthesia_moksha/wxp/dgn/sw/limbus_bsp/\libchibios_v246_bsp.a(altera_avalon_jtag_uart_init.o)
 .debug_aranges
                0x00000248       0x20 G:/WorK/github/synesthesia_moksha/wxp/dgn/sw/limbus_bsp/\libchibios_v246_bsp.a(altera_avalon_jtag_uart_ioctl.o)
 .debug_aranges
                0x00000268       0x20 G:/WorK/github/synesthesia_moksha/wxp/dgn/sw/limbus_bsp/\libchibios_v246_bsp.a(altera_avalon_jtag_uart_read.o)
 .debug_aranges
                0x00000288       0x20 G:/WorK/github/synesthesia_moksha/wxp/dgn/sw/limbus_bsp/\libchibios_v246_bsp.a(altera_avalon_jtag_uart_write.o)
 .debug_aranges
                0x000002a8       0x20 G:/WorK/github/synesthesia_moksha/wxp/dgn/sw/limbus_bsp/\libchibios_v246_bsp.a(altera_avalon_timer_sc.o)
 .debug_aranges
                0x000002c8       0x20 G:/WorK/github/synesthesia_moksha/wxp/dgn/sw/limbus_bsp/\libchibios_v246_bsp.a(altera_avalon_uart_fd.o)
 .debug_aranges
                0x000002e8       0x20 G:/WorK/github/synesthesia_moksha/wxp/dgn/sw/limbus_bsp/\libchibios_v246_bsp.a(altera_avalon_uart_init.o)
 .debug_aranges
                0x00000308       0x20 G:/WorK/github/synesthesia_moksha/wxp/dgn/sw/limbus_bsp/\libchibios_v246_bsp.a(altera_avalon_uart_read.o)
 .debug_aranges
                0x00000328       0x20 G:/WorK/github/synesthesia_moksha/wxp/dgn/sw/limbus_bsp/\libchibios_v246_bsp.a(altera_avalon_uart_write.o)
 .debug_aranges
                0x00000348       0x20 G:/WorK/github/synesthesia_moksha/wxp/dgn/sw/limbus_bsp/\libchibios_v246_bsp.a(chdynamic.o)
 .debug_aranges
                0x00000368       0x20 G:/WorK/github/synesthesia_moksha/wxp/dgn/sw/limbus_bsp/\libchibios_v246_bsp.a(chheap.o)
 .debug_aranges
                0x00000388       0x20 G:/WorK/github/synesthesia_moksha/wxp/dgn/sw/limbus_bsp/\libchibios_v246_bsp.a(chmemcore.o)
 .debug_aranges
                0x000003a8       0x20 G:/WorK/github/synesthesia_moksha/wxp/dgn/sw/limbus_bsp/\libchibios_v246_bsp.a(chmempools.o)
 .debug_aranges
                0x000003c8       0x20 G:/WorK/github/synesthesia_moksha/wxp/dgn/sw/limbus_bsp/\libchibios_v246_bsp.a(chmtx.o)
 .debug_aranges
                0x000003e8       0x20 G:/WorK/github/synesthesia_moksha/wxp/dgn/sw/limbus_bsp/\libchibios_v246_bsp.a(chschd.o)
 .debug_aranges
                0x00000408       0x20 G:/WorK/github/synesthesia_moksha/wxp/dgn/sw/limbus_bsp/\libchibios_v246_bsp.a(chsys.o)
 .debug_aranges
                0x00000428       0x20 G:/WorK/github/synesthesia_moksha/wxp/dgn/sw/limbus_bsp/\libchibios_v246_bsp.a(alt_alarm_start.o)
 .debug_aranges
                0x00000448       0x20 G:/WorK/github/synesthesia_moksha/wxp/dgn/sw/limbus_bsp/\libchibios_v246_bsp.a(alt_close.o)
 .debug_aranges
                0x00000468       0x20 G:/WorK/github/synesthesia_moksha/wxp/dgn/sw/limbus_bsp/\libchibios_v246_bsp.a(alt_dcache_flush_all.o)
 .debug_aranges
                0x00000488       0x20 G:/WorK/github/synesthesia_moksha/wxp/dgn/sw/limbus_bsp/\libchibios_v246_bsp.a(alt_dev.o)
 .debug_aranges
                0x000004a8       0x20 G:/WorK/github/synesthesia_moksha/wxp/dgn/sw/limbus_bsp/\libchibios_v246_bsp.a(alt_dev_llist_insert.o)
 .debug_aranges
                0x000004c8       0x20 G:/WorK/github/synesthesia_moksha/wxp/dgn/sw/limbus_bsp/\libchibios_v246_bsp.a(alt_do_ctors.o)
 .debug_aranges
                0x000004e8       0x20 G:/WorK/github/synesthesia_moksha/wxp/dgn/sw/limbus_bsp/\libchibios_v246_bsp.a(alt_do_dtors.o)
 .debug_aranges
                0x00000508       0x18 G:/WorK/github/synesthesia_moksha/wxp/dgn/sw/limbus_bsp/\libchibios_v246_bsp.a(alt_errno.o)
 .debug_aranges
                0x00000520       0x20 G:/WorK/github/synesthesia_moksha/wxp/dgn/sw/limbus_bsp/\libchibios_v246_bsp.a(alt_icache_flush_all.o)
 .debug_aranges
                0x00000540       0x20 G:/WorK/github/synesthesia_moksha/wxp/dgn/sw/limbus_bsp/\libchibios_v246_bsp.a(alt_iic.o)
 .debug_aranges
                0x00000560       0x20 G:/WorK/github/synesthesia_moksha/wxp/dgn/sw/limbus_bsp/\libchibios_v246_bsp.a(alt_iic_isr_register.o)
 .debug_aranges
                0x00000580       0x20 G:/WorK/github/synesthesia_moksha/wxp/dgn/sw/limbus_bsp/\libchibios_v246_bsp.a(alt_io_redirect.o)
 .debug_aranges
                0x000005a0       0x30 G:/WorK/github/synesthesia_moksha/wxp/dgn/sw/limbus_bsp/\libchibios_v246_bsp.a(alt_irq_entry.o)
 .debug_aranges
                0x000005d0       0x20 G:/WorK/github/synesthesia_moksha/wxp/dgn/sw/limbus_bsp/\libchibios_v246_bsp.a(alt_irq_handler.o)
 .debug_aranges
                0x000005f0       0x18 G:/WorK/github/synesthesia_moksha/wxp/dgn/sw/limbus_bsp/\libchibios_v246_bsp.a(alt_irq_vars.o)
 .debug_aranges
                0x00000608       0x20 G:/WorK/github/synesthesia_moksha/wxp/dgn/sw/limbus_bsp/\libchibios_v246_bsp.a(alt_open.o)
 .debug_aranges
                0x00000628       0x20 G:/WorK/github/synesthesia_moksha/wxp/dgn/sw/limbus_bsp/\libchibios_v246_bsp.a(alt_release_fd.o)
 .debug_aranges
                0x00000648       0x20 G:/WorK/github/synesthesia_moksha/wxp/dgn/sw/limbus_bsp/\libchibios_v246_bsp.a(alt_tick.o)
 .debug_aranges
                0x00000668       0x20 G:/WorK/github/synesthesia_moksha/wxp/dgn/sw/limbus_bsp/\libchibios_v246_bsp.a(altera_nios2_qsys_irq.o)
 .debug_aranges
                0x00000688       0x20 G:/WorK/github/synesthesia_moksha/wxp/dgn/sw/limbus_bsp/\libchibios_v246_bsp.a(chregistry.o)
 .debug_aranges
                0x000006a8       0x20 G:/WorK/github/synesthesia_moksha/wxp/dgn/sw/limbus_bsp/\libchibios_v246_bsp.a(chcore.o)
 .debug_aranges
                0x000006c8       0x38 G:/WorK/github/synesthesia_moksha/wxp/dgn/sw/limbus_bsp/\libchibios_v246_bsp.a(alt_exception_entry.o)
 .debug_aranges
                0x00000700       0x20 G:/WorK/github/synesthesia_moksha/wxp/dgn/sw/limbus_bsp/\libchibios_v246_bsp.a(alt_find_dev.o)
 .debug_aranges
                0x00000720       0x20 G:/WorK/github/synesthesia_moksha/wxp/dgn/sw/limbus_bsp/\libchibios_v246_bsp.a(alt_find_file.o)
 .debug_aranges
                0x00000740       0x20 G:/WorK/github/synesthesia_moksha/wxp/dgn/sw/limbus_bsp/\libchibios_v246_bsp.a(alt_get_fd.o)
 .debug_aranges
                0x00000760       0x20 c:/altera/13.1/nios2eds/bin/gnu/h-i686-mingw32/bin/../lib/gcc/nios2-elf/4.7.3/../../../../../H-i686-mingw32/nios2-elf/lib/mno-hw-mul\libc.a(lib_a-atexit.o)
 .debug_aranges
                0x00000780       0x20 c:/altera/13.1/nios2eds/bin/gnu/h-i686-mingw32/bin/../lib/gcc/nios2-elf/4.7.3/../../../../../H-i686-mingw32/nios2-elf/lib/mno-hw-mul\libc.a(lib_a-exit.o)
 .debug_aranges
                0x000007a0       0x20 c:/altera/13.1/nios2eds/bin/gnu/h-i686-mingw32/bin/../lib/gcc/nios2-elf/4.7.3/../../../../../H-i686-mingw32/nios2-elf/lib/mno-hw-mul\libc.a(lib_a-fputs.o)
 .debug_aranges
                0x000007c0       0x20 c:/altera/13.1/nios2eds/bin/gnu/h-i686-mingw32/bin/../lib/gcc/nios2-elf/4.7.3/../../../../../H-i686-mingw32/nios2-elf/lib/mno-hw-mul\libc.a(lib_a-fvwrite.o)
 .debug_aranges
                0x000007e0       0x18 c:/altera/13.1/nios2eds/bin/gnu/h-i686-mingw32/bin/../lib/gcc/nios2-elf/4.7.3/../../../../../H-i686-mingw32/nios2-elf/lib/mno-hw-mul\libc.a(lib_a-impure.o)
 .debug_aranges
                0x000007f8       0x18 c:/altera/13.1/nios2eds/bin/gnu/h-i686-mingw32/bin/../lib/gcc/nios2-elf/4.7.3/../../../../../H-i686-mingw32/nios2-elf/lib/mno-hw-mul\libc.a(lib_a-int_errno.o)
 .debug_aranges
                0x00000810       0x20 c:/altera/13.1/nios2eds/bin/gnu/h-i686-mingw32/bin/../lib/gcc/nios2-elf/4.7.3/../../../../../H-i686-mingw32/nios2-elf/lib/mno-hw-mul\libc.a(lib_a-mallocr.o)
 .debug_aranges
                0x00000830       0x20 c:/altera/13.1/nios2eds/bin/gnu/h-i686-mingw32/bin/../lib/gcc/nios2-elf/4.7.3/../../../../../H-i686-mingw32/nios2-elf/lib/mno-hw-mul\libc.a(lib_a-memchr.o)
 .debug_aranges
                0x00000850       0x20 c:/altera/13.1/nios2eds/bin/gnu/h-i686-mingw32/bin/../lib/gcc/nios2-elf/4.7.3/../../../../../H-i686-mingw32/nios2-elf/lib/mno-hw-mul\libc.a(lib_a-memcmp.o)
 .debug_aranges
                0x00000870       0x20 c:/altera/13.1/nios2eds/bin/gnu/h-i686-mingw32/bin/../lib/gcc/nios2-elf/4.7.3/../../../../../H-i686-mingw32/nios2-elf/lib/mno-hw-mul\libc.a(lib_a-memcpy.o)
 .debug_aranges
                0x00000890       0x20 c:/altera/13.1/nios2eds/bin/gnu/h-i686-mingw32/bin/../lib/gcc/nios2-elf/4.7.3/../../../../../H-i686-mingw32/nios2-elf/lib/mno-hw-mul\libc.a(lib_a-memmove.o)
 .debug_aranges
                0x000008b0       0x20 c:/altera/13.1/nios2eds/bin/gnu/h-i686-mingw32/bin/../lib/gcc/nios2-elf/4.7.3/../../../../../H-i686-mingw32/nios2-elf/lib/mno-hw-mul\libc.a(lib_a-putc.o)
 .debug_aranges
                0x000008d0       0x20 c:/altera/13.1/nios2eds/bin/gnu/h-i686-mingw32/bin/../lib/gcc/nios2-elf/4.7.3/../../../../../H-i686-mingw32/nios2-elf/lib/mno-hw-mul\libc.a(lib_a-reallocr.o)
 .debug_aranges
                0x000008f0       0x20 c:/altera/13.1/nios2eds/bin/gnu/h-i686-mingw32/bin/../lib/gcc/nios2-elf/4.7.3/../../../../../H-i686-mingw32/nios2-elf/lib/mno-hw-mul\libc.a(lib_a-sbrkr.o)
 .debug_aranges
                0x00000910       0x20 c:/altera/13.1/nios2eds/bin/gnu/h-i686-mingw32/bin/../lib/gcc/nios2-elf/4.7.3/../../../../../H-i686-mingw32/nios2-elf/lib/mno-hw-mul\libc.a(lib_a-strlen.o)
 .debug_aranges
                0x00000930       0x20 c:/altera/13.1/nios2eds/bin/gnu/h-i686-mingw32/bin/../lib/gcc/nios2-elf/4.7.3/../../../../../H-i686-mingw32/nios2-elf/lib/mno-hw-mul\libc.a(lib_a-wbuf.o)
 .debug_aranges
                0x00000950       0x20 c:/altera/13.1/nios2eds/bin/gnu/h-i686-mingw32/bin/../lib/gcc/nios2-elf/4.7.3/../../../../../H-i686-mingw32/nios2-elf/lib/mno-hw-mul\libc.a(lib_a-wsetup.o)
 .debug_aranges
                0x00000970       0x20 c:/altera/13.1/nios2eds/bin/gnu/h-i686-mingw32/bin/../lib/gcc/nios2-elf/4.7.3/../../../../../H-i686-mingw32/nios2-elf/lib/mno-hw-mul\libc.a(lib_a-__atexit.o)
 .debug_aranges
                0x00000990       0x20 c:/altera/13.1/nios2eds/bin/gnu/h-i686-mingw32/bin/../lib/gcc/nios2-elf/4.7.3/../../../../../H-i686-mingw32/nios2-elf/lib/mno-hw-mul\libc.a(lib_a-__call_atexit.o)
 .debug_aranges
                0x000009b0       0x20 c:/altera/13.1/nios2eds/bin/gnu/h-i686-mingw32/bin/../lib/gcc/nios2-elf/4.7.3/../../../../../H-i686-mingw32/nios2-elf/lib/mno-hw-mul\libc.a(lib_a-fflush.o)
 .debug_aranges
                0x000009d0       0x20 c:/altera/13.1/nios2eds/bin/gnu/h-i686-mingw32/bin/../lib/gcc/nios2-elf/4.7.3/../../../../../H-i686-mingw32/nios2-elf/lib/mno-hw-mul\libc.a(lib_a-findfp.o)
 .debug_aranges
                0x000009f0       0x20 c:/altera/13.1/nios2eds/bin/gnu/h-i686-mingw32/bin/../lib/gcc/nios2-elf/4.7.3/../../../../../H-i686-mingw32/nios2-elf/lib/mno-hw-mul\libc.a(lib_a-freer.o)
 .debug_aranges
                0x00000a10       0x20 c:/altera/13.1/nios2eds/bin/gnu/h-i686-mingw32/bin/../lib/gcc/nios2-elf/4.7.3/../../../../../H-i686-mingw32/nios2-elf/lib/mno-hw-mul\libc.a(lib_a-fwalk.o)
 .debug_aranges
                0x00000a30       0x20 c:/altera/13.1/nios2eds/bin/gnu/h-i686-mingw32/bin/../lib/gcc/nios2-elf/4.7.3/../../../../../H-i686-mingw32/nios2-elf/lib/mno-hw-mul\libc.a(lib_a-makebuf.o)
 .debug_aranges
                0x00000a50       0x20 c:/altera/13.1/nios2eds/bin/gnu/h-i686-mingw32/bin/../lib/gcc/nios2-elf/4.7.3/../../../../../H-i686-mingw32/nios2-elf/lib/mno-hw-mul\libc.a(lib_a-memset.o)
 .debug_aranges
                0x00000a70       0x20 c:/altera/13.1/nios2eds/bin/gnu/h-i686-mingw32/bin/../lib/gcc/nios2-elf/4.7.3/../../../../../H-i686-mingw32/nios2-elf/lib/mno-hw-mul\libc.a(lib_a-stdio.o)
 .debug_aranges
                0x00000a90       0x20 c:/altera/13.1/nios2eds/bin/gnu/h-i686-mingw32/bin/../lib/gcc/nios2-elf/4.7.3/../../../../../H-i686-mingw32/nios2-elf/lib/mno-hw-mul\libc.a(lib_a-writer.o)
 .debug_aranges
                0x00000ab0       0x20 c:/altera/13.1/nios2eds/bin/gnu/h-i686-mingw32/bin/../lib/gcc/nios2-elf/4.7.3/../../../../../H-i686-mingw32/nios2-elf/lib/mno-hw-mul\libc.a(lib_a-closer.o)
 .debug_aranges
                0x00000ad0       0x20 c:/altera/13.1/nios2eds/bin/gnu/h-i686-mingw32/bin/../lib/gcc/nios2-elf/4.7.3/../../../../../H-i686-mingw32/nios2-elf/lib/mno-hw-mul\libc.a(lib_a-fclose.o)
 .debug_aranges
                0x00000af0       0x20 c:/altera/13.1/nios2eds/bin/gnu/h-i686-mingw32/bin/../lib/gcc/nios2-elf/4.7.3/../../../../../H-i686-mingw32/nios2-elf/lib/mno-hw-mul\libc.a(lib_a-fstatr.o)
 .debug_aranges
                0x00000b10       0x20 c:/altera/13.1/nios2eds/bin/gnu/h-i686-mingw32/bin/../lib/gcc/nios2-elf/4.7.3/../../../../../H-i686-mingw32/nios2-elf/lib/mno-hw-mul\libc.a(lib_a-isattyr.o)
 .debug_aranges
                0x00000b30       0x20 c:/altera/13.1/nios2eds/bin/gnu/h-i686-mingw32/bin/../lib/gcc/nios2-elf/4.7.3/../../../../../H-i686-mingw32/nios2-elf/lib/mno-hw-mul\libc.a(lib_a-lseekr.o)
 .debug_aranges
                0x00000b50       0x20 c:/altera/13.1/nios2eds/bin/gnu/h-i686-mingw32/bin/../lib/gcc/nios2-elf/4.7.3/../../../../../H-i686-mingw32/nios2-elf/lib/mno-hw-mul\libc.a(lib_a-readr.o)
 .debug_aranges
                0x00000b70       0x20 G:/WorK/github/synesthesia_moksha/wxp/dgn/sw/limbus_bsp/\libchibios_v246_bsp.a(alt_exit.o)
 .debug_aranges
                0x00000b90       0x20 G:/WorK/github/synesthesia_moksha/wxp/dgn/sw/limbus_bsp/\libchibios_v246_bsp.a(alt_fstat.o)
 .debug_aranges
                0x00000bb0       0x20 G:/WorK/github/synesthesia_moksha/wxp/dgn/sw/limbus_bsp/\libchibios_v246_bsp.a(alt_isatty.o)
 .debug_aranges
                0x00000bd0       0x20 G:/WorK/github/synesthesia_moksha/wxp/dgn/sw/limbus_bsp/\libchibios_v246_bsp.a(alt_lseek.o)
 .debug_aranges
                0x00000bf0       0x20 G:/WorK/github/synesthesia_moksha/wxp/dgn/sw/limbus_bsp/\libchibios_v246_bsp.a(alt_malloc_lock.o)
 .debug_aranges
                0x00000c10       0x20 G:/WorK/github/synesthesia_moksha/wxp/dgn/sw/limbus_bsp/\libchibios_v246_bsp.a(alt_read.o)
 .debug_aranges
                0x00000c30       0x20 G:/WorK/github/synesthesia_moksha/wxp/dgn/sw/limbus_bsp/\libchibios_v246_bsp.a(alt_sbrk.o)
 .debug_aranges
                0x00000c50       0x20 G:/WorK/github/synesthesia_moksha/wxp/dgn/sw/limbus_bsp/\libchibios_v246_bsp.a(alt_write.o)

.debug_pubnames
 *(.debug_pubnames)

.debug_info     0x00000000    0x1f9ef
 *(.debug_info .gnu.linkonce.wi.*)
 .debug_info    0x00000000       0x6c G:/WorK/github/synesthesia_moksha/wxp/dgn/sw/limbus_bsp//obj/HAL/src/crt0.o
 .debug_info    0x0000006c      0x170 obj/default/hello_world_small.o
 .debug_info    0x000001dc      0x268 obj/default/ledos/aud_codec/aud_codec.o
 .debug_info    0x00000444      0x35a obj/default/ledos/cortex/acortex/i2c/i2c.o
 .debug_info    0x0000079e      0x108 obj/default/ledos/cortex/acortex/pcm_bffr/pcm_bffr.o
 .debug_info    0x000008a6      0x1b0 obj/default/ledos/cortex/acortex/ssm2603_drvr/ssm2603_drvr.o
 .debug_info    0x00000a56       0xb8 c:/altera/13.1/nios2eds/bin/gnu/h-i686-mingw32/bin/../lib/gcc/nios2-elf/4.7.3/mno-hw-mul\libgcc.a(lib2-mul.o)
 .debug_info    0x00000b0e      0xb0f G:/WorK/github/synesthesia_moksha/wxp/dgn/sw/limbus_bsp/\libchibios_v246_bsp.a(chthreads.o)
 .debug_info    0x0000161d      0x273 G:/WorK/github/synesthesia_moksha/wxp/dgn/sw/limbus_bsp/\libchibios_v246_bsp.a(chvt.o)
 .debug_info    0x00001890       0x8b G:/WorK/github/synesthesia_moksha/wxp/dgn/sw/limbus_bsp/\libchibios_v246_bsp.a(chcoreasm.o)
 .debug_info    0x0000191b      0x135 G:/WorK/github/synesthesia_moksha/wxp/dgn/sw/limbus_bsp/\libchibios_v246_bsp.a(alt_load.o)
 .debug_info    0x00001a50      0x183 G:/WorK/github/synesthesia_moksha/wxp/dgn/sw/limbus_bsp/\libchibios_v246_bsp.a(alt_main.o)
 .debug_info    0x00001bd3      0x11e G:/WorK/github/synesthesia_moksha/wxp/dgn/sw/limbus_bsp/\libchibios_v246_bsp.a(alt_printf.o)
 .debug_info    0x00001cf1      0x93d G:/WorK/github/synesthesia_moksha/wxp/dgn/sw/limbus_bsp/\libchibios_v246_bsp.a(alt_putchar.o)
 .debug_info    0x0000262e      0x93f G:/WorK/github/synesthesia_moksha/wxp/dgn/sw/limbus_bsp/\libchibios_v246_bsp.a(alt_putstr.o)
 .debug_info    0x00002f6d      0x624 G:/WorK/github/synesthesia_moksha/wxp/dgn/sw/limbus_bsp/\libchibios_v246_bsp.a(alt_sys_init.o)
 .debug_info    0x00003591      0x58a G:/WorK/github/synesthesia_moksha/wxp/dgn/sw/limbus_bsp/\libchibios_v246_bsp.a(altera_avalon_jtag_uart_fd.o)
 .debug_info    0x00003b1b      0x3d8 G:/WorK/github/synesthesia_moksha/wxp/dgn/sw/limbus_bsp/\libchibios_v246_bsp.a(altera_avalon_jtag_uart_init.o)
 .debug_info    0x00003ef3      0x2a9 G:/WorK/github/synesthesia_moksha/wxp/dgn/sw/limbus_bsp/\libchibios_v246_bsp.a(altera_avalon_jtag_uart_ioctl.o)
 .debug_info    0x0000419c      0x371 G:/WorK/github/synesthesia_moksha/wxp/dgn/sw/limbus_bsp/\libchibios_v246_bsp.a(altera_avalon_jtag_uart_read.o)
 .debug_info    0x0000450d      0x36c G:/WorK/github/synesthesia_moksha/wxp/dgn/sw/limbus_bsp/\libchibios_v246_bsp.a(altera_avalon_jtag_uart_write.o)
 .debug_info    0x00004879      0x235 G:/WorK/github/synesthesia_moksha/wxp/dgn/sw/limbus_bsp/\libchibios_v246_bsp.a(altera_avalon_timer_sc.o)
 .debug_info    0x00004aae      0x481 G:/WorK/github/synesthesia_moksha/wxp/dgn/sw/limbus_bsp/\libchibios_v246_bsp.a(altera_avalon_uart_fd.o)
 .debug_info    0x00004f2f      0x356 G:/WorK/github/synesthesia_moksha/wxp/dgn/sw/limbus_bsp/\libchibios_v246_bsp.a(altera_avalon_uart_init.o)
 .debug_info    0x00005285      0x33f G:/WorK/github/synesthesia_moksha/wxp/dgn/sw/limbus_bsp/\libchibios_v246_bsp.a(altera_avalon_uart_read.o)
 .debug_info    0x000055c4      0x336 G:/WorK/github/synesthesia_moksha/wxp/dgn/sw/limbus_bsp/\libchibios_v246_bsp.a(altera_avalon_uart_write.o)
 .debug_info    0x000058fa      0x7e1 G:/WorK/github/synesthesia_moksha/wxp/dgn/sw/limbus_bsp/\libchibios_v246_bsp.a(chdynamic.o)
 .debug_info    0x000060db      0x662 G:/WorK/github/synesthesia_moksha/wxp/dgn/sw/limbus_bsp/\libchibios_v246_bsp.a(chheap.o)
 .debug_info    0x0000673d      0x21f G:/WorK/github/synesthesia_moksha/wxp/dgn/sw/limbus_bsp/\libchibios_v246_bsp.a(chmemcore.o)
 .debug_info    0x0000695c      0x2f8 G:/WorK/github/synesthesia_moksha/wxp/dgn/sw/limbus_bsp/\libchibios_v246_bsp.a(chmempools.o)
 .debug_info    0x00006c54      0x8b6 G:/WorK/github/synesthesia_moksha/wxp/dgn/sw/limbus_bsp/\libchibios_v246_bsp.a(chmtx.o)
 .debug_info    0x0000750a      0x77d G:/WorK/github/synesthesia_moksha/wxp/dgn/sw/limbus_bsp/\libchibios_v246_bsp.a(chschd.o)
 .debug_info    0x00007c87      0x7b5 G:/WorK/github/synesthesia_moksha/wxp/dgn/sw/limbus_bsp/\libchibios_v246_bsp.a(chsys.o)
 .debug_info    0x0000843c      0x2e4 G:/WorK/github/synesthesia_moksha/wxp/dgn/sw/limbus_bsp/\libchibios_v246_bsp.a(alt_alarm_start.o)
 .debug_info    0x00008720      0x350 G:/WorK/github/synesthesia_moksha/wxp/dgn/sw/limbus_bsp/\libchibios_v246_bsp.a(alt_close.o)
 .debug_info    0x00008a70       0x90 G:/WorK/github/synesthesia_moksha/wxp/dgn/sw/limbus_bsp/\libchibios_v246_bsp.a(alt_dcache_flush_all.o)
 .debug_info    0x00008b00      0x4e3 G:/WorK/github/synesthesia_moksha/wxp/dgn/sw/limbus_bsp/\libchibios_v246_bsp.a(alt_dev.o)
 .debug_info    0x00008fe3      0x1b9 G:/WorK/github/synesthesia_moksha/wxp/dgn/sw/limbus_bsp/\libchibios_v246_bsp.a(alt_dev_llist_insert.o)
 .debug_info    0x0000919c       0x8d G:/WorK/github/synesthesia_moksha/wxp/dgn/sw/limbus_bsp/\libchibios_v246_bsp.a(alt_do_ctors.o)
 .debug_info    0x00009229       0x8d G:/WorK/github/synesthesia_moksha/wxp/dgn/sw/limbus_bsp/\libchibios_v246_bsp.a(alt_do_dtors.o)
 .debug_info    0x000092b6       0xa3 G:/WorK/github/synesthesia_moksha/wxp/dgn/sw/limbus_bsp/\libchibios_v246_bsp.a(alt_errno.o)
 .debug_info    0x00009359       0x90 G:/WorK/github/synesthesia_moksha/wxp/dgn/sw/limbus_bsp/\libchibios_v246_bsp.a(alt_icache_flush_all.o)
 .debug_info    0x000093e9      0x364 G:/WorK/github/synesthesia_moksha/wxp/dgn/sw/limbus_bsp/\libchibios_v246_bsp.a(alt_iic.o)
 .debug_info    0x0000974d      0x1f6 G:/WorK/github/synesthesia_moksha/wxp/dgn/sw/limbus_bsp/\libchibios_v246_bsp.a(alt_iic_isr_register.o)
 .debug_info    0x00009943      0x4f0 G:/WorK/github/synesthesia_moksha/wxp/dgn/sw/limbus_bsp/\libchibios_v246_bsp.a(alt_io_redirect.o)
 .debug_info    0x00009e33       0x75 G:/WorK/github/synesthesia_moksha/wxp/dgn/sw/limbus_bsp/\libchibios_v246_bsp.a(alt_irq_entry.o)
 .debug_info    0x00009ea8      0x190 G:/WorK/github/synesthesia_moksha/wxp/dgn/sw/limbus_bsp/\libchibios_v246_bsp.a(alt_irq_handler.o)
 .debug_info    0x0000a038       0x8a G:/WorK/github/synesthesia_moksha/wxp/dgn/sw/limbus_bsp/\libchibios_v246_bsp.a(alt_irq_vars.o)
 .debug_info    0x0000a0c2      0x3f0 G:/WorK/github/synesthesia_moksha/wxp/dgn/sw/limbus_bsp/\libchibios_v246_bsp.a(alt_open.o)
 .debug_info    0x0000a4b2      0x2dd G:/WorK/github/synesthesia_moksha/wxp/dgn/sw/limbus_bsp/\libchibios_v246_bsp.a(alt_release_fd.o)
 .debug_info    0x0000a78f      0x2b1 G:/WorK/github/synesthesia_moksha/wxp/dgn/sw/limbus_bsp/\libchibios_v246_bsp.a(alt_tick.o)
 .debug_info    0x0000aa40       0x90 G:/WorK/github/synesthesia_moksha/wxp/dgn/sw/limbus_bsp/\libchibios_v246_bsp.a(altera_nios2_qsys_irq.o)
 .debug_info    0x0000aad0      0x6e7 G:/WorK/github/synesthesia_moksha/wxp/dgn/sw/limbus_bsp/\libchibios_v246_bsp.a(chregistry.o)
 .debug_info    0x0000b1b7       0xf5 G:/WorK/github/synesthesia_moksha/wxp/dgn/sw/limbus_bsp/\libchibios_v246_bsp.a(chcore.o)
 .debug_info    0x0000b2ac       0x7b G:/WorK/github/synesthesia_moksha/wxp/dgn/sw/limbus_bsp/\libchibios_v246_bsp.a(alt_exception_entry.o)
 .debug_info    0x0000b327      0x30d G:/WorK/github/synesthesia_moksha/wxp/dgn/sw/limbus_bsp/\libchibios_v246_bsp.a(alt_find_dev.o)
 .debug_info    0x0000b634      0x30c G:/WorK/github/synesthesia_moksha/wxp/dgn/sw/limbus_bsp/\libchibios_v246_bsp.a(alt_find_file.o)
 .debug_info    0x0000b940      0x339 G:/WorK/github/synesthesia_moksha/wxp/dgn/sw/limbus_bsp/\libchibios_v246_bsp.a(alt_get_fd.o)
 .debug_info    0x0000bc79      0x1e6 c:/altera/13.1/nios2eds/bin/gnu/h-i686-mingw32/bin/../lib/gcc/nios2-elf/4.7.3/../../../../../H-i686-mingw32/nios2-elf/lib/mno-hw-mul\libc.a(lib_a-atexit.o)
 .debug_info    0x0000be5f      0x993 c:/altera/13.1/nios2eds/bin/gnu/h-i686-mingw32/bin/../lib/gcc/nios2-elf/4.7.3/../../../../../H-i686-mingw32/nios2-elf/lib/mno-hw-mul\libc.a(lib_a-exit.o)
 .debug_info    0x0000c7f2      0xaf9 c:/altera/13.1/nios2eds/bin/gnu/h-i686-mingw32/bin/../lib/gcc/nios2-elf/4.7.3/../../../../../H-i686-mingw32/nios2-elf/lib/mno-hw-mul\libc.a(lib_a-fputs.o)
 .debug_info    0x0000d2eb      0xd05 c:/altera/13.1/nios2eds/bin/gnu/h-i686-mingw32/bin/../lib/gcc/nios2-elf/4.7.3/../../../../../H-i686-mingw32/nios2-elf/lib/mno-hw-mul\libc.a(lib_a-fvwrite.o)
 .debug_info    0x0000dff0      0x938 c:/altera/13.1/nios2eds/bin/gnu/h-i686-mingw32/bin/../lib/gcc/nios2-elf/4.7.3/../../../../../H-i686-mingw32/nios2-elf/lib/mno-hw-mul\libc.a(lib_a-impure.o)
 .debug_info    0x0000e928       0x84 c:/altera/13.1/nios2eds/bin/gnu/h-i686-mingw32/bin/../lib/gcc/nios2-elf/4.7.3/../../../../../H-i686-mingw32/nios2-elf/lib/mno-hw-mul\libc.a(lib_a-int_errno.o)
 .debug_info    0x0000e9ac      0xe44 c:/altera/13.1/nios2eds/bin/gnu/h-i686-mingw32/bin/../lib/gcc/nios2-elf/4.7.3/../../../../../H-i686-mingw32/nios2-elf/lib/mno-hw-mul\libc.a(lib_a-mallocr.o)
 .debug_info    0x0000f7f0      0x13e c:/altera/13.1/nios2eds/bin/gnu/h-i686-mingw32/bin/../lib/gcc/nios2-elf/4.7.3/../../../../../H-i686-mingw32/nios2-elf/lib/mno-hw-mul\libc.a(lib_a-memchr.o)
 .debug_info    0x0000f92e      0x117 c:/altera/13.1/nios2eds/bin/gnu/h-i686-mingw32/bin/../lib/gcc/nios2-elf/4.7.3/../../../../../H-i686-mingw32/nios2-elf/lib/mno-hw-mul\libc.a(lib_a-memcmp.o)
 .debug_info    0x0000fa45      0x10f c:/altera/13.1/nios2eds/bin/gnu/h-i686-mingw32/bin/../lib/gcc/nios2-elf/4.7.3/../../../../../H-i686-mingw32/nios2-elf/lib/mno-hw-mul\libc.a(lib_a-memcpy.o)
 .debug_info    0x0000fb54      0x147 c:/altera/13.1/nios2eds/bin/gnu/h-i686-mingw32/bin/../lib/gcc/nios2-elf/4.7.3/../../../../../H-i686-mingw32/nios2-elf/lib/mno-hw-mul\libc.a(lib_a-memmove.o)
 .debug_info    0x0000fc9b      0xa2e c:/altera/13.1/nios2eds/bin/gnu/h-i686-mingw32/bin/../lib/gcc/nios2-elf/4.7.3/../../../../../H-i686-mingw32/nios2-elf/lib/mno-hw-mul\libc.a(lib_a-putc.o)
 .debug_info    0x000106c9      0xd8e c:/altera/13.1/nios2eds/bin/gnu/h-i686-mingw32/bin/../lib/gcc/nios2-elf/4.7.3/../../../../../H-i686-mingw32/nios2-elf/lib/mno-hw-mul\libc.a(lib_a-reallocr.o)
 .debug_info    0x00011457      0x9a3 c:/altera/13.1/nios2eds/bin/gnu/h-i686-mingw32/bin/../lib/gcc/nios2-elf/4.7.3/../../../../../H-i686-mingw32/nios2-elf/lib/mno-hw-mul\libc.a(lib_a-sbrkr.o)
 .debug_info    0x00011dfa       0xdf c:/altera/13.1/nios2eds/bin/gnu/h-i686-mingw32/bin/../lib/gcc/nios2-elf/4.7.3/../../../../../H-i686-mingw32/nios2-elf/lib/mno-hw-mul\libc.a(lib_a-strlen.o)
 .debug_info    0x00011ed9      0xa6e c:/altera/13.1/nios2eds/bin/gnu/h-i686-mingw32/bin/../lib/gcc/nios2-elf/4.7.3/../../../../../H-i686-mingw32/nios2-elf/lib/mno-hw-mul\libc.a(lib_a-wbuf.o)
 .debug_info    0x00012947      0x9d4 c:/altera/13.1/nios2eds/bin/gnu/h-i686-mingw32/bin/../lib/gcc/nios2-elf/4.7.3/../../../../../H-i686-mingw32/nios2-elf/lib/mno-hw-mul\libc.a(lib_a-wsetup.o)
 .debug_info    0x0001331b      0x9f9 c:/altera/13.1/nios2eds/bin/gnu/h-i686-mingw32/bin/../lib/gcc/nios2-elf/4.7.3/../../../../../H-i686-mingw32/nios2-elf/lib/mno-hw-mul\libc.a(lib_a-__atexit.o)
 .debug_info    0x00013d14      0xa07 c:/altera/13.1/nios2eds/bin/gnu/h-i686-mingw32/bin/../lib/gcc/nios2-elf/4.7.3/../../../../../H-i686-mingw32/nios2-elf/lib/mno-hw-mul\libc.a(lib_a-__call_atexit.o)
 .debug_info    0x0001471b      0xad0 c:/altera/13.1/nios2eds/bin/gnu/h-i686-mingw32/bin/../lib/gcc/nios2-elf/4.7.3/../../../../../H-i686-mingw32/nios2-elf/lib/mno-hw-mul\libc.a(lib_a-fflush.o)
 .debug_info    0x000151eb      0xd6e c:/altera/13.1/nios2eds/bin/gnu/h-i686-mingw32/bin/../lib/gcc/nios2-elf/4.7.3/../../../../../H-i686-mingw32/nios2-elf/lib/mno-hw-mul\libc.a(lib_a-findfp.o)
 .debug_info    0x00015f59      0xcf9 c:/altera/13.1/nios2eds/bin/gnu/h-i686-mingw32/bin/../lib/gcc/nios2-elf/4.7.3/../../../../../H-i686-mingw32/nios2-elf/lib/mno-hw-mul\libc.a(lib_a-freer.o)
 .debug_info    0x00016c52      0xb72 c:/altera/13.1/nios2eds/bin/gnu/h-i686-mingw32/bin/../lib/gcc/nios2-elf/4.7.3/../../../../../H-i686-mingw32/nios2-elf/lib/mno-hw-mul\libc.a(lib_a-fwalk.o)
 .debug_info    0x000177c4      0xbc2 c:/altera/13.1/nios2eds/bin/gnu/h-i686-mingw32/bin/../lib/gcc/nios2-elf/4.7.3/../../../../../H-i686-mingw32/nios2-elf/lib/mno-hw-mul\libc.a(lib_a-makebuf.o)
 .debug_info    0x00018386      0x117 c:/altera/13.1/nios2eds/bin/gnu/h-i686-mingw32/bin/../lib/gcc/nios2-elf/4.7.3/../../../../../H-i686-mingw32/nios2-elf/lib/mno-hw-mul\libc.a(lib_a-memset.o)
 .debug_info    0x0001849d      0xbfd c:/altera/13.1/nios2eds/bin/gnu/h-i686-mingw32/bin/../lib/gcc/nios2-elf/4.7.3/../../../../../H-i686-mingw32/nios2-elf/lib/mno-hw-mul\libc.a(lib_a-stdio.o)
 .debug_info    0x0001909a      0x9d2 c:/altera/13.1/nios2eds/bin/gnu/h-i686-mingw32/bin/../lib/gcc/nios2-elf/4.7.3/../../../../../H-i686-mingw32/nios2-elf/lib/mno-hw-mul\libc.a(lib_a-writer.o)
 .debug_info    0x00019a6c      0x97f c:/altera/13.1/nios2eds/bin/gnu/h-i686-mingw32/bin/../lib/gcc/nios2-elf/4.7.3/../../../../../H-i686-mingw32/nios2-elf/lib/mno-hw-mul\libc.a(lib_a-closer.o)
 .debug_info    0x0001a3eb      0xa97 c:/altera/13.1/nios2eds/bin/gnu/h-i686-mingw32/bin/../lib/gcc/nios2-elf/4.7.3/../../../../../H-i686-mingw32/nios2-elf/lib/mno-hw-mul\libc.a(lib_a-fclose.o)
 .debug_info    0x0001ae82      0xb2f c:/altera/13.1/nios2eds/bin/gnu/h-i686-mingw32/bin/../lib/gcc/nios2-elf/4.7.3/../../../../../H-i686-mingw32/nios2-elf/lib/mno-hw-mul\libc.a(lib_a-fstatr.o)
 .debug_info    0x0001b9b1      0x97f c:/altera/13.1/nios2eds/bin/gnu/h-i686-mingw32/bin/../lib/gcc/nios2-elf/4.7.3/../../../../../H-i686-mingw32/nios2-elf/lib/mno-hw-mul\libc.a(lib_a-isattyr.o)
 .debug_info    0x0001c330      0x9cb c:/altera/13.1/nios2eds/bin/gnu/h-i686-mingw32/bin/../lib/gcc/nios2-elf/4.7.3/../../../../../H-i686-mingw32/nios2-elf/lib/mno-hw-mul\libc.a(lib_a-lseekr.o)
 .debug_info    0x0001ccfb      0x9cb c:/altera/13.1/nios2eds/bin/gnu/h-i686-mingw32/bin/../lib/gcc/nios2-elf/4.7.3/../../../../../H-i686-mingw32/nios2-elf/lib/mno-hw-mul\libc.a(lib_a-readr.o)
 .debug_info    0x0001d6c6       0xec G:/WorK/github/synesthesia_moksha/wxp/dgn/sw/limbus_bsp/\libchibios_v246_bsp.a(alt_exit.o)
 .debug_info    0x0001d7b2      0x4d8 G:/WorK/github/synesthesia_moksha/wxp/dgn/sw/limbus_bsp/\libchibios_v246_bsp.a(alt_fstat.o)
 .debug_info    0x0001dc8a      0x4db G:/WorK/github/synesthesia_moksha/wxp/dgn/sw/limbus_bsp/\libchibios_v246_bsp.a(alt_isatty.o)
 .debug_info    0x0001e165      0x381 G:/WorK/github/synesthesia_moksha/wxp/dgn/sw/limbus_bsp/\libchibios_v246_bsp.a(alt_lseek.o)
 .debug_info    0x0001e4e6      0x950 G:/WorK/github/synesthesia_moksha/wxp/dgn/sw/limbus_bsp/\libchibios_v246_bsp.a(alt_malloc_lock.o)
 .debug_info    0x0001ee36      0x500 G:/WorK/github/synesthesia_moksha/wxp/dgn/sw/limbus_bsp/\libchibios_v246_bsp.a(alt_read.o)
 .debug_info    0x0001f336      0x1b2 G:/WorK/github/synesthesia_moksha/wxp/dgn/sw/limbus_bsp/\libchibios_v246_bsp.a(alt_sbrk.o)
 .debug_info    0x0001f4e8      0x507 G:/WorK/github/synesthesia_moksha/wxp/dgn/sw/limbus_bsp/\libchibios_v246_bsp.a(alt_write.o)

.debug_abbrev   0x00000000     0x7fac
 *(.debug_abbrev)
 .debug_abbrev  0x00000000       0x12 G:/WorK/github/synesthesia_moksha/wxp/dgn/sw/limbus_bsp//obj/HAL/src/crt0.o
 .debug_abbrev  0x00000012      0x105 obj/default/hello_world_small.o
 .debug_abbrev  0x00000117      0x12f obj/default/ledos/aud_codec/aud_codec.o
 .debug_abbrev  0x00000246      0x1aa obj/default/ledos/cortex/acortex/i2c/i2c.o
 .debug_abbrev  0x000003f0       0x83 obj/default/ledos/cortex/acortex/pcm_bffr/pcm_bffr.o
 .debug_abbrev  0x00000473       0xa8 obj/default/ledos/cortex/acortex/ssm2603_drvr/ssm2603_drvr.o
 .debug_abbrev  0x0000051b       0x6f c:/altera/13.1/nios2eds/bin/gnu/h-i686-mingw32/bin/../lib/gcc/nios2-elf/4.7.3/mno-hw-mul\libgcc.a(lib2-mul.o)
 .debug_abbrev  0x0000058a      0x291 G:/WorK/github/synesthesia_moksha/wxp/dgn/sw/limbus_bsp/\libchibios_v246_bsp.a(chthreads.o)
 .debug_abbrev  0x0000081b      0x124 G:/WorK/github/synesthesia_moksha/wxp/dgn/sw/limbus_bsp/\libchibios_v246_bsp.a(chvt.o)
 .debug_abbrev  0x0000093f       0x14 G:/WorK/github/synesthesia_moksha/wxp/dgn/sw/limbus_bsp/\libchibios_v246_bsp.a(chcoreasm.o)
 .debug_abbrev  0x00000953       0x9d G:/WorK/github/synesthesia_moksha/wxp/dgn/sw/limbus_bsp/\libchibios_v246_bsp.a(alt_load.o)
 .debug_abbrev  0x000009f0       0xfb G:/WorK/github/synesthesia_moksha/wxp/dgn/sw/limbus_bsp/\libchibios_v246_bsp.a(alt_main.o)
 .debug_abbrev  0x00000aeb       0xb0 G:/WorK/github/synesthesia_moksha/wxp/dgn/sw/limbus_bsp/\libchibios_v246_bsp.a(alt_printf.o)
 .debug_abbrev  0x00000b9b      0x182 G:/WorK/github/synesthesia_moksha/wxp/dgn/sw/limbus_bsp/\libchibios_v246_bsp.a(alt_putchar.o)
 .debug_abbrev  0x00000d1d      0x182 G:/WorK/github/synesthesia_moksha/wxp/dgn/sw/limbus_bsp/\libchibios_v246_bsp.a(alt_putstr.o)
 .debug_abbrev  0x00000e9f      0x17f G:/WorK/github/synesthesia_moksha/wxp/dgn/sw/limbus_bsp/\libchibios_v246_bsp.a(alt_sys_init.o)
 .debug_abbrev  0x0000101e      0x118 G:/WorK/github/synesthesia_moksha/wxp/dgn/sw/limbus_bsp/\libchibios_v246_bsp.a(altera_avalon_jtag_uart_fd.o)
 .debug_abbrev  0x00001136      0x18f G:/WorK/github/synesthesia_moksha/wxp/dgn/sw/limbus_bsp/\libchibios_v246_bsp.a(altera_avalon_jtag_uart_init.o)
 .debug_abbrev  0x000012c5      0x102 G:/WorK/github/synesthesia_moksha/wxp/dgn/sw/limbus_bsp/\libchibios_v246_bsp.a(altera_avalon_jtag_uart_ioctl.o)
 .debug_abbrev  0x000013c7      0x19b G:/WorK/github/synesthesia_moksha/wxp/dgn/sw/limbus_bsp/\libchibios_v246_bsp.a(altera_avalon_jtag_uart_read.o)
 .debug_abbrev  0x00001562      0x199 G:/WorK/github/synesthesia_moksha/wxp/dgn/sw/limbus_bsp/\libchibios_v246_bsp.a(altera_avalon_jtag_uart_write.o)
 .debug_abbrev  0x000016fb      0x155 G:/WorK/github/synesthesia_moksha/wxp/dgn/sw/limbus_bsp/\libchibios_v246_bsp.a(altera_avalon_timer_sc.o)
 .debug_abbrev  0x00001850      0x109 G:/WorK/github/synesthesia_moksha/wxp/dgn/sw/limbus_bsp/\libchibios_v246_bsp.a(altera_avalon_uart_fd.o)
 .debug_abbrev  0x00001959      0x178 G:/WorK/github/synesthesia_moksha/wxp/dgn/sw/limbus_bsp/\libchibios_v246_bsp.a(altera_avalon_uart_init.o)
 .debug_abbrev  0x00001ad1      0x183 G:/WorK/github/synesthesia_moksha/wxp/dgn/sw/limbus_bsp/\libchibios_v246_bsp.a(altera_avalon_uart_read.o)
 .debug_abbrev  0x00001c54      0x18a G:/WorK/github/synesthesia_moksha/wxp/dgn/sw/limbus_bsp/\libchibios_v246_bsp.a(altera_avalon_uart_write.o)
 .debug_abbrev  0x00001dde      0x1de G:/WorK/github/synesthesia_moksha/wxp/dgn/sw/limbus_bsp/\libchibios_v246_bsp.a(chdynamic.o)
 .debug_abbrev  0x00001fbc      0x161 G:/WorK/github/synesthesia_moksha/wxp/dgn/sw/limbus_bsp/\libchibios_v246_bsp.a(chheap.o)
 .debug_abbrev  0x0000211d      0x178 G:/WorK/github/synesthesia_moksha/wxp/dgn/sw/limbus_bsp/\libchibios_v246_bsp.a(chmemcore.o)
 .debug_abbrev  0x00002295      0x187 G:/WorK/github/synesthesia_moksha/wxp/dgn/sw/limbus_bsp/\libchibios_v246_bsp.a(chmempools.o)
 .debug_abbrev  0x0000241c      0x26e G:/WorK/github/synesthesia_moksha/wxp/dgn/sw/limbus_bsp/\libchibios_v246_bsp.a(chmtx.o)
 .debug_abbrev  0x0000268a      0x1f9 G:/WorK/github/synesthesia_moksha/wxp/dgn/sw/limbus_bsp/\libchibios_v246_bsp.a(chschd.o)
 .debug_abbrev  0x00002883      0x198 G:/WorK/github/synesthesia_moksha/wxp/dgn/sw/limbus_bsp/\libchibios_v246_bsp.a(chsys.o)
 .debug_abbrev  0x00002a1b      0x162 G:/WorK/github/synesthesia_moksha/wxp/dgn/sw/limbus_bsp/\libchibios_v246_bsp.a(alt_alarm_start.o)
 .debug_abbrev  0x00002b7d      0x11f G:/WorK/github/synesthesia_moksha/wxp/dgn/sw/limbus_bsp/\libchibios_v246_bsp.a(alt_close.o)
 .debug_abbrev  0x00002c9c       0x42 G:/WorK/github/synesthesia_moksha/wxp/dgn/sw/limbus_bsp/\libchibios_v246_bsp.a(alt_dcache_flush_all.o)
 .debug_abbrev  0x00002cde       0xd9 G:/WorK/github/synesthesia_moksha/wxp/dgn/sw/limbus_bsp/\libchibios_v246_bsp.a(alt_dev.o)
 .debug_abbrev  0x00002db7      0x114 G:/WorK/github/synesthesia_moksha/wxp/dgn/sw/limbus_bsp/\libchibios_v246_bsp.a(alt_dev_llist_insert.o)
 .debug_abbrev  0x00002ecb       0x79 G:/WorK/github/synesthesia_moksha/wxp/dgn/sw/limbus_bsp/\libchibios_v246_bsp.a(alt_do_ctors.o)
 .debug_abbrev  0x00002f44       0x79 G:/WorK/github/synesthesia_moksha/wxp/dgn/sw/limbus_bsp/\libchibios_v246_bsp.a(alt_do_dtors.o)
 .debug_abbrev  0x00002fbd       0x5a G:/WorK/github/synesthesia_moksha/wxp/dgn/sw/limbus_bsp/\libchibios_v246_bsp.a(alt_errno.o)
 .debug_abbrev  0x00003017       0x42 G:/WorK/github/synesthesia_moksha/wxp/dgn/sw/limbus_bsp/\libchibios_v246_bsp.a(alt_icache_flush_all.o)
 .debug_abbrev  0x00003059      0x16a G:/WorK/github/synesthesia_moksha/wxp/dgn/sw/limbus_bsp/\libchibios_v246_bsp.a(alt_iic.o)
 .debug_abbrev  0x000031c3      0x169 G:/WorK/github/synesthesia_moksha/wxp/dgn/sw/limbus_bsp/\libchibios_v246_bsp.a(alt_iic_isr_register.o)
 .debug_abbrev  0x0000332c      0x114 G:/WorK/github/synesthesia_moksha/wxp/dgn/sw/limbus_bsp/\libchibios_v246_bsp.a(alt_io_redirect.o)
 .debug_abbrev  0x00003440       0x12 G:/WorK/github/synesthesia_moksha/wxp/dgn/sw/limbus_bsp/\libchibios_v246_bsp.a(alt_irq_entry.o)
 .debug_abbrev  0x00003452      0x124 G:/WorK/github/synesthesia_moksha/wxp/dgn/sw/limbus_bsp/\libchibios_v246_bsp.a(alt_irq_handler.o)
 .debug_abbrev  0x00003576       0x40 G:/WorK/github/synesthesia_moksha/wxp/dgn/sw/limbus_bsp/\libchibios_v246_bsp.a(alt_irq_vars.o)
 .debug_abbrev  0x000035b6      0x148 G:/WorK/github/synesthesia_moksha/wxp/dgn/sw/limbus_bsp/\libchibios_v246_bsp.a(alt_open.o)
 .debug_abbrev  0x000036fe       0xde G:/WorK/github/synesthesia_moksha/wxp/dgn/sw/limbus_bsp/\libchibios_v246_bsp.a(alt_release_fd.o)
 .debug_abbrev  0x000037dc      0x15a G:/WorK/github/synesthesia_moksha/wxp/dgn/sw/limbus_bsp/\libchibios_v246_bsp.a(alt_tick.o)
 .debug_abbrev  0x00003936       0x42 G:/WorK/github/synesthesia_moksha/wxp/dgn/sw/limbus_bsp/\libchibios_v246_bsp.a(altera_nios2_qsys_irq.o)
 .debug_abbrev  0x00003978      0x1ac G:/WorK/github/synesthesia_moksha/wxp/dgn/sw/limbus_bsp/\libchibios_v246_bsp.a(chregistry.o)
 .debug_abbrev  0x00003b24       0xaa G:/WorK/github/synesthesia_moksha/wxp/dgn/sw/limbus_bsp/\libchibios_v246_bsp.a(chcore.o)
 .debug_abbrev  0x00003bce       0x12 G:/WorK/github/synesthesia_moksha/wxp/dgn/sw/limbus_bsp/\libchibios_v246_bsp.a(alt_exception_entry.o)
 .debug_abbrev  0x00003be0       0xf0 G:/WorK/github/synesthesia_moksha/wxp/dgn/sw/limbus_bsp/\libchibios_v246_bsp.a(alt_find_dev.o)
 .debug_abbrev  0x00003cd0       0xf0 G:/WorK/github/synesthesia_moksha/wxp/dgn/sw/limbus_bsp/\libchibios_v246_bsp.a(alt_find_file.o)
 .debug_abbrev  0x00003dc0      0x10d G:/WorK/github/synesthesia_moksha/wxp/dgn/sw/limbus_bsp/\libchibios_v246_bsp.a(alt_get_fd.o)
 .debug_abbrev  0x00003ecd      0x106 c:/altera/13.1/nios2eds/bin/gnu/h-i686-mingw32/bin/../lib/gcc/nios2-elf/4.7.3/../../../../../H-i686-mingw32/nios2-elf/lib/mno-hw-mul\libc.a(lib_a-atexit.o)
 .debug_abbrev  0x00003fd3      0x1c8 c:/altera/13.1/nios2eds/bin/gnu/h-i686-mingw32/bin/../lib/gcc/nios2-elf/4.7.3/../../../../../H-i686-mingw32/nios2-elf/lib/mno-hw-mul\libc.a(lib_a-exit.o)
 .debug_abbrev  0x0000419b      0x21b c:/altera/13.1/nios2eds/bin/gnu/h-i686-mingw32/bin/../lib/gcc/nios2-elf/4.7.3/../../../../../H-i686-mingw32/nios2-elf/lib/mno-hw-mul\libc.a(lib_a-fputs.o)
 .debug_abbrev  0x000043b6      0x234 c:/altera/13.1/nios2eds/bin/gnu/h-i686-mingw32/bin/../lib/gcc/nios2-elf/4.7.3/../../../../../H-i686-mingw32/nios2-elf/lib/mno-hw-mul\libc.a(lib_a-fvwrite.o)
 .debug_abbrev  0x000045ea      0x162 c:/altera/13.1/nios2eds/bin/gnu/h-i686-mingw32/bin/../lib/gcc/nios2-elf/4.7.3/../../../../../H-i686-mingw32/nios2-elf/lib/mno-hw-mul\libc.a(lib_a-impure.o)
 .debug_abbrev  0x0000474c       0x37 c:/altera/13.1/nios2eds/bin/gnu/h-i686-mingw32/bin/../lib/gcc/nios2-elf/4.7.3/../../../../../H-i686-mingw32/nios2-elf/lib/mno-hw-mul\libc.a(lib_a-int_errno.o)
 .debug_abbrev  0x00004783      0x284 c:/altera/13.1/nios2eds/bin/gnu/h-i686-mingw32/bin/../lib/gcc/nios2-elf/4.7.3/../../../../../H-i686-mingw32/nios2-elf/lib/mno-hw-mul\libc.a(lib_a-mallocr.o)
 .debug_abbrev  0x00004a07       0xab c:/altera/13.1/nios2eds/bin/gnu/h-i686-mingw32/bin/../lib/gcc/nios2-elf/4.7.3/../../../../../H-i686-mingw32/nios2-elf/lib/mno-hw-mul\libc.a(lib_a-memchr.o)
 .debug_abbrev  0x00004ab2       0x7f c:/altera/13.1/nios2eds/bin/gnu/h-i686-mingw32/bin/../lib/gcc/nios2-elf/4.7.3/../../../../../H-i686-mingw32/nios2-elf/lib/mno-hw-mul\libc.a(lib_a-memcmp.o)
 .debug_abbrev  0x00004b31       0x9c c:/altera/13.1/nios2eds/bin/gnu/h-i686-mingw32/bin/../lib/gcc/nios2-elf/4.7.3/../../../../../H-i686-mingw32/nios2-elf/lib/mno-hw-mul\libc.a(lib_a-memcpy.o)
 .debug_abbrev  0x00004bcd       0x9c c:/altera/13.1/nios2eds/bin/gnu/h-i686-mingw32/bin/../lib/gcc/nios2-elf/4.7.3/../../../../../H-i686-mingw32/nios2-elf/lib/mno-hw-mul\libc.a(lib_a-memmove.o)
 .debug_abbrev  0x00004c69      0x1f8 c:/altera/13.1/nios2eds/bin/gnu/h-i686-mingw32/bin/../lib/gcc/nios2-elf/4.7.3/../../../../../H-i686-mingw32/nios2-elf/lib/mno-hw-mul\libc.a(lib_a-putc.o)
 .debug_abbrev  0x00004e61      0x242 c:/altera/13.1/nios2eds/bin/gnu/h-i686-mingw32/bin/../lib/gcc/nios2-elf/4.7.3/../../../../../H-i686-mingw32/nios2-elf/lib/mno-hw-mul\libc.a(lib_a-reallocr.o)
 .debug_abbrev  0x000050a3      0x1df c:/altera/13.1/nios2eds/bin/gnu/h-i686-mingw32/bin/../lib/gcc/nios2-elf/4.7.3/../../../../../H-i686-mingw32/nios2-elf/lib/mno-hw-mul\libc.a(lib_a-sbrkr.o)
 .debug_abbrev  0x00005282       0x90 c:/altera/13.1/nios2eds/bin/gnu/h-i686-mingw32/bin/../lib/gcc/nios2-elf/4.7.3/../../../../../H-i686-mingw32/nios2-elf/lib/mno-hw-mul\libc.a(lib_a-strlen.o)
 .debug_abbrev  0x00005312      0x21a c:/altera/13.1/nios2eds/bin/gnu/h-i686-mingw32/bin/../lib/gcc/nios2-elf/4.7.3/../../../../../H-i686-mingw32/nios2-elf/lib/mno-hw-mul\libc.a(lib_a-wbuf.o)
 .debug_abbrev  0x0000552c      0x1d5 c:/altera/13.1/nios2eds/bin/gnu/h-i686-mingw32/bin/../lib/gcc/nios2-elf/4.7.3/../../../../../H-i686-mingw32/nios2-elf/lib/mno-hw-mul\libc.a(lib_a-wsetup.o)
 .debug_abbrev  0x00005701      0x211 c:/altera/13.1/nios2eds/bin/gnu/h-i686-mingw32/bin/../lib/gcc/nios2-elf/4.7.3/../../../../../H-i686-mingw32/nios2-elf/lib/mno-hw-mul\libc.a(lib_a-__atexit.o)
 .debug_abbrev  0x00005912      0x203 c:/altera/13.1/nios2eds/bin/gnu/h-i686-mingw32/bin/../lib/gcc/nios2-elf/4.7.3/../../../../../H-i686-mingw32/nios2-elf/lib/mno-hw-mul\libc.a(lib_a-__call_atexit.o)
 .debug_abbrev  0x00005b15      0x259 c:/altera/13.1/nios2eds/bin/gnu/h-i686-mingw32/bin/../lib/gcc/nios2-elf/4.7.3/../../../../../H-i686-mingw32/nios2-elf/lib/mno-hw-mul\libc.a(lib_a-fflush.o)
 .debug_abbrev  0x00005d6e      0x333 c:/altera/13.1/nios2eds/bin/gnu/h-i686-mingw32/bin/../lib/gcc/nios2-elf/4.7.3/../../../../../H-i686-mingw32/nios2-elf/lib/mno-hw-mul\libc.a(lib_a-findfp.o)
 .debug_abbrev  0x000060a1      0x25d c:/altera/13.1/nios2eds/bin/gnu/h-i686-mingw32/bin/../lib/gcc/nios2-elf/4.7.3/../../../../../H-i686-mingw32/nios2-elf/lib/mno-hw-mul\libc.a(lib_a-freer.o)
 .debug_abbrev  0x000062fe      0x224 c:/altera/13.1/nios2eds/bin/gnu/h-i686-mingw32/bin/../lib/gcc/nios2-elf/4.7.3/../../../../../H-i686-mingw32/nios2-elf/lib/mno-hw-mul\libc.a(lib_a-fwalk.o)
 .debug_abbrev  0x00006522      0x1e8 c:/altera/13.1/nios2eds/bin/gnu/h-i686-mingw32/bin/../lib/gcc/nios2-elf/4.7.3/../../../../../H-i686-mingw32/nios2-elf/lib/mno-hw-mul\libc.a(lib_a-makebuf.o)
 .debug_abbrev  0x0000670a       0xac c:/altera/13.1/nios2eds/bin/gnu/h-i686-mingw32/bin/../lib/gcc/nios2-elf/4.7.3/../../../../../H-i686-mingw32/nios2-elf/lib/mno-hw-mul\libc.a(lib_a-memset.o)
 .debug_abbrev  0x000067b6      0x226 c:/altera/13.1/nios2eds/bin/gnu/h-i686-mingw32/bin/../lib/gcc/nios2-elf/4.7.3/../../../../../H-i686-mingw32/nios2-elf/lib/mno-hw-mul\libc.a(lib_a-stdio.o)
 .debug_abbrev  0x000069dc      0x1c0 c:/altera/13.1/nios2eds/bin/gnu/h-i686-mingw32/bin/../lib/gcc/nios2-elf/4.7.3/../../../../../H-i686-mingw32/nios2-elf/lib/mno-hw-mul\libc.a(lib_a-writer.o)
 .debug_abbrev  0x00006b9c      0x1bb c:/altera/13.1/nios2eds/bin/gnu/h-i686-mingw32/bin/../lib/gcc/nios2-elf/4.7.3/../../../../../H-i686-mingw32/nios2-elf/lib/mno-hw-mul\libc.a(lib_a-closer.o)
 .debug_abbrev  0x00006d57      0x24e c:/altera/13.1/nios2eds/bin/gnu/h-i686-mingw32/bin/../lib/gcc/nios2-elf/4.7.3/../../../../../H-i686-mingw32/nios2-elf/lib/mno-hw-mul\libc.a(lib_a-fclose.o)
 .debug_abbrev  0x00006fa5      0x1ca c:/altera/13.1/nios2eds/bin/gnu/h-i686-mingw32/bin/../lib/gcc/nios2-elf/4.7.3/../../../../../H-i686-mingw32/nios2-elf/lib/mno-hw-mul\libc.a(lib_a-fstatr.o)
 .debug_abbrev  0x0000716f      0x1bb c:/altera/13.1/nios2eds/bin/gnu/h-i686-mingw32/bin/../lib/gcc/nios2-elf/4.7.3/../../../../../H-i686-mingw32/nios2-elf/lib/mno-hw-mul\libc.a(lib_a-isattyr.o)
 .debug_abbrev  0x0000732a      0x1ca c:/altera/13.1/nios2eds/bin/gnu/h-i686-mingw32/bin/../lib/gcc/nios2-elf/4.7.3/../../../../../H-i686-mingw32/nios2-elf/lib/mno-hw-mul\libc.a(lib_a-lseekr.o)
 .debug_abbrev  0x000074f4      0x1bb c:/altera/13.1/nios2eds/bin/gnu/h-i686-mingw32/bin/../lib/gcc/nios2-elf/4.7.3/../../../../../H-i686-mingw32/nios2-elf/lib/mno-hw-mul\libc.a(lib_a-readr.o)
 .debug_abbrev  0x000076af       0xa6 G:/WorK/github/synesthesia_moksha/wxp/dgn/sw/limbus_bsp/\libchibios_v246_bsp.a(alt_exit.o)
 .debug_abbrev  0x00007755      0x11f G:/WorK/github/synesthesia_moksha/wxp/dgn/sw/limbus_bsp/\libchibios_v246_bsp.a(alt_fstat.o)
 .debug_abbrev  0x00007874      0x11f G:/WorK/github/synesthesia_moksha/wxp/dgn/sw/limbus_bsp/\libchibios_v246_bsp.a(alt_isatty.o)
 .debug_abbrev  0x00007993      0x11f G:/WorK/github/synesthesia_moksha/wxp/dgn/sw/limbus_bsp/\libchibios_v246_bsp.a(alt_lseek.o)
 .debug_abbrev  0x00007ab2      0x187 G:/WorK/github/synesthesia_moksha/wxp/dgn/sw/limbus_bsp/\libchibios_v246_bsp.a(alt_malloc_lock.o)
 .debug_abbrev  0x00007c39      0x12e G:/WorK/github/synesthesia_moksha/wxp/dgn/sw/limbus_bsp/\libchibios_v246_bsp.a(alt_read.o)
 .debug_abbrev  0x00007d67      0x112 G:/WorK/github/synesthesia_moksha/wxp/dgn/sw/limbus_bsp/\libchibios_v246_bsp.a(alt_sbrk.o)
 .debug_abbrev  0x00007e79      0x133 G:/WorK/github/synesthesia_moksha/wxp/dgn/sw/limbus_bsp/\libchibios_v246_bsp.a(alt_write.o)

.debug_line     0x00000000     0x96d6
 *(.debug_line)
 .debug_line    0x00000000       0x66 G:/WorK/github/synesthesia_moksha/wxp/dgn/sw/limbus_bsp//obj/HAL/src/crt0.o
 .debug_line    0x00000066      0x10e obj/default/hello_world_small.o
 .debug_line    0x00000174       0xef obj/default/ledos/aud_codec/aud_codec.o
 .debug_line    0x00000263      0x2b9 obj/default/ledos/cortex/acortex/i2c/i2c.o
 .debug_line    0x0000051c       0xdb obj/default/ledos/cortex/acortex/pcm_bffr/pcm_bffr.o
 .debug_line    0x000005f7       0xd5 obj/default/ledos/cortex/acortex/ssm2603_drvr/ssm2603_drvr.o
 .debug_line    0x000006cc       0x80 c:/altera/13.1/nios2eds/bin/gnu/h-i686-mingw32/bin/../lib/gcc/nios2-elf/4.7.3/mno-hw-mul\libgcc.a(lib2-mul.o)
 .debug_line    0x0000074c      0x360 G:/WorK/github/synesthesia_moksha/wxp/dgn/sw/limbus_bsp/\libchibios_v246_bsp.a(chthreads.o)
 .debug_line    0x00000aac      0x17f G:/WorK/github/synesthesia_moksha/wxp/dgn/sw/limbus_bsp/\libchibios_v246_bsp.a(chvt.o)
 .debug_line    0x00000c2b       0x7d G:/WorK/github/synesthesia_moksha/wxp/dgn/sw/limbus_bsp/\libchibios_v246_bsp.a(chcoreasm.o)
 .debug_line    0x00000ca8       0x92 G:/WorK/github/synesthesia_moksha/wxp/dgn/sw/limbus_bsp/\libchibios_v246_bsp.a(alt_load.o)
 .debug_line    0x00000d3a       0xbb G:/WorK/github/synesthesia_moksha/wxp/dgn/sw/limbus_bsp/\libchibios_v246_bsp.a(alt_main.o)
 .debug_line    0x00000df5       0xf4 G:/WorK/github/synesthesia_moksha/wxp/dgn/sw/limbus_bsp/\libchibios_v246_bsp.a(alt_printf.o)
 .debug_line    0x00000ee9      0x13e G:/WorK/github/synesthesia_moksha/wxp/dgn/sw/limbus_bsp/\libchibios_v246_bsp.a(alt_putchar.o)
 .debug_line    0x00001027      0x13b G:/WorK/github/synesthesia_moksha/wxp/dgn/sw/limbus_bsp/\libchibios_v246_bsp.a(alt_putstr.o)
 .debug_line    0x00001162      0x187 G:/WorK/github/synesthesia_moksha/wxp/dgn/sw/limbus_bsp/\libchibios_v246_bsp.a(alt_sys_init.o)
 .debug_line    0x000012e9      0x131 G:/WorK/github/synesthesia_moksha/wxp/dgn/sw/limbus_bsp/\libchibios_v246_bsp.a(altera_avalon_jtag_uart_fd.o)
 .debug_line    0x0000141a      0x199 G:/WorK/github/synesthesia_moksha/wxp/dgn/sw/limbus_bsp/\libchibios_v246_bsp.a(altera_avalon_jtag_uart_init.o)
 .debug_line    0x000015b3      0x129 G:/WorK/github/synesthesia_moksha/wxp/dgn/sw/limbus_bsp/\libchibios_v246_bsp.a(altera_avalon_jtag_uart_ioctl.o)
 .debug_line    0x000016dc      0x174 G:/WorK/github/synesthesia_moksha/wxp/dgn/sw/limbus_bsp/\libchibios_v246_bsp.a(altera_avalon_jtag_uart_read.o)
 .debug_line    0x00001850      0x173 G:/WorK/github/synesthesia_moksha/wxp/dgn/sw/limbus_bsp/\libchibios_v246_bsp.a(altera_avalon_jtag_uart_write.o)
 .debug_line    0x000019c3       0xfd G:/WorK/github/synesthesia_moksha/wxp/dgn/sw/limbus_bsp/\libchibios_v246_bsp.a(altera_avalon_timer_sc.o)
 .debug_line    0x00001ac0       0xf0 G:/WorK/github/synesthesia_moksha/wxp/dgn/sw/limbus_bsp/\libchibios_v246_bsp.a(altera_avalon_uart_fd.o)
 .debug_line    0x00001bb0      0x182 G:/WorK/github/synesthesia_moksha/wxp/dgn/sw/limbus_bsp/\libchibios_v246_bsp.a(altera_avalon_uart_init.o)
 .debug_line    0x00001d32      0x188 G:/WorK/github/synesthesia_moksha/wxp/dgn/sw/limbus_bsp/\libchibios_v246_bsp.a(altera_avalon_uart_read.o)
 .debug_line    0x00001eba      0x166 G:/WorK/github/synesthesia_moksha/wxp/dgn/sw/limbus_bsp/\libchibios_v246_bsp.a(altera_avalon_uart_write.o)
 .debug_line    0x00002020      0x283 G:/WorK/github/synesthesia_moksha/wxp/dgn/sw/limbus_bsp/\libchibios_v246_bsp.a(chdynamic.o)
 .debug_line    0x000022a3      0x25e G:/WorK/github/synesthesia_moksha/wxp/dgn/sw/limbus_bsp/\libchibios_v246_bsp.a(chheap.o)
 .debug_line    0x00002501      0x17b G:/WorK/github/synesthesia_moksha/wxp/dgn/sw/limbus_bsp/\libchibios_v246_bsp.a(chmemcore.o)
 .debug_line    0x0000267c      0x169 G:/WorK/github/synesthesia_moksha/wxp/dgn/sw/limbus_bsp/\libchibios_v246_bsp.a(chmempools.o)
 .debug_line    0x000027e5      0x2a3 G:/WorK/github/synesthesia_moksha/wxp/dgn/sw/limbus_bsp/\libchibios_v246_bsp.a(chmtx.o)
 .debug_line    0x00002a88      0x21d G:/WorK/github/synesthesia_moksha/wxp/dgn/sw/limbus_bsp/\libchibios_v246_bsp.a(chschd.o)
 .debug_line    0x00002ca5      0x1cd G:/WorK/github/synesthesia_moksha/wxp/dgn/sw/limbus_bsp/\libchibios_v246_bsp.a(chsys.o)
 .debug_line    0x00002e72       0xfa G:/WorK/github/synesthesia_moksha/wxp/dgn/sw/limbus_bsp/\libchibios_v246_bsp.a(alt_alarm_start.o)
 .debug_line    0x00002f6c      0x186 G:/WorK/github/synesthesia_moksha/wxp/dgn/sw/limbus_bsp/\libchibios_v246_bsp.a(alt_close.o)
 .debug_line    0x000030f2       0x51 G:/WorK/github/synesthesia_moksha/wxp/dgn/sw/limbus_bsp/\libchibios_v246_bsp.a(alt_dcache_flush_all.o)
 .debug_line    0x00003143      0x119 G:/WorK/github/synesthesia_moksha/wxp/dgn/sw/limbus_bsp/\libchibios_v246_bsp.a(alt_dev.o)
 .debug_line    0x0000325c       0xd0 G:/WorK/github/synesthesia_moksha/wxp/dgn/sw/limbus_bsp/\libchibios_v246_bsp.a(alt_dev_llist_insert.o)
 .debug_line    0x0000332c       0x59 G:/WorK/github/synesthesia_moksha/wxp/dgn/sw/limbus_bsp/\libchibios_v246_bsp.a(alt_do_ctors.o)
 .debug_line    0x00003385       0x59 G:/WorK/github/synesthesia_moksha/wxp/dgn/sw/limbus_bsp/\libchibios_v246_bsp.a(alt_do_dtors.o)
 .debug_line    0x000033de       0x51 G:/WorK/github/synesthesia_moksha/wxp/dgn/sw/limbus_bsp/\libchibios_v246_bsp.a(alt_errno.o)
 .debug_line    0x0000342f       0x4f G:/WorK/github/synesthesia_moksha/wxp/dgn/sw/limbus_bsp/\libchibios_v246_bsp.a(alt_icache_flush_all.o)
 .debug_line    0x0000347e       0xed G:/WorK/github/synesthesia_moksha/wxp/dgn/sw/limbus_bsp/\libchibios_v246_bsp.a(alt_iic.o)
 .debug_line    0x0000356b       0xdb G:/WorK/github/synesthesia_moksha/wxp/dgn/sw/limbus_bsp/\libchibios_v246_bsp.a(alt_iic_isr_register.o)
 .debug_line    0x00003646      0x156 G:/WorK/github/synesthesia_moksha/wxp/dgn/sw/limbus_bsp/\libchibios_v246_bsp.a(alt_io_redirect.o)
 .debug_line    0x0000379c       0x6b G:/WorK/github/synesthesia_moksha/wxp/dgn/sw/limbus_bsp/\libchibios_v246_bsp.a(alt_irq_entry.o)
 .debug_line    0x00003807       0xb5 G:/WorK/github/synesthesia_moksha/wxp/dgn/sw/limbus_bsp/\libchibios_v246_bsp.a(alt_irq_handler.o)
 .debug_line    0x000038bc       0x50 G:/WorK/github/synesthesia_moksha/wxp/dgn/sw/limbus_bsp/\libchibios_v246_bsp.a(alt_irq_vars.o)
 .debug_line    0x0000390c      0x128 G:/WorK/github/synesthesia_moksha/wxp/dgn/sw/limbus_bsp/\libchibios_v246_bsp.a(alt_open.o)
 .debug_line    0x00003a34       0xb0 G:/WorK/github/synesthesia_moksha/wxp/dgn/sw/limbus_bsp/\libchibios_v246_bsp.a(alt_release_fd.o)
 .debug_line    0x00003ae4      0x102 G:/WorK/github/synesthesia_moksha/wxp/dgn/sw/limbus_bsp/\libchibios_v246_bsp.a(alt_tick.o)
 .debug_line    0x00003be6       0x51 G:/WorK/github/synesthesia_moksha/wxp/dgn/sw/limbus_bsp/\libchibios_v246_bsp.a(altera_nios2_qsys_irq.o)
 .debug_line    0x00003c37      0x215 G:/WorK/github/synesthesia_moksha/wxp/dgn/sw/limbus_bsp/\libchibios_v246_bsp.a(chregistry.o)
 .debug_line    0x00003e4c       0x85 G:/WorK/github/synesthesia_moksha/wxp/dgn/sw/limbus_bsp/\libchibios_v246_bsp.a(chcore.o)
 .debug_line    0x00003ed1       0xab G:/WorK/github/synesthesia_moksha/wxp/dgn/sw/limbus_bsp/\libchibios_v246_bsp.a(alt_exception_entry.o)
 .debug_line    0x00003f7c       0xb9 G:/WorK/github/synesthesia_moksha/wxp/dgn/sw/limbus_bsp/\libchibios_v246_bsp.a(alt_find_dev.o)
 .debug_line    0x00004035       0xd5 G:/WorK/github/synesthesia_moksha/wxp/dgn/sw/limbus_bsp/\libchibios_v246_bsp.a(alt_find_file.o)
 .debug_line    0x0000410a       0xd4 G:/WorK/github/synesthesia_moksha/wxp/dgn/sw/limbus_bsp/\libchibios_v246_bsp.a(alt_get_fd.o)
 .debug_line    0x000041de      0x170 c:/altera/13.1/nios2eds/bin/gnu/h-i686-mingw32/bin/../lib/gcc/nios2-elf/4.7.3/../../../../../H-i686-mingw32/nios2-elf/lib/mno-hw-mul\libc.a(lib_a-atexit.o)
 .debug_line    0x0000434e      0x21c c:/altera/13.1/nios2eds/bin/gnu/h-i686-mingw32/bin/../lib/gcc/nios2-elf/4.7.3/../../../../../H-i686-mingw32/nios2-elf/lib/mno-hw-mul\libc.a(lib_a-exit.o)
 .debug_line    0x0000456a      0x23f c:/altera/13.1/nios2eds/bin/gnu/h-i686-mingw32/bin/../lib/gcc/nios2-elf/4.7.3/../../../../../H-i686-mingw32/nios2-elf/lib/mno-hw-mul\libc.a(lib_a-fputs.o)
 .debug_line    0x000047a9      0x363 c:/altera/13.1/nios2eds/bin/gnu/h-i686-mingw32/bin/../lib/gcc/nios2-elf/4.7.3/../../../../../H-i686-mingw32/nios2-elf/lib/mno-hw-mul\libc.a(lib_a-fvwrite.o)
 .debug_line    0x00004b0c      0x176 c:/altera/13.1/nios2eds/bin/gnu/h-i686-mingw32/bin/../lib/gcc/nios2-elf/4.7.3/../../../../../H-i686-mingw32/nios2-elf/lib/mno-hw-mul\libc.a(lib_a-impure.o)
 .debug_line    0x00004c82       0x60 c:/altera/13.1/nios2eds/bin/gnu/h-i686-mingw32/bin/../lib/gcc/nios2-elf/4.7.3/../../../../../H-i686-mingw32/nios2-elf/lib/mno-hw-mul\libc.a(lib_a-int_errno.o)
 .debug_line    0x00004ce2      0x424 c:/altera/13.1/nios2eds/bin/gnu/h-i686-mingw32/bin/../lib/gcc/nios2-elf/4.7.3/../../../../../H-i686-mingw32/nios2-elf/lib/mno-hw-mul\libc.a(lib_a-mallocr.o)
 .debug_line    0x00005106      0x1f4 c:/altera/13.1/nios2eds/bin/gnu/h-i686-mingw32/bin/../lib/gcc/nios2-elf/4.7.3/../../../../../H-i686-mingw32/nios2-elf/lib/mno-hw-mul\libc.a(lib_a-memchr.o)
 .debug_line    0x000052fa      0x190 c:/altera/13.1/nios2eds/bin/gnu/h-i686-mingw32/bin/../lib/gcc/nios2-elf/4.7.3/../../../../../H-i686-mingw32/nios2-elf/lib/mno-hw-mul\libc.a(lib_a-memcmp.o)
 .debug_line    0x0000548a      0x144 c:/altera/13.1/nios2eds/bin/gnu/h-i686-mingw32/bin/../lib/gcc/nios2-elf/4.7.3/../../../../../H-i686-mingw32/nios2-elf/lib/mno-hw-mul\libc.a(lib_a-memcpy.o)
 .debug_line    0x000055ce      0x1f9 c:/altera/13.1/nios2eds/bin/gnu/h-i686-mingw32/bin/../lib/gcc/nios2-elf/4.7.3/../../../../../H-i686-mingw32/nios2-elf/lib/mno-hw-mul\libc.a(lib_a-memmove.o)
 .debug_line    0x000057c7      0x29f c:/altera/13.1/nios2eds/bin/gnu/h-i686-mingw32/bin/../lib/gcc/nios2-elf/4.7.3/../../../../../H-i686-mingw32/nios2-elf/lib/mno-hw-mul\libc.a(lib_a-putc.o)
 .debug_line    0x00005a66      0x333 c:/altera/13.1/nios2eds/bin/gnu/h-i686-mingw32/bin/../lib/gcc/nios2-elf/4.7.3/../../../../../H-i686-mingw32/nios2-elf/lib/mno-hw-mul\libc.a(lib_a-reallocr.o)
 .debug_line    0x00005d99      0x215 c:/altera/13.1/nios2eds/bin/gnu/h-i686-mingw32/bin/../lib/gcc/nios2-elf/4.7.3/../../../../../H-i686-mingw32/nios2-elf/lib/mno-hw-mul\libc.a(lib_a-sbrkr.o)
 .debug_line    0x00005fae      0x185 c:/altera/13.1/nios2eds/bin/gnu/h-i686-mingw32/bin/../lib/gcc/nios2-elf/4.7.3/../../../../../H-i686-mingw32/nios2-elf/lib/mno-hw-mul\libc.a(lib_a-strlen.o)
 .debug_line    0x00006133      0x275 c:/altera/13.1/nios2eds/bin/gnu/h-i686-mingw32/bin/../lib/gcc/nios2-elf/4.7.3/../../../../../H-i686-mingw32/nios2-elf/lib/mno-hw-mul\libc.a(lib_a-wbuf.o)
 .debug_line    0x000063a8      0x26e c:/altera/13.1/nios2eds/bin/gnu/h-i686-mingw32/bin/../lib/gcc/nios2-elf/4.7.3/../../../../../H-i686-mingw32/nios2-elf/lib/mno-hw-mul\libc.a(lib_a-wsetup.o)
 .debug_line    0x00006616      0x253 c:/altera/13.1/nios2eds/bin/gnu/h-i686-mingw32/bin/../lib/gcc/nios2-elf/4.7.3/../../../../../H-i686-mingw32/nios2-elf/lib/mno-hw-mul\libc.a(lib_a-__atexit.o)
 .debug_line    0x00006869      0x267 c:/altera/13.1/nios2eds/bin/gnu/h-i686-mingw32/bin/../lib/gcc/nios2-elf/4.7.3/../../../../../H-i686-mingw32/nios2-elf/lib/mno-hw-mul\libc.a(lib_a-__call_atexit.o)
 .debug_line    0x00006ad0      0x29f c:/altera/13.1/nios2eds/bin/gnu/h-i686-mingw32/bin/../lib/gcc/nios2-elf/4.7.3/../../../../../H-i686-mingw32/nios2-elf/lib/mno-hw-mul\libc.a(lib_a-fflush.o)
 .debug_line    0x00006d6f      0x2ea c:/altera/13.1/nios2eds/bin/gnu/h-i686-mingw32/bin/../lib/gcc/nios2-elf/4.7.3/../../../../../H-i686-mingw32/nios2-elf/lib/mno-hw-mul\libc.a(lib_a-findfp.o)
 .debug_line    0x00007059      0x314 c:/altera/13.1/nios2eds/bin/gnu/h-i686-mingw32/bin/../lib/gcc/nios2-elf/4.7.3/../../../../../H-i686-mingw32/nios2-elf/lib/mno-hw-mul\libc.a(lib_a-freer.o)
 .debug_line    0x0000736d      0x25c c:/altera/13.1/nios2eds/bin/gnu/h-i686-mingw32/bin/../lib/gcc/nios2-elf/4.7.3/../../../../../H-i686-mingw32/nios2-elf/lib/mno-hw-mul\libc.a(lib_a-fwalk.o)
 .debug_line    0x000075c9      0x296 c:/altera/13.1/nios2eds/bin/gnu/h-i686-mingw32/bin/../lib/gcc/nios2-elf/4.7.3/../../../../../H-i686-mingw32/nios2-elf/lib/mno-hw-mul\libc.a(lib_a-makebuf.o)
 .debug_line    0x0000785f      0x1f4 c:/altera/13.1/nios2eds/bin/gnu/h-i686-mingw32/bin/../lib/gcc/nios2-elf/4.7.3/../../../../../H-i686-mingw32/nios2-elf/lib/mno-hw-mul\libc.a(lib_a-memset.o)
 .debug_line    0x00007a53      0x248 c:/altera/13.1/nios2eds/bin/gnu/h-i686-mingw32/bin/../lib/gcc/nios2-elf/4.7.3/../../../../../H-i686-mingw32/nios2-elf/lib/mno-hw-mul\libc.a(lib_a-stdio.o)
 .debug_line    0x00007c9b      0x216 c:/altera/13.1/nios2eds/bin/gnu/h-i686-mingw32/bin/../lib/gcc/nios2-elf/4.7.3/../../../../../H-i686-mingw32/nios2-elf/lib/mno-hw-mul\libc.a(lib_a-writer.o)
 .debug_line    0x00007eb1      0x216 c:/altera/13.1/nios2eds/bin/gnu/h-i686-mingw32/bin/../lib/gcc/nios2-elf/4.7.3/../../../../../H-i686-mingw32/nios2-elf/lib/mno-hw-mul\libc.a(lib_a-closer.o)
 .debug_line    0x000080c7      0x269 c:/altera/13.1/nios2eds/bin/gnu/h-i686-mingw32/bin/../lib/gcc/nios2-elf/4.7.3/../../../../../H-i686-mingw32/nios2-elf/lib/mno-hw-mul\libc.a(lib_a-fclose.o)
 .debug_line    0x00008330      0x21f c:/altera/13.1/nios2eds/bin/gnu/h-i686-mingw32/bin/../lib/gcc/nios2-elf/4.7.3/../../../../../H-i686-mingw32/nios2-elf/lib/mno-hw-mul\libc.a(lib_a-fstatr.o)
 .debug_line    0x0000854f      0x217 c:/altera/13.1/nios2eds/bin/gnu/h-i686-mingw32/bin/../lib/gcc/nios2-elf/4.7.3/../../../../../H-i686-mingw32/nios2-elf/lib/mno-hw-mul\libc.a(lib_a-isattyr.o)
 .debug_line    0x00008766      0x221 c:/altera/13.1/nios2eds/bin/gnu/h-i686-mingw32/bin/../lib/gcc/nios2-elf/4.7.3/../../../../../H-i686-mingw32/nios2-elf/lib/mno-hw-mul\libc.a(lib_a-lseekr.o)
 .debug_line    0x00008987      0x215 c:/altera/13.1/nios2eds/bin/gnu/h-i686-mingw32/bin/../lib/gcc/nios2-elf/4.7.3/../../../../../H-i686-mingw32/nios2-elf/lib/mno-hw-mul\libc.a(lib_a-readr.o)
 .debug_line    0x00008b9c       0x72 G:/WorK/github/synesthesia_moksha/wxp/dgn/sw/limbus_bsp/\libchibios_v246_bsp.a(alt_exit.o)
 .debug_line    0x00008c0e      0x180 G:/WorK/github/synesthesia_moksha/wxp/dgn/sw/limbus_bsp/\libchibios_v246_bsp.a(alt_fstat.o)
 .debug_line    0x00008d8e      0x180 G:/WorK/github/synesthesia_moksha/wxp/dgn/sw/limbus_bsp/\libchibios_v246_bsp.a(alt_isatty.o)
 .debug_line    0x00008f0e      0x184 G:/WorK/github/synesthesia_moksha/wxp/dgn/sw/limbus_bsp/\libchibios_v246_bsp.a(alt_lseek.o)
 .debug_line    0x00009092      0x13f G:/WorK/github/synesthesia_moksha/wxp/dgn/sw/limbus_bsp/\libchibios_v246_bsp.a(alt_malloc_lock.o)
 .debug_line    0x000091d1      0x1f9 G:/WorK/github/synesthesia_moksha/wxp/dgn/sw/limbus_bsp/\libchibios_v246_bsp.a(alt_read.o)
 .debug_line    0x000093ca      0x114 G:/WorK/github/synesthesia_moksha/wxp/dgn/sw/limbus_bsp/\libchibios_v246_bsp.a(alt_sbrk.o)
 .debug_line    0x000094de      0x1f8 G:/WorK/github/synesthesia_moksha/wxp/dgn/sw/limbus_bsp/\libchibios_v246_bsp.a(alt_write.o)

.debug_frame    0x00000000     0x1bc8
 *(.debug_frame)
 .debug_frame   0x00000000       0x28 obj/default/hello_world_small.o
 .debug_frame   0x00000028       0x44 obj/default/ledos/aud_codec/aud_codec.o
 .debug_frame   0x0000006c       0x94 obj/default/ledos/cortex/acortex/i2c/i2c.o
 .debug_frame   0x00000100       0x30 obj/default/ledos/cortex/acortex/pcm_bffr/pcm_bffr.o
 .debug_frame   0x00000130       0x80 obj/default/ledos/cortex/acortex/ssm2603_drvr/ssm2603_drvr.o
 .debug_frame   0x000001b0       0x20 c:/altera/13.1/nios2eds/bin/gnu/h-i686-mingw32/bin/../lib/gcc/nios2-elf/4.7.3/mno-hw-mul\libgcc.a(lib2-mul.o)
 .debug_frame   0x000001d0      0x198 G:/WorK/github/synesthesia_moksha/wxp/dgn/sw/limbus_bsp/\libchibios_v246_bsp.a(chthreads.o)
 .debug_frame   0x00000368       0x80 G:/WorK/github/synesthesia_moksha/wxp/dgn/sw/limbus_bsp/\libchibios_v246_bsp.a(chvt.o)
 .debug_frame   0x000003e8       0x48 G:/WorK/github/synesthesia_moksha/wxp/dgn/sw/limbus_bsp/\libchibios_v246_bsp.a(alt_load.o)
 .debug_frame   0x00000430       0x2c G:/WorK/github/synesthesia_moksha/wxp/dgn/sw/limbus_bsp/\libchibios_v246_bsp.a(alt_main.o)
 .debug_frame   0x0000045c       0x2c G:/WorK/github/synesthesia_moksha/wxp/dgn/sw/limbus_bsp/\libchibios_v246_bsp.a(alt_printf.o)
 .debug_frame   0x00000488       0x2c G:/WorK/github/synesthesia_moksha/wxp/dgn/sw/limbus_bsp/\libchibios_v246_bsp.a(alt_putchar.o)
 .debug_frame   0x000004b4       0x2c G:/WorK/github/synesthesia_moksha/wxp/dgn/sw/limbus_bsp/\libchibios_v246_bsp.a(alt_putstr.o)
 .debug_frame   0x000004e0       0x64 G:/WorK/github/synesthesia_moksha/wxp/dgn/sw/limbus_bsp/\libchibios_v246_bsp.a(alt_sys_init.o)
 .debug_frame   0x00000544       0x80 G:/WorK/github/synesthesia_moksha/wxp/dgn/sw/limbus_bsp/\libchibios_v246_bsp.a(altera_avalon_jtag_uart_fd.o)
 .debug_frame   0x000005c4       0x80 G:/WorK/github/synesthesia_moksha/wxp/dgn/sw/limbus_bsp/\libchibios_v246_bsp.a(altera_avalon_jtag_uart_init.o)
 .debug_frame   0x00000644       0x2c G:/WorK/github/synesthesia_moksha/wxp/dgn/sw/limbus_bsp/\libchibios_v246_bsp.a(altera_avalon_jtag_uart_ioctl.o)
 .debug_frame   0x00000670       0x2c G:/WorK/github/synesthesia_moksha/wxp/dgn/sw/limbus_bsp/\libchibios_v246_bsp.a(altera_avalon_jtag_uart_read.o)
 .debug_frame   0x0000069c       0x2c G:/WorK/github/synesthesia_moksha/wxp/dgn/sw/limbus_bsp/\libchibios_v246_bsp.a(altera_avalon_jtag_uart_write.o)
 .debug_frame   0x000006c8       0x48 G:/WorK/github/synesthesia_moksha/wxp/dgn/sw/limbus_bsp/\libchibios_v246_bsp.a(altera_avalon_timer_sc.o)
 .debug_frame   0x00000710       0x64 G:/WorK/github/synesthesia_moksha/wxp/dgn/sw/limbus_bsp/\libchibios_v246_bsp.a(altera_avalon_uart_fd.o)
 .debug_frame   0x00000774       0x9c G:/WorK/github/synesthesia_moksha/wxp/dgn/sw/limbus_bsp/\libchibios_v246_bsp.a(altera_avalon_uart_init.o)
 .debug_frame   0x00000810       0x48 G:/WorK/github/synesthesia_moksha/wxp/dgn/sw/limbus_bsp/\libchibios_v246_bsp.a(altera_avalon_uart_read.o)
 .debug_frame   0x00000858       0x48 G:/WorK/github/synesthesia_moksha/wxp/dgn/sw/limbus_bsp/\libchibios_v246_bsp.a(altera_avalon_uart_write.o)
 .debug_frame   0x000008a0       0x80 G:/WorK/github/synesthesia_moksha/wxp/dgn/sw/limbus_bsp/\libchibios_v246_bsp.a(chdynamic.o)
 .debug_frame   0x00000920       0x9c G:/WorK/github/synesthesia_moksha/wxp/dgn/sw/limbus_bsp/\libchibios_v246_bsp.a(chheap.o)
 .debug_frame   0x000009bc       0x80 G:/WorK/github/synesthesia_moksha/wxp/dgn/sw/limbus_bsp/\libchibios_v246_bsp.a(chmemcore.o)
 .debug_frame   0x00000a3c       0x9c G:/WorK/github/synesthesia_moksha/wxp/dgn/sw/limbus_bsp/\libchibios_v246_bsp.a(chmempools.o)
 .debug_frame   0x00000ad8      0x144 G:/WorK/github/synesthesia_moksha/wxp/dgn/sw/limbus_bsp/\libchibios_v246_bsp.a(chmtx.o)
 .debug_frame   0x00000c1c      0x144 G:/WorK/github/synesthesia_moksha/wxp/dgn/sw/limbus_bsp/\libchibios_v246_bsp.a(chschd.o)
 .debug_frame   0x00000d60       0x64 G:/WorK/github/synesthesia_moksha/wxp/dgn/sw/limbus_bsp/\libchibios_v246_bsp.a(chsys.o)
 .debug_frame   0x00000dc4       0x2c G:/WorK/github/synesthesia_moksha/wxp/dgn/sw/limbus_bsp/\libchibios_v246_bsp.a(alt_alarm_start.o)
 .debug_frame   0x00000df0       0x48 G:/WorK/github/synesthesia_moksha/wxp/dgn/sw/limbus_bsp/\libchibios_v246_bsp.a(alt_close.o)
 .debug_frame   0x00000e38       0x2c G:/WorK/github/synesthesia_moksha/wxp/dgn/sw/limbus_bsp/\libchibios_v246_bsp.a(alt_dcache_flush_all.o)
 .debug_frame   0x00000e64       0x2c G:/WorK/github/synesthesia_moksha/wxp/dgn/sw/limbus_bsp/\libchibios_v246_bsp.a(alt_dev.o)
 .debug_frame   0x00000e90       0x48 G:/WorK/github/synesthesia_moksha/wxp/dgn/sw/limbus_bsp/\libchibios_v246_bsp.a(alt_dev_llist_insert.o)
 .debug_frame   0x00000ed8       0x2c G:/WorK/github/synesthesia_moksha/wxp/dgn/sw/limbus_bsp/\libchibios_v246_bsp.a(alt_do_ctors.o)
 .debug_frame   0x00000f04       0x2c G:/WorK/github/synesthesia_moksha/wxp/dgn/sw/limbus_bsp/\libchibios_v246_bsp.a(alt_do_dtors.o)
 .debug_frame   0x00000f30       0x2c G:/WorK/github/synesthesia_moksha/wxp/dgn/sw/limbus_bsp/\libchibios_v246_bsp.a(alt_icache_flush_all.o)
 .debug_frame   0x00000f5c       0x80 G:/WorK/github/synesthesia_moksha/wxp/dgn/sw/limbus_bsp/\libchibios_v246_bsp.a(alt_iic.o)
 .debug_frame   0x00000fdc       0x2c G:/WorK/github/synesthesia_moksha/wxp/dgn/sw/limbus_bsp/\libchibios_v246_bsp.a(alt_iic_isr_register.o)
 .debug_frame   0x00001008       0x4c G:/WorK/github/synesthesia_moksha/wxp/dgn/sw/limbus_bsp/\libchibios_v246_bsp.a(alt_io_redirect.o)
 .debug_frame   0x00001054       0x2c G:/WorK/github/synesthesia_moksha/wxp/dgn/sw/limbus_bsp/\libchibios_v246_bsp.a(alt_irq_handler.o)
 .debug_frame   0x00001080       0x68 G:/WorK/github/synesthesia_moksha/wxp/dgn/sw/limbus_bsp/\libchibios_v246_bsp.a(alt_open.o)
 .debug_frame   0x000010e8       0x30 G:/WorK/github/synesthesia_moksha/wxp/dgn/sw/limbus_bsp/\libchibios_v246_bsp.a(alt_release_fd.o)
 .debug_frame   0x00001118       0x48 G:/WorK/github/synesthesia_moksha/wxp/dgn/sw/limbus_bsp/\libchibios_v246_bsp.a(alt_tick.o)
 .debug_frame   0x00001160       0x2c G:/WorK/github/synesthesia_moksha/wxp/dgn/sw/limbus_bsp/\libchibios_v246_bsp.a(altera_nios2_qsys_irq.o)
 .debug_frame   0x0000118c       0x48 G:/WorK/github/synesthesia_moksha/wxp/dgn/sw/limbus_bsp/\libchibios_v246_bsp.a(chregistry.o)
 .debug_frame   0x000011d4       0x48 G:/WorK/github/synesthesia_moksha/wxp/dgn/sw/limbus_bsp/\libchibios_v246_bsp.a(chcore.o)
 .debug_frame   0x0000121c       0x2c G:/WorK/github/synesthesia_moksha/wxp/dgn/sw/limbus_bsp/\libchibios_v246_bsp.a(alt_find_dev.o)
 .debug_frame   0x00001248       0x2c G:/WorK/github/synesthesia_moksha/wxp/dgn/sw/limbus_bsp/\libchibios_v246_bsp.a(alt_find_file.o)
 .debug_frame   0x00001274       0x30 G:/WorK/github/synesthesia_moksha/wxp/dgn/sw/limbus_bsp/\libchibios_v246_bsp.a(alt_get_fd.o)
 .debug_frame   0x000012a4       0x20 c:/altera/13.1/nios2eds/bin/gnu/h-i686-mingw32/bin/../lib/gcc/nios2-elf/4.7.3/../../../../../H-i686-mingw32/nios2-elf/lib/mno-hw-mul\libc.a(lib_a-atexit.o)
 .debug_frame   0x000012c4       0x28 c:/altera/13.1/nios2eds/bin/gnu/h-i686-mingw32/bin/../lib/gcc/nios2-elf/4.7.3/../../../../../H-i686-mingw32/nios2-elf/lib/mno-hw-mul\libc.a(lib_a-exit.o)
 .debug_frame   0x000012ec       0x3c c:/altera/13.1/nios2eds/bin/gnu/h-i686-mingw32/bin/../lib/gcc/nios2-elf/4.7.3/../../../../../H-i686-mingw32/nios2-elf/lib/mno-hw-mul\libc.a(lib_a-fputs.o)
 .debug_frame   0x00001328       0x38 c:/altera/13.1/nios2eds/bin/gnu/h-i686-mingw32/bin/../lib/gcc/nios2-elf/4.7.3/../../../../../H-i686-mingw32/nios2-elf/lib/mno-hw-mul\libc.a(lib_a-fvwrite.o)
 .debug_frame   0x00001360       0x38 c:/altera/13.1/nios2eds/bin/gnu/h-i686-mingw32/bin/../lib/gcc/nios2-elf/4.7.3/../../../../../H-i686-mingw32/nios2-elf/lib/mno-hw-mul\libc.a(lib_a-mallocr.o)
 .debug_frame   0x00001398       0x20 c:/altera/13.1/nios2eds/bin/gnu/h-i686-mingw32/bin/../lib/gcc/nios2-elf/4.7.3/../../../../../H-i686-mingw32/nios2-elf/lib/mno-hw-mul\libc.a(lib_a-memchr.o)
 .debug_frame   0x000013b8       0x20 c:/altera/13.1/nios2eds/bin/gnu/h-i686-mingw32/bin/../lib/gcc/nios2-elf/4.7.3/../../../../../H-i686-mingw32/nios2-elf/lib/mno-hw-mul\libc.a(lib_a-memcmp.o)
 .debug_frame   0x000013d8       0x30 c:/altera/13.1/nios2eds/bin/gnu/h-i686-mingw32/bin/../lib/gcc/nios2-elf/4.7.3/../../../../../H-i686-mingw32/nios2-elf/lib/mno-hw-mul\libc.a(lib_a-memcpy.o)
 .debug_frame   0x00001408       0x30 c:/altera/13.1/nios2eds/bin/gnu/h-i686-mingw32/bin/../lib/gcc/nios2-elf/4.7.3/../../../../../H-i686-mingw32/nios2-elf/lib/mno-hw-mul\libc.a(lib_a-memmove.o)
 .debug_frame   0x00001438       0x48 c:/altera/13.1/nios2eds/bin/gnu/h-i686-mingw32/bin/../lib/gcc/nios2-elf/4.7.3/../../../../../H-i686-mingw32/nios2-elf/lib/mno-hw-mul\libc.a(lib_a-putc.o)
 .debug_frame   0x00001480       0x38 c:/altera/13.1/nios2eds/bin/gnu/h-i686-mingw32/bin/../lib/gcc/nios2-elf/4.7.3/../../../../../H-i686-mingw32/nios2-elf/lib/mno-hw-mul\libc.a(lib_a-reallocr.o)
 .debug_frame   0x000014b8       0x2c c:/altera/13.1/nios2eds/bin/gnu/h-i686-mingw32/bin/../lib/gcc/nios2-elf/4.7.3/../../../../../H-i686-mingw32/nios2-elf/lib/mno-hw-mul\libc.a(lib_a-sbrkr.o)
 .debug_frame   0x000014e4       0x20 c:/altera/13.1/nios2eds/bin/gnu/h-i686-mingw32/bin/../lib/gcc/nios2-elf/4.7.3/../../../../../H-i686-mingw32/nios2-elf/lib/mno-hw-mul\libc.a(lib_a-strlen.o)
 .debug_frame   0x00001504       0x3c c:/altera/13.1/nios2eds/bin/gnu/h-i686-mingw32/bin/../lib/gcc/nios2-elf/4.7.3/../../../../../H-i686-mingw32/nios2-elf/lib/mno-hw-mul\libc.a(lib_a-wbuf.o)
 .debug_frame   0x00001540       0x2c c:/altera/13.1/nios2eds/bin/gnu/h-i686-mingw32/bin/../lib/gcc/nios2-elf/4.7.3/../../../../../H-i686-mingw32/nios2-elf/lib/mno-hw-mul\libc.a(lib_a-wsetup.o)
 .debug_frame   0x0000156c       0x2c c:/altera/13.1/nios2eds/bin/gnu/h-i686-mingw32/bin/../lib/gcc/nios2-elf/4.7.3/../../../../../H-i686-mingw32/nios2-elf/lib/mno-hw-mul\libc.a(lib_a-__atexit.o)
 .debug_frame   0x00001598       0x38 c:/altera/13.1/nios2eds/bin/gnu/h-i686-mingw32/bin/../lib/gcc/nios2-elf/4.7.3/../../../../../H-i686-mingw32/nios2-elf/lib/mno-hw-mul\libc.a(lib_a-__call_atexit.o)
 .debug_frame   0x000015d0       0x40 c:/altera/13.1/nios2eds/bin/gnu/h-i686-mingw32/bin/../lib/gcc/nios2-elf/4.7.3/../../../../../H-i686-mingw32/nios2-elf/lib/mno-hw-mul\libc.a(lib_a-fflush.o)
 .debug_frame   0x00001610      0x100 c:/altera/13.1/nios2eds/bin/gnu/h-i686-mingw32/bin/../lib/gcc/nios2-elf/4.7.3/../../../../../H-i686-mingw32/nios2-elf/lib/mno-hw-mul\libc.a(lib_a-findfp.o)
 .debug_frame   0x00001710       0x4c c:/altera/13.1/nios2eds/bin/gnu/h-i686-mingw32/bin/../lib/gcc/nios2-elf/4.7.3/../../../../../H-i686-mingw32/nios2-elf/lib/mno-hw-mul\libc.a(lib_a-freer.o)
 .debug_frame   0x0000175c       0x5c c:/altera/13.1/nios2eds/bin/gnu/h-i686-mingw32/bin/../lib/gcc/nios2-elf/4.7.3/../../../../../H-i686-mingw32/nios2-elf/lib/mno-hw-mul\libc.a(lib_a-fwalk.o)
 .debug_frame   0x000017b8       0x2c c:/altera/13.1/nios2eds/bin/gnu/h-i686-mingw32/bin/../lib/gcc/nios2-elf/4.7.3/../../../../../H-i686-mingw32/nios2-elf/lib/mno-hw-mul\libc.a(lib_a-makebuf.o)
 .debug_frame   0x000017e4       0x20 c:/altera/13.1/nios2eds/bin/gnu/h-i686-mingw32/bin/../lib/gcc/nios2-elf/4.7.3/../../../../../H-i686-mingw32/nios2-elf/lib/mno-hw-mul\libc.a(lib_a-memset.o)
 .debug_frame   0x00001804       0x78 c:/altera/13.1/nios2eds/bin/gnu/h-i686-mingw32/bin/../lib/gcc/nios2-elf/4.7.3/../../../../../H-i686-mingw32/nios2-elf/lib/mno-hw-mul\libc.a(lib_a-stdio.o)
 .debug_frame   0x0000187c       0x2c c:/altera/13.1/nios2eds/bin/gnu/h-i686-mingw32/bin/../lib/gcc/nios2-elf/4.7.3/../../../../../H-i686-mingw32/nios2-elf/lib/mno-hw-mul\libc.a(lib_a-writer.o)
 .debug_frame   0x000018a8       0x2c c:/altera/13.1/nios2eds/bin/gnu/h-i686-mingw32/bin/../lib/gcc/nios2-elf/4.7.3/../../../../../H-i686-mingw32/nios2-elf/lib/mno-hw-mul\libc.a(lib_a-closer.o)
 .debug_frame   0x000018d4       0x3c c:/altera/13.1/nios2eds/bin/gnu/h-i686-mingw32/bin/../lib/gcc/nios2-elf/4.7.3/../../../../../H-i686-mingw32/nios2-elf/lib/mno-hw-mul\libc.a(lib_a-fclose.o)
 .debug_frame   0x00001910       0x2c c:/altera/13.1/nios2eds/bin/gnu/h-i686-mingw32/bin/../lib/gcc/nios2-elf/4.7.3/../../../../../H-i686-mingw32/nios2-elf/lib/mno-hw-mul\libc.a(lib_a-fstatr.o)
 .debug_frame   0x0000193c       0x2c c:/altera/13.1/nios2eds/bin/gnu/h-i686-mingw32/bin/../lib/gcc/nios2-elf/4.7.3/../../../../../H-i686-mingw32/nios2-elf/lib/mno-hw-mul\libc.a(lib_a-isattyr.o)
 .debug_frame   0x00001968       0x2c c:/altera/13.1/nios2eds/bin/gnu/h-i686-mingw32/bin/../lib/gcc/nios2-elf/4.7.3/../../../../../H-i686-mingw32/nios2-elf/lib/mno-hw-mul\libc.a(lib_a-lseekr.o)
 .debug_frame   0x00001994       0x2c c:/altera/13.1/nios2eds/bin/gnu/h-i686-mingw32/bin/../lib/gcc/nios2-elf/4.7.3/../../../../../H-i686-mingw32/nios2-elf/lib/mno-hw-mul\libc.a(lib_a-readr.o)
 .debug_frame   0x000019c0       0x2c G:/WorK/github/synesthesia_moksha/wxp/dgn/sw/limbus_bsp/\libchibios_v246_bsp.a(alt_exit.o)
 .debug_frame   0x000019ec       0x48 G:/WorK/github/synesthesia_moksha/wxp/dgn/sw/limbus_bsp/\libchibios_v246_bsp.a(alt_fstat.o)
 .debug_frame   0x00001a34       0x48 G:/WorK/github/synesthesia_moksha/wxp/dgn/sw/limbus_bsp/\libchibios_v246_bsp.a(alt_isatty.o)
 .debug_frame   0x00001a7c       0x48 G:/WorK/github/synesthesia_moksha/wxp/dgn/sw/limbus_bsp/\libchibios_v246_bsp.a(alt_lseek.o)
 .debug_frame   0x00001ac4       0x48 G:/WorK/github/synesthesia_moksha/wxp/dgn/sw/limbus_bsp/\libchibios_v246_bsp.a(alt_malloc_lock.o)
 .debug_frame   0x00001b0c       0x48 G:/WorK/github/synesthesia_moksha/wxp/dgn/sw/limbus_bsp/\libchibios_v246_bsp.a(alt_read.o)
 .debug_frame   0x00001b54       0x2c G:/WorK/github/synesthesia_moksha/wxp/dgn/sw/limbus_bsp/\libchibios_v246_bsp.a(alt_sbrk.o)
 .debug_frame   0x00001b80       0x48 G:/WorK/github/synesthesia_moksha/wxp/dgn/sw/limbus_bsp/\libchibios_v246_bsp.a(alt_write.o)

.debug_str      0x00000000     0x30a7
 *(.debug_str)
 .debug_str     0x00000000      0x108 obj/default/hello_world_small.o
                                0x146 (size before relaxing)
 .debug_str     0x00000108       0x9b obj/default/ledos/aud_codec/aud_codec.o
                                0x1b7 (size before relaxing)
 .debug_str     0x000001a3       0xad obj/default/ledos/cortex/acortex/i2c/i2c.o
                                0x20e (size before relaxing)
 .debug_str     0x00000250       0x98 obj/default/ledos/cortex/acortex/pcm_bffr/pcm_bffr.o
                                0x167 (size before relaxing)
 .debug_str     0x000002e8      0x146 obj/default/ledos/cortex/acortex/ssm2603_drvr/ssm2603_drvr.o
                                0x208 (size before relaxing)
 .debug_str     0x0000042e       0xd3 c:/altera/13.1/nios2eds/bin/gnu/h-i686-mingw32/bin/../lib/gcc/nios2-elf/4.7.3/mno-hw-mul\libgcc.a(lib2-mul.o)
                                0x12a (size before relaxing)
 .debug_str     0x00000501      0x31c G:/WorK/github/synesthesia_moksha/wxp/dgn/sw/limbus_bsp/\libchibios_v246_bsp.a(chthreads.o)
                                0x433 (size before relaxing)
 .debug_str     0x0000081d       0x59 G:/WorK/github/synesthesia_moksha/wxp/dgn/sw/limbus_bsp/\libchibios_v246_bsp.a(chvt.o)
                                0x1ab (size before relaxing)
 .debug_str     0x00000876       0xe9 G:/WorK/github/synesthesia_moksha/wxp/dgn/sw/limbus_bsp/\libchibios_v246_bsp.a(alt_load.o)
                                0x1c7 (size before relaxing)
 .debug_str     0x0000095f       0x70 G:/WorK/github/synesthesia_moksha/wxp/dgn/sw/limbus_bsp/\libchibios_v246_bsp.a(alt_main.o)
                                0x17e (size before relaxing)
 .debug_str     0x000009cf       0x48 G:/WorK/github/synesthesia_moksha/wxp/dgn/sw/limbus_bsp/\libchibios_v246_bsp.a(alt_printf.o)
                                 0xbb (size before relaxing)
 .debug_str     0x00000a17      0x359 G:/WorK/github/synesthesia_moksha/wxp/dgn/sw/limbus_bsp/\libchibios_v246_bsp.a(alt_putchar.o)
                                0x499 (size before relaxing)
 .debug_str     0x00000d70       0x15 G:/WorK/github/synesthesia_moksha/wxp/dgn/sw/limbus_bsp/\libchibios_v246_bsp.a(alt_putstr.o)
                                0x497 (size before relaxing)
 .debug_str     0x00000d85      0x25c G:/WorK/github/synesthesia_moksha/wxp/dgn/sw/limbus_bsp/\libchibios_v246_bsp.a(alt_sys_init.o)
                                0x3d9 (size before relaxing)
 .debug_str     0x00000fe1       0xb9 G:/WorK/github/synesthesia_moksha/wxp/dgn/sw/limbus_bsp/\libchibios_v246_bsp.a(altera_avalon_jtag_uart_fd.o)
                                0x359 (size before relaxing)
 .debug_str     0x0000109a       0xd1 G:/WorK/github/synesthesia_moksha/wxp/dgn/sw/limbus_bsp/\libchibios_v246_bsp.a(altera_avalon_jtag_uart_init.o)
                                0x2ed (size before relaxing)
 .debug_str     0x0000116b       0x4a G:/WorK/github/synesthesia_moksha/wxp/dgn/sw/limbus_bsp/\libchibios_v246_bsp.a(altera_avalon_jtag_uart_ioctl.o)
                                0x248 (size before relaxing)
 .debug_str     0x000011b5       0x48 G:/WorK/github/synesthesia_moksha/wxp/dgn/sw/limbus_bsp/\libchibios_v246_bsp.a(altera_avalon_jtag_uart_read.o)
                                0x29d (size before relaxing)
 .debug_str     0x000011fd       0x4a G:/WorK/github/synesthesia_moksha/wxp/dgn/sw/limbus_bsp/\libchibios_v246_bsp.a(altera_avalon_jtag_uart_write.o)
                                0x29e (size before relaxing)
 .debug_str     0x00001247       0x6d G:/WorK/github/synesthesia_moksha/wxp/dgn/sw/limbus_bsp/\libchibios_v246_bsp.a(altera_avalon_timer_sc.o)
                                0x200 (size before relaxing)
 .debug_str     0x000012b4       0x77 G:/WorK/github/synesthesia_moksha/wxp/dgn/sw/limbus_bsp/\libchibios_v246_bsp.a(altera_avalon_uart_fd.o)
                                0x2aa (size before relaxing)
 .debug_str     0x0000132b       0xaa G:/WorK/github/synesthesia_moksha/wxp/dgn/sw/limbus_bsp/\libchibios_v246_bsp.a(altera_avalon_uart_init.o)
                                0x26c (size before relaxing)
 .debug_str     0x000013d5       0x5d G:/WorK/github/synesthesia_moksha/wxp/dgn/sw/limbus_bsp/\libchibios_v246_bsp.a(altera_avalon_uart_read.o)
                                0x24d (size before relaxing)
 .debug_str     0x00001432       0x49 G:/WorK/github/synesthesia_moksha/wxp/dgn/sw/limbus_bsp/\libchibios_v246_bsp.a(altera_avalon_uart_write.o)
                                0x241 (size before relaxing)
 .debug_str     0x0000147b       0xfb G:/WorK/github/synesthesia_moksha/wxp/dgn/sw/limbus_bsp/\libchibios_v246_bsp.a(chdynamic.o)
                                0x3bb (size before relaxing)
 .debug_str     0x00001576       0x6e G:/WorK/github/synesthesia_moksha/wxp/dgn/sw/limbus_bsp/\libchibios_v246_bsp.a(chheap.o)
                                0x333 (size before relaxing)
 .debug_str     0x000015e4       0x86 G:/WorK/github/synesthesia_moksha/wxp/dgn/sw/limbus_bsp/\libchibios_v246_bsp.a(chmemcore.o)
                                0x1af (size before relaxing)
 .debug_str     0x0000166a       0x60 G:/WorK/github/synesthesia_moksha/wxp/dgn/sw/limbus_bsp/\libchibios_v246_bsp.a(chmempools.o)
                                0x1de (size before relaxing)
 .debug_str     0x000016ca       0xa2 G:/WorK/github/synesthesia_moksha/wxp/dgn/sw/limbus_bsp/\libchibios_v246_bsp.a(chmtx.o)
                                0x387 (size before relaxing)
 .debug_str     0x0000176c       0xd2 G:/WorK/github/synesthesia_moksha/wxp/dgn/sw/limbus_bsp/\libchibios_v246_bsp.a(chschd.o)
                                0x3ce (size before relaxing)
 .debug_str     0x0000183e      0x15d G:/WorK/github/synesthesia_moksha/wxp/dgn/sw/limbus_bsp/\libchibios_v246_bsp.a(chsys.o)
                                0x488 (size before relaxing)
 .debug_str     0x0000199b       0x5f G:/WorK/github/synesthesia_moksha/wxp/dgn/sw/limbus_bsp/\libchibios_v246_bsp.a(alt_alarm_start.o)
                                0x233 (size before relaxing)
 .debug_str     0x000019fa       0x2c G:/WorK/github/synesthesia_moksha/wxp/dgn/sw/limbus_bsp/\libchibios_v246_bsp.a(alt_close.o)
                                0x1c0 (size before relaxing)
 .debug_str     0x00001a26       0x34 G:/WorK/github/synesthesia_moksha/wxp/dgn/sw/limbus_bsp/\libchibios_v246_bsp.a(alt_dcache_flush_all.o)
                                0x10a (size before relaxing)
 .debug_str     0x00001a5a      0x112 G:/WorK/github/synesthesia_moksha/wxp/dgn/sw/limbus_bsp/\libchibios_v246_bsp.a(alt_dev.o)
                                0x2ba (size before relaxing)
 .debug_str     0x00001b6c       0x34 G:/WorK/github/synesthesia_moksha/wxp/dgn/sw/limbus_bsp/\libchibios_v246_bsp.a(alt_dev_llist_insert.o)
                                0x181 (size before relaxing)
 .debug_str     0x00001ba0       0x48 G:/WorK/github/synesthesia_moksha/wxp/dgn/sw/limbus_bsp/\libchibios_v246_bsp.a(alt_do_ctors.o)
                                 0x91 (size before relaxing)
 .debug_str     0x00001be8       0x4c G:/WorK/github/synesthesia_moksha/wxp/dgn/sw/limbus_bsp/\libchibios_v246_bsp.a(alt_do_dtors.o)
                                 0x90 (size before relaxing)
 .debug_str     0x00001c34       0x14 G:/WorK/github/synesthesia_moksha/wxp/dgn/sw/limbus_bsp/\libchibios_v246_bsp.a(alt_errno.o)
                                 0xfa (size before relaxing)
 .debug_str     0x00001c48       0x34 G:/WorK/github/synesthesia_moksha/wxp/dgn/sw/limbus_bsp/\libchibios_v246_bsp.a(alt_icache_flush_all.o)
                                0x10a (size before relaxing)
 .debug_str     0x00001c7c       0xbd G:/WorK/github/synesthesia_moksha/wxp/dgn/sw/limbus_bsp/\libchibios_v246_bsp.a(alt_iic.o)
                                0x1f3 (size before relaxing)
 .debug_str     0x00001d39       0x4c G:/WorK/github/synesthesia_moksha/wxp/dgn/sw/limbus_bsp/\libchibios_v246_bsp.a(alt_iic_isr_register.o)
                                0x19d (size before relaxing)
 .debug_str     0x00001d85       0x56 G:/WorK/github/synesthesia_moksha/wxp/dgn/sw/limbus_bsp/\libchibios_v246_bsp.a(alt_io_redirect.o)
                                0x2cb (size before relaxing)
 .debug_str     0x00001ddb       0x3a G:/WorK/github/synesthesia_moksha/wxp/dgn/sw/limbus_bsp/\libchibios_v246_bsp.a(alt_irq_handler.o)
                                0x14c (size before relaxing)
 .debug_str     0x00001e15       0x17 G:/WorK/github/synesthesia_moksha/wxp/dgn/sw/limbus_bsp/\libchibios_v246_bsp.a(alt_irq_vars.o)
                                 0xfb (size before relaxing)
 .debug_str     0x00001e2c       0x29 G:/WorK/github/synesthesia_moksha/wxp/dgn/sw/limbus_bsp/\libchibios_v246_bsp.a(alt_open.o)
                                0x200 (size before relaxing)
 .debug_str     0x00001e55       0x28 G:/WorK/github/synesthesia_moksha/wxp/dgn/sw/limbus_bsp/\libchibios_v246_bsp.a(alt_release_fd.o)
                                0x194 (size before relaxing)
 .debug_str     0x00001e7d       0x4a G:/WorK/github/synesthesia_moksha/wxp/dgn/sw/limbus_bsp/\libchibios_v246_bsp.a(alt_tick.o)
                                0x207 (size before relaxing)
 .debug_str     0x00001ec7       0x3b G:/WorK/github/synesthesia_moksha/wxp/dgn/sw/limbus_bsp/\libchibios_v246_bsp.a(altera_nios2_qsys_irq.o)
                                0x111 (size before relaxing)
 .debug_str     0x00001f02       0x46 G:/WorK/github/synesthesia_moksha/wxp/dgn/sw/limbus_bsp/\libchibios_v246_bsp.a(chregistry.o)
                                0x41b (size before relaxing)
 .debug_str     0x00001f48       0x40 G:/WorK/github/synesthesia_moksha/wxp/dgn/sw/limbus_bsp/\libchibios_v246_bsp.a(chcore.o)
                                0x142 (size before relaxing)
 .debug_str     0x00001f88       0x24 G:/WorK/github/synesthesia_moksha/wxp/dgn/sw/limbus_bsp/\libchibios_v246_bsp.a(alt_find_dev.o)
                                0x1a1 (size before relaxing)
 .debug_str     0x00001fac       0x26 G:/WorK/github/synesthesia_moksha/wxp/dgn/sw/limbus_bsp/\libchibios_v246_bsp.a(alt_find_file.o)
                                0x1af (size before relaxing)
 .debug_str     0x00001fd2       0x30 G:/WorK/github/synesthesia_moksha/wxp/dgn/sw/limbus_bsp/\libchibios_v246_bsp.a(alt_get_fd.o)
                                0x1d1 (size before relaxing)
 .debug_str     0x00002002      0x11c c:/altera/13.1/nios2eds/bin/gnu/h-i686-mingw32/bin/../lib/gcc/nios2-elf/4.7.3/../../../../../H-i686-mingw32/nios2-elf/lib/mno-hw-mul\libc.a(lib_a-atexit.o)
                                0x21d (size before relaxing)
 .debug_str     0x0000211e       0x60 c:/altera/13.1/nios2eds/bin/gnu/h-i686-mingw32/bin/../lib/gcc/nios2-elf/4.7.3/../../../../../H-i686-mingw32/nios2-elf/lib/mno-hw-mul\libc.a(lib_a-exit.o)
                                0x53d (size before relaxing)
 .debug_str     0x0000217e      0x13c c:/altera/13.1/nios2eds/bin/gnu/h-i686-mingw32/bin/../lib/gcc/nios2-elf/4.7.3/../../../../../H-i686-mingw32/nios2-elf/lib/mno-hw-mul\libc.a(lib_a-fputs.o)
                                0x58e (size before relaxing)
 .debug_str     0x000022ba       0xa5 c:/altera/13.1/nios2eds/bin/gnu/h-i686-mingw32/bin/../lib/gcc/nios2-elf/4.7.3/../../../../../H-i686-mingw32/nios2-elf/lib/mno-hw-mul\libc.a(lib_a-fvwrite.o)
                                0x5c6 (size before relaxing)
 .debug_str     0x0000235f       0xe2 c:/altera/13.1/nios2eds/bin/gnu/h-i686-mingw32/bin/../lib/gcc/nios2-elf/4.7.3/../../../../../H-i686-mingw32/nios2-elf/lib/mno-hw-mul\libc.a(lib_a-impure.o)
                                0x534 (size before relaxing)
 .debug_str     0x00002441       0x40 c:/altera/13.1/nios2eds/bin/gnu/h-i686-mingw32/bin/../lib/gcc/nios2-elf/4.7.3/../../../../../H-i686-mingw32/nios2-elf/lib/mno-hw-mul\libc.a(lib_a-int_errno.o)
                                0x17d (size before relaxing)
 .debug_str     0x00002481      0x22b c:/altera/13.1/nios2eds/bin/gnu/h-i686-mingw32/bin/../lib/gcc/nios2-elf/4.7.3/../../../../../H-i686-mingw32/nios2-elf/lib/mno-hw-mul\libc.a(lib_a-mallocr.o)
                                0x743 (size before relaxing)
 .debug_str     0x000026ac       0xed c:/altera/13.1/nios2eds/bin/gnu/h-i686-mingw32/bin/../lib/gcc/nios2-elf/4.7.3/../../../../../H-i686-mingw32/nios2-elf/lib/mno-hw-mul\libc.a(lib_a-memchr.o)
                                0x1a5 (size before relaxing)
 .debug_str     0x00002799       0x45 c:/altera/13.1/nios2eds/bin/gnu/h-i686-mingw32/bin/../lib/gcc/nios2-elf/4.7.3/../../../../../H-i686-mingw32/nios2-elf/lib/mno-hw-mul\libc.a(lib_a-memcmp.o)
                                0x184 (size before relaxing)
 .debug_str     0x000027de       0x65 c:/altera/13.1/nios2eds/bin/gnu/h-i686-mingw32/bin/../lib/gcc/nios2-elf/4.7.3/../../../../../H-i686-mingw32/nios2-elf/lib/mno-hw-mul\libc.a(lib_a-memcpy.o)
                                0x134 (size before relaxing)
 .debug_str     0x00002843       0x48 c:/altera/13.1/nios2eds/bin/gnu/h-i686-mingw32/bin/../lib/gcc/nios2-elf/4.7.3/../../../../../H-i686-mingw32/nios2-elf/lib/mno-hw-mul\libc.a(lib_a-memmove.o)
                                0x1b7 (size before relaxing)
 .debug_str     0x0000288b       0x52 c:/altera/13.1/nios2eds/bin/gnu/h-i686-mingw32/bin/../lib/gcc/nios2-elf/4.7.3/../../../../../H-i686-mingw32/nios2-elf/lib/mno-hw-mul\libc.a(lib_a-putc.o)
                                0x53e (size before relaxing)
 .debug_str     0x000028dd       0x49 c:/altera/13.1/nios2eds/bin/gnu/h-i686-mingw32/bin/../lib/gcc/nios2-elf/4.7.3/../../../../../H-i686-mingw32/nios2-elf/lib/mno-hw-mul\libc.a(lib_a-reallocr.o)
                                0x615 (size before relaxing)
 .debug_str     0x00002926       0x46 c:/altera/13.1/nios2eds/bin/gnu/h-i686-mingw32/bin/../lib/gcc/nios2-elf/4.7.3/../../../../../H-i686-mingw32/nios2-elf/lib/mno-hw-mul\libc.a(lib_a-sbrkr.o)
                                0x52a (size before relaxing)
 .debug_str     0x0000296c       0x4b c:/altera/13.1/nios2eds/bin/gnu/h-i686-mingw32/bin/../lib/gcc/nios2-elf/4.7.3/../../../../../H-i686-mingw32/nios2-elf/lib/mno-hw-mul\libc.a(lib_a-strlen.o)
                                0x197 (size before relaxing)
 .debug_str     0x000029b7       0x43 c:/altera/13.1/nios2eds/bin/gnu/h-i686-mingw32/bin/../lib/gcc/nios2-elf/4.7.3/../../../../../H-i686-mingw32/nios2-elf/lib/mno-hw-mul\libc.a(lib_a-wbuf.o)
                                0x548 (size before relaxing)
 .debug_str     0x000029fa       0x4a c:/altera/13.1/nios2eds/bin/gnu/h-i686-mingw32/bin/../lib/gcc/nios2-elf/4.7.3/../../../../../H-i686-mingw32/nios2-elf/lib/mno-hw-mul\libc.a(lib_a-wsetup.o)
                                0x543 (size before relaxing)
 .debug_str     0x00002a44       0x40 c:/altera/13.1/nios2eds/bin/gnu/h-i686-mingw32/bin/../lib/gcc/nios2-elf/4.7.3/../../../../../H-i686-mingw32/nios2-elf/lib/mno-hw-mul\libc.a(lib_a-__atexit.o)
                                0x581 (size before relaxing)
 .debug_str     0x00002a84       0x5f c:/altera/13.1/nios2eds/bin/gnu/h-i686-mingw32/bin/../lib/gcc/nios2-elf/4.7.3/../../../../../H-i686-mingw32/nios2-elf/lib/mno-hw-mul\libc.a(lib_a-__call_atexit.o)
                                0x55f (size before relaxing)
 .debug_str     0x00002ae3       0x4b c:/altera/13.1/nios2eds/bin/gnu/h-i686-mingw32/bin/../lib/gcc/nios2-elf/4.7.3/../../../../../H-i686-mingw32/nios2-elf/lib/mno-hw-mul\libc.a(lib_a-fflush.o)
                                0x561 (size before relaxing)
 .debug_str     0x00002b2e      0x104 c:/altera/13.1/nios2eds/bin/gnu/h-i686-mingw32/bin/../lib/gcc/nios2-elf/4.7.3/../../../../../H-i686-mingw32/nios2-elf/lib/mno-hw-mul\libc.a(lib_a-findfp.o)
                                0x62d (size before relaxing)
 .debug_str     0x00002c32       0x34 c:/altera/13.1/nios2eds/bin/gnu/h-i686-mingw32/bin/../lib/gcc/nios2-elf/4.7.3/../../../../../H-i686-mingw32/nios2-elf/lib/mno-hw-mul\libc.a(lib_a-freer.o)
                                0x68d (size before relaxing)
 .debug_str     0x00002c66       0x61 c:/altera/13.1/nios2eds/bin/gnu/h-i686-mingw32/bin/../lib/gcc/nios2-elf/4.7.3/../../../../../H-i686-mingw32/nios2-elf/lib/mno-hw-mul\libc.a(lib_a-fwalk.o)
                                0x575 (size before relaxing)
 .debug_str     0x00002cc7       0x5c c:/altera/13.1/nios2eds/bin/gnu/h-i686-mingw32/bin/../lib/gcc/nios2-elf/4.7.3/../../../../../H-i686-mingw32/nios2-elf/lib/mno-hw-mul\libc.a(lib_a-makebuf.o)
                                0x63d (size before relaxing)
 .debug_str     0x00002d23       0x3e c:/altera/13.1/nios2eds/bin/gnu/h-i686-mingw32/bin/../lib/gcc/nios2-elf/4.7.3/../../../../../H-i686-mingw32/nios2-elf/lib/mno-hw-mul\libc.a(lib_a-memset.o)
                                0x198 (size before relaxing)
 .debug_str     0x00002d61       0x91 c:/altera/13.1/nios2eds/bin/gnu/h-i686-mingw32/bin/../lib/gcc/nios2-elf/4.7.3/../../../../../H-i686-mingw32/nios2-elf/lib/mno-hw-mul\libc.a(lib_a-stdio.o)
                                0x57e (size before relaxing)
 .debug_str     0x00002df2       0x3d c:/altera/13.1/nios2eds/bin/gnu/h-i686-mingw32/bin/../lib/gcc/nios2-elf/4.7.3/../../../../../H-i686-mingw32/nios2-elf/lib/mno-hw-mul\libc.a(lib_a-writer.o)
                                0x52e (size before relaxing)
 .debug_str     0x00002e2f       0x3d c:/altera/13.1/nios2eds/bin/gnu/h-i686-mingw32/bin/../lib/gcc/nios2-elf/4.7.3/../../../../../H-i686-mingw32/nios2-elf/lib/mno-hw-mul\libc.a(lib_a-closer.o)
                                0x51e (size before relaxing)
 .debug_str     0x00002e6c       0x53 c:/altera/13.1/nios2eds/bin/gnu/h-i686-mingw32/bin/../lib/gcc/nios2-elf/4.7.3/../../../../../H-i686-mingw32/nios2-elf/lib/mno-hw-mul\libc.a(lib_a-fclose.o)
                                0x570 (size before relaxing)
 .debug_str     0x00002ebf       0x43 c:/altera/13.1/nios2eds/bin/gnu/h-i686-mingw32/bin/../lib/gcc/nios2-elf/4.7.3/../../../../../H-i686-mingw32/nios2-elf/lib/mno-hw-mul\libc.a(lib_a-fstatr.o)
                                0x611 (size before relaxing)
 .debug_str     0x00002f02       0x45 c:/altera/13.1/nios2eds/bin/gnu/h-i686-mingw32/bin/../lib/gcc/nios2-elf/4.7.3/../../../../../H-i686-mingw32/nios2-elf/lib/mno-hw-mul\libc.a(lib_a-isattyr.o)
                                0x521 (size before relaxing)
 .debug_str     0x00002f47       0x3d c:/altera/13.1/nios2eds/bin/gnu/h-i686-mingw32/bin/../lib/gcc/nios2-elf/4.7.3/../../../../../H-i686-mingw32/nios2-elf/lib/mno-hw-mul\libc.a(lib_a-lseekr.o)
                                0x532 (size before relaxing)
 .debug_str     0x00002f84       0x3c c:/altera/13.1/nios2eds/bin/gnu/h-i686-mingw32/bin/../lib/gcc/nios2-elf/4.7.3/../../../../../H-i686-mingw32/nios2-elf/lib/mno-hw-mul\libc.a(lib_a-readr.o)
                                0x52b (size before relaxing)
 .debug_str     0x00002fc0       0x2a G:/WorK/github/synesthesia_moksha/wxp/dgn/sw/limbus_bsp/\libchibios_v246_bsp.a(alt_exit.o)
                                0x106 (size before relaxing)
 .debug_str     0x00002fea       0x14 G:/WorK/github/synesthesia_moksha/wxp/dgn/sw/limbus_bsp/\libchibios_v246_bsp.a(alt_fstat.o)
                                0x2a1 (size before relaxing)
 .debug_str     0x00002ffe       0x15 G:/WorK/github/synesthesia_moksha/wxp/dgn/sw/limbus_bsp/\libchibios_v246_bsp.a(alt_isatty.o)
                                0x2a9 (size before relaxing)
 .debug_str     0x00003013       0x14 G:/WorK/github/synesthesia_moksha/wxp/dgn/sw/limbus_bsp/\libchibios_v246_bsp.a(alt_lseek.o)
                                0x1c6 (size before relaxing)
 .debug_str     0x00003027       0x1a G:/WorK/github/synesthesia_moksha/wxp/dgn/sw/limbus_bsp/\libchibios_v246_bsp.a(alt_malloc_lock.o)
                                0x4a3 (size before relaxing)
 .debug_str     0x00003041       0x13 G:/WorK/github/synesthesia_moksha/wxp/dgn/sw/limbus_bsp/\libchibios_v246_bsp.a(alt_read.o)
                                0x2ac (size before relaxing)
 .debug_str     0x00003054       0x3f G:/WorK/github/synesthesia_moksha/wxp/dgn/sw/limbus_bsp/\libchibios_v246_bsp.a(alt_sbrk.o)
                                0x189 (size before relaxing)
 .debug_str     0x00003093       0x14 G:/WorK/github/synesthesia_moksha/wxp/dgn/sw/limbus_bsp/\libchibios_v246_bsp.a(alt_write.o)
                                0x2ad (size before relaxing)

.debug_loc      0x00000000     0x6bf0
 *(.debug_loc)
 .debug_loc     0x00000000       0x20 obj/default/hello_world_small.o
 .debug_loc     0x00000020       0xc4 obj/default/ledos/aud_codec/aud_codec.o
 .debug_loc     0x000000e4      0x2a4 obj/default/ledos/cortex/acortex/i2c/i2c.o
 .debug_loc     0x00000388       0x82 obj/default/ledos/cortex/acortex/pcm_bffr/pcm_bffr.o
 .debug_loc     0x0000040a       0x21 obj/default/ledos/cortex/acortex/ssm2603_drvr/ssm2603_drvr.o
 .debug_loc     0x0000042b       0x93 c:/altera/13.1/nios2eds/bin/gnu/h-i686-mingw32/bin/../lib/gcc/nios2-elf/4.7.3/mno-hw-mul\libgcc.a(lib2-mul.o)
 .debug_loc     0x000004be      0x268 G:/WorK/github/synesthesia_moksha/wxp/dgn/sw/limbus_bsp/\libchibios_v246_bsp.a(chthreads.o)
 .debug_loc     0x00000726       0xb0 G:/WorK/github/synesthesia_moksha/wxp/dgn/sw/limbus_bsp/\libchibios_v246_bsp.a(chvt.o)
 .debug_loc     0x000007d6       0x58 G:/WorK/github/synesthesia_moksha/wxp/dgn/sw/limbus_bsp/\libchibios_v246_bsp.a(alt_load.o)
 .debug_loc     0x0000082e       0x2c G:/WorK/github/synesthesia_moksha/wxp/dgn/sw/limbus_bsp/\libchibios_v246_bsp.a(alt_main.o)
 .debug_loc     0x0000085a       0x2c G:/WorK/github/synesthesia_moksha/wxp/dgn/sw/limbus_bsp/\libchibios_v246_bsp.a(alt_printf.o)
 .debug_loc     0x00000886       0x2c G:/WorK/github/synesthesia_moksha/wxp/dgn/sw/limbus_bsp/\libchibios_v246_bsp.a(alt_putchar.o)
 .debug_loc     0x000008b2       0x2c G:/WorK/github/synesthesia_moksha/wxp/dgn/sw/limbus_bsp/\libchibios_v246_bsp.a(alt_putstr.o)
 .debug_loc     0x000008de       0x84 G:/WorK/github/synesthesia_moksha/wxp/dgn/sw/limbus_bsp/\libchibios_v246_bsp.a(alt_sys_init.o)
 .debug_loc     0x00000962       0xb0 G:/WorK/github/synesthesia_moksha/wxp/dgn/sw/limbus_bsp/\libchibios_v246_bsp.a(altera_avalon_jtag_uart_fd.o)
 .debug_loc     0x00000a12       0xb0 G:/WorK/github/synesthesia_moksha/wxp/dgn/sw/limbus_bsp/\libchibios_v246_bsp.a(altera_avalon_jtag_uart_init.o)
 .debug_loc     0x00000ac2       0x2c G:/WorK/github/synesthesia_moksha/wxp/dgn/sw/limbus_bsp/\libchibios_v246_bsp.a(altera_avalon_jtag_uart_ioctl.o)
 .debug_loc     0x00000aee       0x2c G:/WorK/github/synesthesia_moksha/wxp/dgn/sw/limbus_bsp/\libchibios_v246_bsp.a(altera_avalon_jtag_uart_read.o)
 .debug_loc     0x00000b1a       0x2c G:/WorK/github/synesthesia_moksha/wxp/dgn/sw/limbus_bsp/\libchibios_v246_bsp.a(altera_avalon_jtag_uart_write.o)
 .debug_loc     0x00000b46       0x58 G:/WorK/github/synesthesia_moksha/wxp/dgn/sw/limbus_bsp/\libchibios_v246_bsp.a(altera_avalon_timer_sc.o)
 .debug_loc     0x00000b9e       0x84 G:/WorK/github/synesthesia_moksha/wxp/dgn/sw/limbus_bsp/\libchibios_v246_bsp.a(altera_avalon_uart_fd.o)
 .debug_loc     0x00000c22       0xdc G:/WorK/github/synesthesia_moksha/wxp/dgn/sw/limbus_bsp/\libchibios_v246_bsp.a(altera_avalon_uart_init.o)
 .debug_loc     0x00000cfe       0x58 G:/WorK/github/synesthesia_moksha/wxp/dgn/sw/limbus_bsp/\libchibios_v246_bsp.a(altera_avalon_uart_read.o)
 .debug_loc     0x00000d56       0x58 G:/WorK/github/synesthesia_moksha/wxp/dgn/sw/limbus_bsp/\libchibios_v246_bsp.a(altera_avalon_uart_write.o)
 .debug_loc     0x00000dae       0xb0 G:/WorK/github/synesthesia_moksha/wxp/dgn/sw/limbus_bsp/\libchibios_v246_bsp.a(chdynamic.o)
 .debug_loc     0x00000e5e       0xdc G:/WorK/github/synesthesia_moksha/wxp/dgn/sw/limbus_bsp/\libchibios_v246_bsp.a(chheap.o)
 .debug_loc     0x00000f3a       0xb0 G:/WorK/github/synesthesia_moksha/wxp/dgn/sw/limbus_bsp/\libchibios_v246_bsp.a(chmemcore.o)
 .debug_loc     0x00000fea       0xdc G:/WorK/github/synesthesia_moksha/wxp/dgn/sw/limbus_bsp/\libchibios_v246_bsp.a(chmempools.o)
 .debug_loc     0x000010c6      0x1e4 G:/WorK/github/synesthesia_moksha/wxp/dgn/sw/limbus_bsp/\libchibios_v246_bsp.a(chmtx.o)
 .debug_loc     0x000012aa      0x1e4 G:/WorK/github/synesthesia_moksha/wxp/dgn/sw/limbus_bsp/\libchibios_v246_bsp.a(chschd.o)
 .debug_loc     0x0000148e       0x84 G:/WorK/github/synesthesia_moksha/wxp/dgn/sw/limbus_bsp/\libchibios_v246_bsp.a(chsys.o)
 .debug_loc     0x00001512       0x2c G:/WorK/github/synesthesia_moksha/wxp/dgn/sw/limbus_bsp/\libchibios_v246_bsp.a(alt_alarm_start.o)
 .debug_loc     0x0000153e       0x58 G:/WorK/github/synesthesia_moksha/wxp/dgn/sw/limbus_bsp/\libchibios_v246_bsp.a(alt_close.o)
 .debug_loc     0x00001596       0x2c G:/WorK/github/synesthesia_moksha/wxp/dgn/sw/limbus_bsp/\libchibios_v246_bsp.a(alt_dcache_flush_all.o)
 .debug_loc     0x000015c2       0x2c G:/WorK/github/synesthesia_moksha/wxp/dgn/sw/limbus_bsp/\libchibios_v246_bsp.a(alt_dev.o)
 .debug_loc     0x000015ee       0x58 G:/WorK/github/synesthesia_moksha/wxp/dgn/sw/limbus_bsp/\libchibios_v246_bsp.a(alt_dev_llist_insert.o)
 .debug_loc     0x00001646       0x2c G:/WorK/github/synesthesia_moksha/wxp/dgn/sw/limbus_bsp/\libchibios_v246_bsp.a(alt_do_ctors.o)
 .debug_loc     0x00001672       0x2c G:/WorK/github/synesthesia_moksha/wxp/dgn/sw/limbus_bsp/\libchibios_v246_bsp.a(alt_do_dtors.o)
 .debug_loc     0x0000169e       0x2c G:/WorK/github/synesthesia_moksha/wxp/dgn/sw/limbus_bsp/\libchibios_v246_bsp.a(alt_icache_flush_all.o)
 .debug_loc     0x000016ca       0xb0 G:/WorK/github/synesthesia_moksha/wxp/dgn/sw/limbus_bsp/\libchibios_v246_bsp.a(alt_iic.o)
 .debug_loc     0x0000177a       0x2c G:/WorK/github/synesthesia_moksha/wxp/dgn/sw/limbus_bsp/\libchibios_v246_bsp.a(alt_iic_isr_register.o)
 .debug_loc     0x000017a6       0x58 G:/WorK/github/synesthesia_moksha/wxp/dgn/sw/limbus_bsp/\libchibios_v246_bsp.a(alt_io_redirect.o)
 .debug_loc     0x000017fe       0x2c G:/WorK/github/synesthesia_moksha/wxp/dgn/sw/limbus_bsp/\libchibios_v246_bsp.a(alt_irq_handler.o)
 .debug_loc     0x0000182a       0x84 G:/WorK/github/synesthesia_moksha/wxp/dgn/sw/limbus_bsp/\libchibios_v246_bsp.a(alt_open.o)
 .debug_loc     0x000018ae       0x2c G:/WorK/github/synesthesia_moksha/wxp/dgn/sw/limbus_bsp/\libchibios_v246_bsp.a(alt_release_fd.o)
 .debug_loc     0x000018da       0x58 G:/WorK/github/synesthesia_moksha/wxp/dgn/sw/limbus_bsp/\libchibios_v246_bsp.a(alt_tick.o)
 .debug_loc     0x00001932       0x2c G:/WorK/github/synesthesia_moksha/wxp/dgn/sw/limbus_bsp/\libchibios_v246_bsp.a(altera_nios2_qsys_irq.o)
 .debug_loc     0x0000195e       0x58 G:/WorK/github/synesthesia_moksha/wxp/dgn/sw/limbus_bsp/\libchibios_v246_bsp.a(chregistry.o)
 .debug_loc     0x000019b6       0x58 G:/WorK/github/synesthesia_moksha/wxp/dgn/sw/limbus_bsp/\libchibios_v246_bsp.a(chcore.o)
 .debug_loc     0x00001a0e       0x2c G:/WorK/github/synesthesia_moksha/wxp/dgn/sw/limbus_bsp/\libchibios_v246_bsp.a(alt_find_dev.o)
 .debug_loc     0x00001a3a       0x2c G:/WorK/github/synesthesia_moksha/wxp/dgn/sw/limbus_bsp/\libchibios_v246_bsp.a(alt_find_file.o)
 .debug_loc     0x00001a66       0x2c G:/WorK/github/synesthesia_moksha/wxp/dgn/sw/limbus_bsp/\libchibios_v246_bsp.a(alt_get_fd.o)
 .debug_loc     0x00001a92       0x2c c:/altera/13.1/nios2eds/bin/gnu/h-i686-mingw32/bin/../lib/gcc/nios2-elf/4.7.3/../../../../../H-i686-mingw32/nios2-elf/lib/mno-hw-mul\libc.a(lib_a-atexit.o)
 .debug_loc     0x00001abe       0x3e c:/altera/13.1/nios2eds/bin/gnu/h-i686-mingw32/bin/../lib/gcc/nios2-elf/4.7.3/../../../../../H-i686-mingw32/nios2-elf/lib/mno-hw-mul\libc.a(lib_a-exit.o)
 .debug_loc     0x00001afc       0xf1 c:/altera/13.1/nios2eds/bin/gnu/h-i686-mingw32/bin/../lib/gcc/nios2-elf/4.7.3/../../../../../H-i686-mingw32/nios2-elf/lib/mno-hw-mul\libc.a(lib_a-fputs.o)
 .debug_loc     0x00001bed      0x50c c:/altera/13.1/nios2eds/bin/gnu/h-i686-mingw32/bin/../lib/gcc/nios2-elf/4.7.3/../../../../../H-i686-mingw32/nios2-elf/lib/mno-hw-mul\libc.a(lib_a-fvwrite.o)
 .debug_loc     0x000020f9      0xb50 c:/altera/13.1/nios2eds/bin/gnu/h-i686-mingw32/bin/../lib/gcc/nios2-elf/4.7.3/../../../../../H-i686-mingw32/nios2-elf/lib/mno-hw-mul\libc.a(lib_a-mallocr.o)
 .debug_loc     0x00002c49      0x239 c:/altera/13.1/nios2eds/bin/gnu/h-i686-mingw32/bin/../lib/gcc/nios2-elf/4.7.3/../../../../../H-i686-mingw32/nios2-elf/lib/mno-hw-mul\libc.a(lib_a-memchr.o)
 .debug_loc     0x00002e82      0x103 c:/altera/13.1/nios2eds/bin/gnu/h-i686-mingw32/bin/../lib/gcc/nios2-elf/4.7.3/../../../../../H-i686-mingw32/nios2-elf/lib/mno-hw-mul\libc.a(lib_a-memcmp.o)
 .debug_loc     0x00002f85      0x29c c:/altera/13.1/nios2eds/bin/gnu/h-i686-mingw32/bin/../lib/gcc/nios2-elf/4.7.3/../../../../../H-i686-mingw32/nios2-elf/lib/mno-hw-mul\libc.a(lib_a-memcpy.o)
 .debug_loc     0x00003221      0x301 c:/altera/13.1/nios2eds/bin/gnu/h-i686-mingw32/bin/../lib/gcc/nios2-elf/4.7.3/../../../../../H-i686-mingw32/nios2-elf/lib/mno-hw-mul\libc.a(lib_a-memmove.o)
 .debug_loc     0x00003522      0x257 c:/altera/13.1/nios2eds/bin/gnu/h-i686-mingw32/bin/../lib/gcc/nios2-elf/4.7.3/../../../../../H-i686-mingw32/nios2-elf/lib/mno-hw-mul\libc.a(lib_a-putc.o)
 .debug_loc     0x00003779     0x1136 c:/altera/13.1/nios2eds/bin/gnu/h-i686-mingw32/bin/../lib/gcc/nios2-elf/4.7.3/../../../../../H-i686-mingw32/nios2-elf/lib/mno-hw-mul\libc.a(lib_a-reallocr.o)
 .debug_loc     0x000048af       0x86 c:/altera/13.1/nios2eds/bin/gnu/h-i686-mingw32/bin/../lib/gcc/nios2-elf/4.7.3/../../../../../H-i686-mingw32/nios2-elf/lib/mno-hw-mul\libc.a(lib_a-sbrkr.o)
 .debug_loc     0x00004935       0x52 c:/altera/13.1/nios2eds/bin/gnu/h-i686-mingw32/bin/../lib/gcc/nios2-elf/4.7.3/../../../../../H-i686-mingw32/nios2-elf/lib/mno-hw-mul\libc.a(lib_a-strlen.o)
 .debug_loc     0x00004987      0x193 c:/altera/13.1/nios2eds/bin/gnu/h-i686-mingw32/bin/../lib/gcc/nios2-elf/4.7.3/../../../../../H-i686-mingw32/nios2-elf/lib/mno-hw-mul\libc.a(lib_a-wbuf.o)
 .debug_loc     0x00004b1a       0xba c:/altera/13.1/nios2eds/bin/gnu/h-i686-mingw32/bin/../lib/gcc/nios2-elf/4.7.3/../../../../../H-i686-mingw32/nios2-elf/lib/mno-hw-mul\libc.a(lib_a-wsetup.o)
 .debug_loc     0x00004bd4      0x194 c:/altera/13.1/nios2eds/bin/gnu/h-i686-mingw32/bin/../lib/gcc/nios2-elf/4.7.3/../../../../../H-i686-mingw32/nios2-elf/lib/mno-hw-mul\libc.a(lib_a-__atexit.o)
 .debug_loc     0x00004d68      0x1e1 c:/altera/13.1/nios2eds/bin/gnu/h-i686-mingw32/bin/../lib/gcc/nios2-elf/4.7.3/../../../../../H-i686-mingw32/nios2-elf/lib/mno-hw-mul\libc.a(lib_a-__call_atexit.o)
 .debug_loc     0x00004f49      0x259 c:/altera/13.1/nios2eds/bin/gnu/h-i686-mingw32/bin/../lib/gcc/nios2-elf/4.7.3/../../../../../H-i686-mingw32/nios2-elf/lib/mno-hw-mul\libc.a(lib_a-fflush.o)
 .debug_loc     0x000051a2      0x2a7 c:/altera/13.1/nios2eds/bin/gnu/h-i686-mingw32/bin/../lib/gcc/nios2-elf/4.7.3/../../../../../H-i686-mingw32/nios2-elf/lib/mno-hw-mul\libc.a(lib_a-findfp.o)
 .debug_loc     0x00005449      0x668 c:/altera/13.1/nios2eds/bin/gnu/h-i686-mingw32/bin/../lib/gcc/nios2-elf/4.7.3/../../../../../H-i686-mingw32/nios2-elf/lib/mno-hw-mul\libc.a(lib_a-freer.o)
 .debug_loc     0x00005ab1      0x2ae c:/altera/13.1/nios2eds/bin/gnu/h-i686-mingw32/bin/../lib/gcc/nios2-elf/4.7.3/../../../../../H-i686-mingw32/nios2-elf/lib/mno-hw-mul\libc.a(lib_a-fwalk.o)
 .debug_loc     0x00005d5f      0x16a c:/altera/13.1/nios2eds/bin/gnu/h-i686-mingw32/bin/../lib/gcc/nios2-elf/4.7.3/../../../../../H-i686-mingw32/nios2-elf/lib/mno-hw-mul\libc.a(lib_a-makebuf.o)
 .debug_loc     0x00005ec9      0x1b7 c:/altera/13.1/nios2eds/bin/gnu/h-i686-mingw32/bin/../lib/gcc/nios2-elf/4.7.3/../../../../../H-i686-mingw32/nios2-elf/lib/mno-hw-mul\libc.a(lib_a-memset.o)
 .debug_loc     0x00006080      0x379 c:/altera/13.1/nios2eds/bin/gnu/h-i686-mingw32/bin/../lib/gcc/nios2-elf/4.7.3/../../../../../H-i686-mingw32/nios2-elf/lib/mno-hw-mul\libc.a(lib_a-stdio.o)
 .debug_loc     0x000063f9       0xde c:/altera/13.1/nios2eds/bin/gnu/h-i686-mingw32/bin/../lib/gcc/nios2-elf/4.7.3/../../../../../H-i686-mingw32/nios2-elf/lib/mno-hw-mul\libc.a(lib_a-writer.o)
 .debug_loc     0x000064d7       0x86 c:/altera/13.1/nios2eds/bin/gnu/h-i686-mingw32/bin/../lib/gcc/nios2-elf/4.7.3/../../../../../H-i686-mingw32/nios2-elf/lib/mno-hw-mul\libc.a(lib_a-closer.o)
 .debug_loc     0x0000655d      0x136 c:/altera/13.1/nios2eds/bin/gnu/h-i686-mingw32/bin/../lib/gcc/nios2-elf/4.7.3/../../../../../H-i686-mingw32/nios2-elf/lib/mno-hw-mul\libc.a(lib_a-fclose.o)
 .debug_loc     0x00006693       0xb2 c:/altera/13.1/nios2eds/bin/gnu/h-i686-mingw32/bin/../lib/gcc/nios2-elf/4.7.3/../../../../../H-i686-mingw32/nios2-elf/lib/mno-hw-mul\libc.a(lib_a-fstatr.o)
 .debug_loc     0x00006745       0x86 c:/altera/13.1/nios2eds/bin/gnu/h-i686-mingw32/bin/../lib/gcc/nios2-elf/4.7.3/../../../../../H-i686-mingw32/nios2-elf/lib/mno-hw-mul\libc.a(lib_a-isattyr.o)
 .debug_loc     0x000067cb       0xde c:/altera/13.1/nios2eds/bin/gnu/h-i686-mingw32/bin/../lib/gcc/nios2-elf/4.7.3/../../../../../H-i686-mingw32/nios2-elf/lib/mno-hw-mul\libc.a(lib_a-lseekr.o)
 .debug_loc     0x000068a9       0xde c:/altera/13.1/nios2eds/bin/gnu/h-i686-mingw32/bin/../lib/gcc/nios2-elf/4.7.3/../../../../../H-i686-mingw32/nios2-elf/lib/mno-hw-mul\libc.a(lib_a-readr.o)
 .debug_loc     0x00006987       0x2c G:/WorK/github/synesthesia_moksha/wxp/dgn/sw/limbus_bsp/\libchibios_v246_bsp.a(alt_exit.o)
 .debug_loc     0x000069b3       0x58 G:/WorK/github/synesthesia_moksha/wxp/dgn/sw/limbus_bsp/\libchibios_v246_bsp.a(alt_fstat.o)
 .debug_loc     0x00006a0b       0x59 G:/WorK/github/synesthesia_moksha/wxp/dgn/sw/limbus_bsp/\libchibios_v246_bsp.a(alt_isatty.o)
 .debug_loc     0x00006a64       0x58 G:/WorK/github/synesthesia_moksha/wxp/dgn/sw/limbus_bsp/\libchibios_v246_bsp.a(alt_lseek.o)
 .debug_loc     0x00006abc       0x58 G:/WorK/github/synesthesia_moksha/wxp/dgn/sw/limbus_bsp/\libchibios_v246_bsp.a(alt_malloc_lock.o)
 .debug_loc     0x00006b14       0x58 G:/WorK/github/synesthesia_moksha/wxp/dgn/sw/limbus_bsp/\libchibios_v246_bsp.a(alt_read.o)
 .debug_loc     0x00006b6c       0x2c G:/WorK/github/synesthesia_moksha/wxp/dgn/sw/limbus_bsp/\libchibios_v246_bsp.a(alt_sbrk.o)
 .debug_loc     0x00006b98       0x58 G:/WorK/github/synesthesia_moksha/wxp/dgn/sw/limbus_bsp/\libchibios_v246_bsp.a(alt_write.o)

.debug_macinfo
 *(.debug_macinfo)

.debug_weaknames
 *(.debug_weaknames)

.debug_funcnames
 *(.debug_funcnames)

.debug_typenames
 *(.debug_typenames)

.debug_varnames
 *(.debug_varnames)

.debug_alt_sim_info
                0x00000000       0x10
 *(.debug_alt_sim_info)
 .debug_alt_sim_info
                0x00000000       0x10 G:/WorK/github/synesthesia_moksha/wxp/dgn/sw/limbus_bsp//obj/HAL/src/crt0.o
                0x00200000                __alt_data_end = 0x200000
                0x00200000                PROVIDE (__alt_stack_pointer, __alt_data_end)
                0x0018ca94                PROVIDE (__alt_stack_limit, __alt_stack_base)
                0x0018ca94                PROVIDE (__alt_heap_start, end)
                0x00200000                PROVIDE (__alt_heap_limit, 0x200000)
OUTPUT(ledos_main.elf elf32-littlenios2)

.debug_ranges   0x00000000      0x3a8
 .debug_ranges  0x00000000       0x20 G:/WorK/github/synesthesia_moksha/wxp/dgn/sw/limbus_bsp//obj/HAL/src/crt0.o
 .debug_ranges  0x00000020       0x10 obj/default/hello_world_small.o
 .debug_ranges  0x00000030       0x30 G:/WorK/github/synesthesia_moksha/wxp/dgn/sw/limbus_bsp/\libchibios_v246_bsp.a(altera_avalon_jtag_uart_init.o)
 .debug_ranges  0x00000060       0x18 G:/WorK/github/synesthesia_moksha/wxp/dgn/sw/limbus_bsp/\libchibios_v246_bsp.a(altera_avalon_jtag_uart_read.o)
 .debug_ranges  0x00000078       0x30 G:/WorK/github/synesthesia_moksha/wxp/dgn/sw/limbus_bsp/\libchibios_v246_bsp.a(alt_iic.o)
 .debug_ranges  0x000000a8       0x28 G:/WorK/github/synesthesia_moksha/wxp/dgn/sw/limbus_bsp/\libchibios_v246_bsp.a(alt_irq_entry.o)
 .debug_ranges  0x000000d0       0x10 G:/WorK/github/synesthesia_moksha/wxp/dgn/sw/limbus_bsp/\libchibios_v246_bsp.a(alt_irq_handler.o)
 .debug_ranges  0x000000e0       0x30 G:/WorK/github/synesthesia_moksha/wxp/dgn/sw/limbus_bsp/\libchibios_v246_bsp.a(alt_exception_entry.o)
 .debug_ranges  0x00000110       0x18 c:/altera/13.1/nios2eds/bin/gnu/h-i686-mingw32/bin/../lib/gcc/nios2-elf/4.7.3/../../../../../H-i686-mingw32/nios2-elf/lib/mno-hw-mul\libc.a(lib_a-fvwrite.o)
 .debug_ranges  0x00000128       0x70 c:/altera/13.1/nios2eds/bin/gnu/h-i686-mingw32/bin/../lib/gcc/nios2-elf/4.7.3/../../../../../H-i686-mingw32/nios2-elf/lib/mno-hw-mul\libc.a(lib_a-mallocr.o)
 .debug_ranges  0x00000198      0x158 c:/altera/13.1/nios2eds/bin/gnu/h-i686-mingw32/bin/../lib/gcc/nios2-elf/4.7.3/../../../../../H-i686-mingw32/nios2-elf/lib/mno-hw-mul\libc.a(lib_a-reallocr.o)
 .debug_ranges  0x000002f0       0x18 c:/altera/13.1/nios2eds/bin/gnu/h-i686-mingw32/bin/../lib/gcc/nios2-elf/4.7.3/../../../../../H-i686-mingw32/nios2-elf/lib/mno-hw-mul\libc.a(lib_a-__call_atexit.o)
 .debug_ranges  0x00000308       0x20 c:/altera/13.1/nios2eds/bin/gnu/h-i686-mingw32/bin/../lib/gcc/nios2-elf/4.7.3/../../../../../H-i686-mingw32/nios2-elf/lib/mno-hw-mul\libc.a(lib_a-fflush.o)
 .debug_ranges  0x00000328       0x80 c:/altera/13.1/nios2eds/bin/gnu/h-i686-mingw32/bin/../lib/gcc/nios2-elf/4.7.3/../../../../../H-i686-mingw32/nios2-elf/lib/mno-hw-mul\libc.a(lib_a-fwalk.o)
