
ledos_main.elf:     file format elf32-littlenios2
ledos_main.elf
architecture: nios2, flags 0x00000112:
EXEC_P, HAS_SYMS, D_PAGED
start address 0x001801c4

Program Header:
    LOAD off    0x00001000 vaddr 0x00180000 paddr 0x00180000 align 2**12
         filesz 0x00000020 memsz 0x00000020 flags r-x
    LOAD off    0x00001020 vaddr 0x00180020 paddr 0x00180020 align 2**12
         filesz 0x00008f0c memsz 0x00008f0c flags r-x
    LOAD off    0x00009f2c vaddr 0x00188f2c paddr 0x0018aa38 align 2**12
         filesz 0x00001b0c memsz 0x00001b0c flags rw-
    LOAD off    0x0000c544 vaddr 0x0018c544 paddr 0x0018c544 align 2**12
         filesz 0x00000000 memsz 0x00000550 flags rw-

Sections:
Idx Name          Size      VMA       LMA       File off  Algn
  0 .entry        00000020  00180000  00180000  00001000  2**5
                  CONTENTS, ALLOC, LOAD, READONLY, CODE
  1 .exceptions   000001a4  00180020  00180020  00001020  2**2
                  CONTENTS, ALLOC, LOAD, READONLY, CODE
  2 .text         00008cac  001801c4  001801c4  000011c4  2**2
                  CONTENTS, ALLOC, LOAD, READONLY, CODE
  3 .rodata       000000bc  00188e70  00188e70  00009e70  2**2
                  CONTENTS, ALLOC, LOAD, READONLY, DATA
  4 .rwdata       00001b0c  00188f2c  0018aa38  00009f2c  2**2
                  CONTENTS, ALLOC, LOAD, DATA, SMALL_DATA
  5 .bss          00000550  0018c544  0018c544  0000c544  2**2
                  ALLOC, SMALL_DATA
  6 .comment      00000023  00000000  00000000  0000ba38  2**0
                  CONTENTS, READONLY
  7 .debug_aranges 00000c70  00000000  00000000  0000ba60  2**3
                  CONTENTS, READONLY, DEBUGGING
  8 .debug_info   0001f9ef  00000000  00000000  0000c6d0  2**0
                  CONTENTS, READONLY, DEBUGGING
  9 .debug_abbrev 00007fac  00000000  00000000  0002c0bf  2**0
                  CONTENTS, READONLY, DEBUGGING
 10 .debug_line   000096d6  00000000  00000000  0003406b  2**0
                  CONTENTS, READONLY, DEBUGGING
 11 .debug_frame  00001bc8  00000000  00000000  0003d744  2**2
                  CONTENTS, READONLY, DEBUGGING
 12 .debug_str    000030a7  00000000  00000000  0003f30c  2**0
                  CONTENTS, READONLY, DEBUGGING
 13 .debug_loc    00006bf0  00000000  00000000  000423b3  2**0
                  CONTENTS, READONLY, DEBUGGING
 14 .debug_alt_sim_info 00000010  00000000  00000000  00048fa4  2**2
                  CONTENTS, READONLY, DEBUGGING
 15 .debug_ranges 000003a8  00000000  00000000  00048fb8  2**3
                  CONTENTS, READONLY, DEBUGGING
 16 .thread_model 0000000c  00000000  00000000  0004c88a  2**0
                  CONTENTS, READONLY
 17 .cpu          00000003  00000000  00000000  0004c896  2**0
                  CONTENTS, READONLY
 18 .qsys         00000001  00000000  00000000  0004c899  2**0
                  CONTENTS, READONLY
 19 .simulation_enabled 00000001  00000000  00000000  0004c89a  2**0
                  CONTENTS, READONLY
 20 .sysid_hash   00000004  00000000  00000000  0004c89b  2**0
                  CONTENTS, READONLY
 21 .sysid_base   00000004  00000000  00000000  0004c89f  2**0
                  CONTENTS, READONLY
 22 .sysid_time   00000004  00000000  00000000  0004c8a3  2**0
                  CONTENTS, READONLY
 23 .stderr_dev   00000009  00000000  00000000  0004c8a7  2**0
                  CONTENTS, READONLY
 24 .stdin_dev    00000009  00000000  00000000  0004c8b0  2**0
                  CONTENTS, READONLY
 25 .stdout_dev   00000009  00000000  00000000  0004c8b9  2**0
                  CONTENTS, READONLY
 26 .sopc_system_name 00000006  00000000  00000000  0004c8c2  2**0
                  CONTENTS, READONLY
 27 .quartus_project_dir 0000002d  00000000  00000000  0004c8c8  2**0
                  CONTENTS, READONLY
 28 .jdi          00004791  00000000  00000000  0004c8f5  2**0
                  CONTENTS, READONLY
 29 .sopcinfo     00048fce  00000000  00000000  00051086  2**0
                  CONTENTS, READONLY
SYMBOL TABLE:
00180000 l    d  .entry	00000000 .entry
00180020 l    d  .exceptions	00000000 .exceptions
001801c4 l    d  .text	00000000 .text
00188e70 l    d  .rodata	00000000 .rodata
00188f2c l    d  .rwdata	00000000 .rwdata
0018c544 l    d  .bss	00000000 .bss
00000000 l    d  .comment	00000000 .comment
00000000 l    d  .debug_aranges	00000000 .debug_aranges
00000000 l    d  .debug_info	00000000 .debug_info
00000000 l    d  .debug_abbrev	00000000 .debug_abbrev
00000000 l    d  .debug_line	00000000 .debug_line
00000000 l    d  .debug_frame	00000000 .debug_frame
00000000 l    d  .debug_str	00000000 .debug_str
00000000 l    d  .debug_loc	00000000 .debug_loc
00000000 l    d  .debug_alt_sim_info	00000000 .debug_alt_sim_info
00000000 l    d  .debug_ranges	00000000 .debug_ranges
00000000 l    df *ABS*	00000000 G:/WorK/github/synesthesia_moksha/wxp/dgn/sw/limbus_bsp//obj/HAL/src/crt0.o
001801fc l       .text	00000000 alt_after_alt_main
00000000 l    df *ABS*	00000000 alt_exception_entry.o
00180094 l       .exceptions	00000000 alt_exception_unknown
00000000 l    df *ABS*	00000000 alt_irq_handler.c
00000000 l    df *ABS*	00000000 hello_world_small.c
00000000 l    df *ABS*	00000000 aud_codec.c
00000000 l    df *ABS*	00000000 i2c.c
00000000 l    df *ABS*	00000000 pcm_bffr.c
00000000 l    df *ABS*	00000000 ssm2603_drvr.c
00000000 l    df *ABS*	00000000 lib2-mul.c
00000000 l    df *ABS*	00000000 chthreads.c
00180618 l     F .text	00000040 list_insert
00180658 l     F .text	00000040 list_remove
00000000 l    df *ABS*	00000000 chvt.c
00000000 l    df *ABS*	00000000 chcoreasm.o
0018109c l       .text	00000000 _port_thread_start_loop
00000000 l    df *ABS*	00000000 alt_load.c
00181118 l     F .text	0000006c alt_load_section
00000000 l    df *ABS*	00000000 alt_main.c
00000000 l    df *ABS*	00000000 alt_printf.c
00000000 l    df *ABS*	00000000 alt_putchar.c
00000000 l    df *ABS*	00000000 alt_putstr.c
00000000 l    df *ABS*	00000000 alt_sys_init.c
00181560 l     F .text	00000038 alt_dev_reg
00188f2c l     O .rwdata	00001060 jtag_uart
00189f8c l     O .rwdata	000000c4 uart_0
00000000 l    df *ABS*	00000000 altera_avalon_jtag_uart_fd.c
00000000 l    df *ABS*	00000000 altera_avalon_jtag_uart_init.c
00181870 l     F .text	00000204 altera_avalon_jtag_uart_irq
00181a74 l     F .text	000000a4 altera_avalon_jtag_uart_timeout
00000000 l    df *ABS*	00000000 altera_avalon_jtag_uart_ioctl.c
00000000 l    df *ABS*	00000000 altera_avalon_jtag_uart_read.c
00000000 l    df *ABS*	00000000 altera_avalon_jtag_uart_write.c
00000000 l    df *ABS*	00000000 altera_avalon_timer_sc.c
001820b0 l     F .text	00000074 alt_avalon_timer_sc_irq
00000000 l    df *ABS*	00000000 altera_avalon_uart_fd.c
00000000 l    df *ABS*	00000000 altera_avalon_uart_init.c
00182364 l     F .text	00000098 altera_avalon_uart_irq
001823fc l     F .text	000000d8 altera_avalon_uart_rxirq
001824d4 l     F .text	0000013c altera_avalon_uart_txirq
00000000 l    df *ABS*	00000000 altera_avalon_uart_read.c
00182664 l     F .text	00000050 alt_get_errno
00000000 l    df *ABS*	00000000 altera_avalon_uart_write.c
001828b8 l     F .text	00000050 alt_get_errno
00000000 l    df *ABS*	00000000 chdynamic.c
00000000 l    df *ABS*	00000000 chheap.c
0018c578 l     O .bss	0000001c default_heap
00000000 l    df *ABS*	00000000 chmemcore.c
0018c554 l     O .bss	00000004 nextmem
0018c558 l     O .bss	00000004 endmem
00000000 l    df *ABS*	00000000 chmempools.c
00000000 l    df *ABS*	00000000 chmtx.c
001835c0 l     F .text	00000094 prio_insert
00183654 l     F .text	00000050 fifo_remove
001836a4 l     F .text	0000004c dequeue
00000000 l    df *ABS*	00000000 chschd.c
00183d2c l     F .text	00000050 fifo_remove
00183d7c l     F .text	0000004c dequeue
00183f88 l     F .text	000000a0 wakeup
00000000 l    df *ABS*	00000000 chsys.c
0018c594 l     O .bss	00000050 mainthread.2342
00000000 l    df *ABS*	00000000 alt_alarm_start.c
00000000 l    df *ABS*	00000000 alt_close.c
00184608 l     F .text	00000050 alt_get_errno
00000000 l    df *ABS*	00000000 alt_dcache_flush_all.c
00000000 l    df *ABS*	00000000 alt_dev.c
00184740 l     F .text	0000002c alt_dev_null_write
00000000 l    df *ABS*	00000000 alt_dev_llist_insert.c
0018476c l     F .text	00000050 alt_get_errno
00000000 l    df *ABS*	00000000 alt_do_ctors.c
00000000 l    df *ABS*	00000000 alt_do_dtors.c
00000000 l    df *ABS*	00000000 alt_errno.c
00000000 l    df *ABS*	00000000 alt_icache_flush_all.c
00000000 l    df *ABS*	00000000 alt_iic.c
00000000 l    df *ABS*	00000000 alt_iic_isr_register.c
00000000 l    df *ABS*	00000000 alt_io_redirect.c
00184bf8 l     F .text	000000e0 alt_open_fd
00000000 l    df *ABS*	00000000 alt_irq_vars.c
00000000 l    df *ABS*	00000000 alt_open.c
00184d50 l     F .text	00000050 alt_get_errno
00184da0 l     F .text	000000f0 alt_file_locked
00000000 l    df *ABS*	00000000 alt_release_fd.c
00000000 l    df *ABS*	00000000 alt_tick.c
00000000 l    df *ABS*	00000000 altera_nios2_qsys_irq.c
00000000 l    df *ABS*	00000000 chregistry.c
00000000 l    df *ABS*	00000000 chcore.c
00000000 l    df *ABS*	00000000 alt_find_dev.c
00000000 l    df *ABS*	00000000 alt_find_file.c
00000000 l    df *ABS*	00000000 alt_get_fd.c
00000000 l    df *ABS*	00000000 atexit.c
00000000 l    df *ABS*	00000000 exit.c
00000000 l    df *ABS*	00000000 fputs.c
00000000 l    df *ABS*	00000000 fvwrite.c
00000000 l    df *ABS*	00000000 impure.c
0018a1f8 l     O .rwdata	00000400 impure_data
00000000 l    df *ABS*	00000000 int_errno.c
00000000 l    df *ABS*	00000000 mallocr.c
00000000 l    df *ABS*	00000000 memchr.c
00000000 l    df *ABS*	00000000 memcmp.c
00000000 l    df *ABS*	00000000 memcpy.c
00000000 l    df *ABS*	00000000 memmove.c
00000000 l    df *ABS*	00000000 putc.c
00000000 l    df *ABS*	00000000 mallocr.c
00000000 l    df *ABS*	00000000 sbrkr.c
00000000 l    df *ABS*	00000000 strlen.c
00000000 l    df *ABS*	00000000 wbuf.c
00000000 l    df *ABS*	00000000 wsetup.c
00000000 l    df *ABS*	00000000 __atexit.c
00000000 l    df *ABS*	00000000 __call_atexit.c
00000000 l    df *ABS*	00000000 fflush.c
00000000 l    df *ABS*	00000000 findfp.c
001877c4 l     F .text	00000008 __fp_lock
001877cc l     F .text	00000008 __fp_unlock
00000000 l    df *ABS*	00000000 mallocr.c
00000000 l    df *ABS*	00000000 fwalk.c
00000000 l    df *ABS*	00000000 makebuf.c
00000000 l    df *ABS*	00000000 memset.c
00000000 l    df *ABS*	00000000 stdio.c
00000000 l    df *ABS*	00000000 writer.c
00000000 l    df *ABS*	00000000 closer.c
00000000 l    df *ABS*	00000000 fclose.c
00000000 l    df *ABS*	00000000 fstatr.c
00000000 l    df *ABS*	00000000 isattyr.c
00000000 l    df *ABS*	00000000 lseekr.c
00000000 l    df *ABS*	00000000 readr.c
00000000 l    df *ABS*	00000000 alt_exit.c
00000000 l    df *ABS*	00000000 alt_fstat.c
001887e4 l     F .text	00000050 alt_get_errno
00000000 l    df *ABS*	00000000 alt_isatty.c
001888e4 l     F .text	00000050 alt_get_errno
00000000 l    df *ABS*	00000000 alt_lseek.c
001889d8 l     F .text	00000050 alt_get_errno
00000000 l    df *ABS*	00000000 alt_malloc_lock.c
00000000 l    df *ABS*	00000000 alt_read.c
00188b3c l     F .text	00000050 alt_get_errno
00000000 l    df *ABS*	00000000 alt_sbrk.c
0018aa34 l     O .rwdata	00000004 heap_end
00000000 l    df *ABS*	00000000 alt_write.c
00188d30 l     F .text	00000050 alt_get_errno
00000000 l    df *ABS*	00000000 
001833cc g     F .text	0000005c chPoolInit
00180290 g     F .text	0000007c aud_codec_read_reg
00188668 g     F .text	00000064 _isatty_r
00181204 g     F .text	00000090 alt_main
001805b4 g     F .text	00000024 configure_drvr_bps
001843a4 g     F .text	00000124 chSysTimerHandlerI
00180c64 g     F .text	00000048 chThdExit
00184028 g     F .text	0000009c chSchGoSleepTimeoutS
0018c804 g     O .bss	00000100 alt_irq
001886cc g     F .text	0000006c _lseek_r
0018aa38 g       *ABS*	00000000 __flash_rwdata_start
00180360 g     F .text	0000000c get_i2c_addr
0018378c g     F .text	0000015c chMtxLockS
00182cf4 g     F .text	000000c8 chThdCreateFromMemoryPool
0018055c g     F .text	00000018 disable_dac_drvr
0018ca94 g       *ABS*	00000000 __alt_heap_start
00183948 g     F .text	00000078 chMtxTryLockS
00183044 g     F .text	00000180 chHeapFree
0018837c g     F .text	0000005c __sseek
00187868 g     F .text	0000010c __sinit
00187010 g     F .text	0000013c __swbuf_r
0018c544 g     O .bss	00000002 aud_codec_i2c_bffr
001877e0 g     F .text	00000078 __sfmoreglue
00188b1c g     F .text	00000020 __malloc_unlock
001865ec g     F .text	0000018c memmove
00187858 g     F .text	00000010 _cleanup
0018151c g     F .text	00000044 alt_putstr
00183eec g     F .text	0000009c chSchGoSleepS
00000000  w      *UND*	00000000 __errno
00180000 g     F .entry	0000000c __reset
00180020 g       *ABS*	00000000 __flash_exceptions_start
00188600 g     F .text	00000068 _fstat_r
0018c568 g     O .bss	00000004 errno
00180794 g     F .text	00000168 chThdCreateI
0018c54c g     O .bss	00000004 alt_argv
00192a00 g       *ABS*	00000000 _gp
001840c4 g     F .text	000000b0 chSchWakeupS
00183dc8 g     F .text	00000090 _scheduler_init
00184174 g     F .text	0000004c chSchRescheduleS
001808fc g     F .text	0000008c chThdCreateStatic
0018a078 g     O .rwdata	00000180 alt_fd_list
00180428 g     F .text	000000e4 i2c_xtn_read
0018537c g     F .text	00000090 alt_find_dev
001864ac g     F .text	00000140 memcpy
001877d4 g     F .text	0000000c _cleanup_r
00180350 g     F .text	00000010 configure_i2c_addr
00184cd8 g     F .text	00000078 alt_io_redirect
0018050c g     F .text	00000010 update_acache_mode
00188e70 g       *ABS*	00000000 __DTOR_END__
00180574 g     F .text	00000014 enable_dac_drvr
00183e58 g     F .text	00000094 chSchReadyI
0018532c  w    F .text	00000028 port_halt
00180e08 g     F .text	00000064 _vt_init
0018332c g     F .text	00000074 chCoreAllocI
00181c74 g     F .text	00000218 altera_avalon_jtag_uart_read
00000000  w      *UND*	00000000 malloc
00188934 g     F .text	000000a4 isatty
00182dbc g     F .text	0000005c _heap_init
0018051c g     F .text	00000040 dump_acache_cap_data
0018c574 g     O .bss	00000004 __malloc_top_pad
0018030c g     F .text	00000028 get_i2c_status
00182c3c g     F .text	000000b8 chThdCreateFromHeap
001856d0 g     F .text	000004e4 __sfvwrite_r
00186f20 g     F .text	00000064 _sbrk_r
00188738 g     F .text	0000006c _read_r
001831c4 g     F .text	000000c0 chHeapStatus
0018aa10 g     O .rwdata	00000004 alt_max_fd
001884b0 g     F .text	0000013c _fclose_r
00187794 g     F .text	00000030 fflush
0018c570 g     O .bss	00000004 __malloc_max_sbrked_mem
00180cac g     F .text	000000b8 chThdExitS
00188a28 g     F .text	000000d4 lseek
0018aa24 g     O .rwdata	00000004 _global_impure_ptr
00186924 g     F .text	000005fc _realloc_r
0018ca94 g       *ABS*	00000000 __bss_end
00184b08 g     F .text	000000f0 alt_iic_isr_register
00185100 g     F .text	00000104 alt_tick
001822bc g     F .text	000000a8 altera_avalon_uart_init
00187a80 g     F .text	00000018 __fp_lock_all
00184abc g     F .text	0000004c alt_ic_irq_enabled
00185068 g     F .text	00000098 alt_alarm_stop
0018c55c g     O .bss	00000004 alt_irq_active
00180e6c g     F .text	0000010c chVTSetI
001800ec g     F .exceptions	000000d8 alt_irq_handler
0018a050 g     O .rwdata	00000028 alt_dev_null
00184724 g     F .text	0000001c alt_dcache_flush_all
0018aa38 g       *ABS*	00000000 __ram_rwdata_end
0018aa08 g     O .rwdata	00000008 alt_dev_list
00188d80 g     F .text	000000f0 write
00186778 g     F .text	000000bc _putc_r
001805e4 g     F .text	0000000c configure_drvr_bclk_div
00188f2c g       *ABS*	00000000 __ram_rodata_end
00188834 g     F .text	000000b0 fstat
00180588 g     F .text	00000018 disable_adc_drvr
00183734 g     F .text	00000058 chMtxLock
001833a0 g     F .text	0000002c chCoreStatus
00184238 g     F .text	00000090 chSchDoReschedule
001842f8 g     F .text	000000ac chSysInit
00180b18 g     F .text	0000005c chThdSleep
0018ca94 g       *ABS*	00000000 end
0018036c g     F .text	000000bc i2c_xtn_write
00181000 g     F .text	0000008c chTimeIsWithin
00182908 g     F .text	000001a8 altera_avalon_uart_write
001817b0 g     F .text	000000c0 altera_avalon_jtag_uart_init
00188e70 g       *ABS*	00000000 __CTOR_LIST__
00200000 g       *ABS*	00000000 __alt_stack_pointer
00182124 g     F .text	00000088 alt_avalon_timer_sc_init
0018220c g     F .text	00000060 altera_avalon_uart_write_fd
0018226c g     F .text	00000050 altera_avalon_uart_close_fd
00181e8c g     F .text	00000224 altera_avalon_jtag_uart_write
00187a70 g     F .text	00000004 __sfp_lock_acquire
00186338 g     F .text	000000f8 memchr
00187bec g     F .text	000002d0 _free_r
00181294 g     F .text	00000244 alt_printf
00183428 g     F .text	00000080 chPoolAllocI
0018740c g     F .text	000001a0 __call_exitprocs
001805d8 g     F .text	0000000c configure_drvr_fs_div
0018aa2c g     O .rwdata	00000004 __malloc_sbrk_base
001801c4 g     F .text	0000003c _start
00183284 g     F .text	00000048 _core_init
00183b0c g     F .text	00000120 chMtxUnlockS
0018c560 g     O .bss	00000004 _alt_tick_rate
00185354 g     F .text	00000028 port_time_tick
00180a58 g     F .text	00000060 chThdResume
001838e8 g     F .text	00000060 chMtxTryLock
0018c564 g     O .bss	00000004 _alt_nticks
00188b8c g     F .text	000000f4 read
001815cc g     F .text	00000080 alt_sys_init
001872dc g     F .text	00000130 __register_exitproc
00183c2c g     F .text	00000100 chMtxUnlockAll
001834a8 g     F .text	00000060 chPoolAlloc
00181b18 g     F .text	00000068 altera_avalon_jtag_uart_close
001805f0 g     F .text	00000028 __mulsi3
00188f2c g       *ABS*	00000000 __ram_rwdata_start
00188e70 g       *ABS*	00000000 __ram_rodata_start
0018c5e4 g     O .bss	00000028 __malloc_current_mallinfo
0018c60c g     O .bss	00000010 vtlist
0018164c g     F .text	00000060 altera_avalon_jtag_uart_read_fd
00185520 g     F .text	000000d4 alt_get_fd
001832cc g     F .text	00000060 chCoreAlloc
0018844c g     F .text	00000064 _close_r
00182ea0 g     F .text	000001a4 chHeapAlloc
00182ab0 g     F .text	00000064 chThdAddRef
00186430 g     F .text	0000007c memcmp
0018170c g     F .text	00000050 altera_avalon_jtag_uart_close_fd
0018ca94 g       *ABS*	00000000 __alt_stack_base
0018175c g     F .text	00000054 altera_avalon_jtag_uart_ioctl_fd
001810a0 g       .text	00000000 port_switch
00187168 g     F .text	00000174 __swsetup_r
00187974 g     F .text	000000fc __sfp
0018a5f8 g     O .rwdata	00000408 __malloc_av_
00187a7c g     F .text	00000004 __sinit_lock_release
001882a0 g     F .text	00000054 __sread
0018540c g     F .text	00000114 alt_find_file
001847bc g     F .text	000000a0 alt_dev_llist_insert
00188afc g     F .text	00000020 __malloc_lock
00188c80 g     F .text	000000b0 sbrk
001875ac g     F .text	000001e8 _fflush_r
0018c544 g       *ABS*	00000000 __bss_start
00180250 g     F .text	00000040 aud_codec_write_reg
00180b74 g     F .text	0000007c chThdSleepUntil
001881c4 g     F .text	000000dc memset
00180200 g     F .text	00000050 main
0018c550 g     O .bss	00000004 alt_envp
0018c56c g     O .bss	00000004 __malloc_max_total_mem
001816ac g     F .text	00000060 altera_avalon_jtag_uart_write_fd
0018c61c g     O .bss	00000020 rlist
00185224 g     F .text	00000070 chRegFirstThread
0018714c g     F .text	0000001c __swbuf
001883d8 g     F .text	00000008 __sclose
00200000 g       *ABS*	00000000 __alt_heap_limit
00180334 g     F .text	00000010 configure_i2c_clk
001885ec g     F .text	00000014 fclose
0018c904 g     O .bss	00000190 _atexit0
00185bb4 g     F .text	00000784 _malloc_r
0018aa14 g     O .rwdata	00000004 alt_errno
00187ebc g     F .text	000000a8 _fwalk
001836f0 g     F .text	00000044 chMtxInit
001842c8 g     F .text	00000030 _idle_thread
00186834 g     F .text	000000f0 putc
00187ab0 g     F .text	0000013c _malloc_trim_r
00188f10 g     O .rodata	00000016 ch_debug
00188e70 g       *ABS*	00000000 __CTOR_END__
00188e70 g       *ABS*	00000000 __flash_rodata_start
00188e70 g       *ABS*	00000000 __DTOR_LIST__
0018108c g       .text	00000000 _port_thread_start
00183508 g     F .text	00000058 chPoolFreeI
00181598 g     F .text	00000034 alt_irq_init
00184fe8 g     F .text	00000080 alt_release_fd
001855f4 g     F .text	00000014 atexit
001883e0 g     F .text	0000006c _write_r
0018aa28 g     O .rwdata	00000004 _impure_ptr
0018c548 g     O .bss	00000004 alt_argc
001848b8 g     F .text	0000005c _do_dtors
00182b14 g     F .text	00000128 chThdRelease
00180020 g       .exceptions	00000000 alt_irq_entry
00180344 g     F .text	0000000c get_i2c_clk
0018c63c g     O .bss	000001c8 _idle_thread_wa
00187a98 g     F .text	00000018 __fp_unlock_all
00183560 g     F .text	00000060 chPoolFree
0018aa00 g     O .rwdata	00000008 alt_fs_list
00180020 g       *ABS*	00000000 __ram_exceptions_start
001839c0 g     F .text	0000014c chMtxUnlock
00184930 g     F .text	00000050 alt_ic_isr_register
0018aa38 g       *ABS*	00000000 _edata
001821ac g     F .text	00000060 altera_avalon_uart_read_fd
0018ca94 g       *ABS*	00000000 _end
001801c4 g       *ABS*	00000000 __ram_exceptions_end
00180f78 g     F .text	00000088 chVTResetI
00181b80 g     F .text	000000f4 altera_avalon_jtag_uart_ioctl
00185640 g     F .text	00000074 _fputs_r
00184a1c g     F .text	000000a0 alt_ic_irq_disable
001882f4 g     F .text	00000088 __swrite
0018aa30 g     O .rwdata	00000004 __malloc_trim_threshold
00185204 g     F .text	00000020 altera_nios2_qsys_irq_init
00185608 g     F .text	00000038 exit
00187f64 g     F .text	000000b8 _fwalk_reent
00200000 g       *ABS*	00000000 __alt_data_end
00180020 g     F .exceptions	00000000 alt_exception
00187a74 g     F .text	00000004 __sfp_lock_release
001805a0 g     F .text	00000014 enable_adc_drvr
00180988 g     F .text	000000d0 chThdSetPriority
00180d64 g     F .text	000000a4 chThdWait
00182610 g     F .text	00000054 altera_avalon_uart_close
001841c0 g     F .text	00000078 chSchIsPreemptionRequired
001887a4 g     F .text	00000040 _exit
001844c8 g     F .text	00000140 alt_alarm_start
00180698 g     F .text	000000fc _thread_init
0018801c g     F .text	000001a8 __smakebuf_r
00186f84 g     F .text	0000008c strlen
00184e90 g     F .text	00000158 open
001814d8 g     F .text	00000044 alt_putchar
00180bf0 g     F .text	00000074 chThdYield
00185294 g     F .text	00000098 chRegNextThread
00184914 g     F .text	0000001c alt_icache_flush_all
001856b4 g     F .text	0000001c fputs
0018aa18 g     O .rwdata	00000004 alt_priority_mask
00182e18 g     F .text	00000088 chHeapInit
00184980 g     F .text	0000009c alt_ic_irq_enable
001826b4 g     F .text	00000204 altera_avalon_uart_read
00180000 g       *ABS*	00000000 __alt_mem_sram_cntrlr
0018aa1c g     O .rwdata	00000008 alt_alarm_list
0018485c g     F .text	0000005c _do_ctors
00184658 g     F .text	000000cc close
00180ab8 g     F .text	00000060 chThdTerminate
00181184 g     F .text	00000080 alt_load
00000000  w      *UND*	00000000 free
00187a78 g     F .text	00000004 __sinit_lock_acquire



Disassembly of section .entry:

00180000 <__reset>:
 * Jump to the _start entry point in the .text section if reset code
 * is allowed or if optimizing for RTL simulation.
 */
#if defined(ALT_ALLOW_CODE_AT_RESET) || defined(ALT_SIM_OPTIMIZE)
    /* Jump to the _start entry point in the .text section. */
    movhi r1, %hi(_start)
  180000:	00400634 	movhi	at,24
    ori r1, r1, %lo(_start)
  180004:	08407114 	ori	at,at,452
    jmp r1
  180008:	0800683a 	jmp	at
	...

Disassembly of section .exceptions:

00180020 <alt_exception>:

#else /* ALT_EXCEPTION_STACK disabled */
        /* 
         * Reserve space on normal stack for registers about to be pushed.
         */
        addi  sp, sp, -76
  180020:	deffed04 	addi	sp,sp,-76
         * documentation for details).
         *
         * Leave a gap in the stack frame at 4(sp) for the muldiv handler to
         * store zero into.
         */
        stw   ra,  0(sp)
  180024:	dfc00015 	stw	ra,0(sp)
        stw   r1,   8(sp)
  180028:	d8400215 	stw	at,8(sp)
        stw   r2,  12(sp)
  18002c:	d8800315 	stw	r2,12(sp)
        stw   r3,  16(sp)
  180030:	d8c00415 	stw	r3,16(sp)
        stw   r4,  20(sp)
  180034:	d9000515 	stw	r4,20(sp)
        stw   r5,  24(sp)
  180038:	d9400615 	stw	r5,24(sp)
        stw   r6,  28(sp)
  18003c:	d9800715 	stw	r6,28(sp)
        stw   r7,  32(sp)
  180040:	d9c00815 	stw	r7,32(sp)
        rdctl r5, estatus   /* Read early to avoid usage stall */
  180044:	000b307a 	rdctl	r5,estatus
        stw   r8,  36(sp)
  180048:	da000915 	stw	r8,36(sp)
        stw   r9,  40(sp)
  18004c:	da400a15 	stw	r9,40(sp)
        stw   r10, 44(sp)
  180050:	da800b15 	stw	r10,44(sp)
        stw   r11, 48(sp)
  180054:	dac00c15 	stw	r11,48(sp)
        stw   r12, 52(sp)
  180058:	db000d15 	stw	r12,52(sp)
        stw   r13, 56(sp)
  18005c:	db400e15 	stw	r13,56(sp)
        stw   r14, 60(sp)
  180060:	db800f15 	stw	r14,60(sp)
        stw   r15, 64(sp)
  180064:	dbc01015 	stw	r15,64(sp)
        /*
         * ea-4 contains the address of the instruction being executed
         * when the exception occured. For interrupt exceptions, we will
         * will be re-issue the isntruction. Store it in 72(sp)
         */
        stw   r5,  68(sp)  /* estatus */
  180068:	d9401115 	stw	r5,68(sp)
        addi  r15, ea, -4  /* instruction that caused exception */
  18006c:	ebffff04 	addi	r15,ea,-4
        stw   r15,  72(sp)
  180070:	dbc01215 	stw	r15,72(sp)
#else
        /*
         * Test to see if the exception was a software exception or caused 
         * by an external interrupt, and vector accordingly.
         */
        rdctl r4, ipending
  180074:	0009313a 	rdctl	r4,ipending
        andi  r2, r5, 1
  180078:	2880004c 	andi	r2,r5,1
        beq   r2, zero, .Lnot_irq
  18007c:	10000326 	beq	r2,zero,18008c <alt_exception+0x6c>
        beq   r4, zero, .Lnot_irq
  180080:	20000226 	beq	r4,zero,18008c <alt_exception+0x6c>
        /*
         * Now that all necessary registers have been preserved, call 
         * alt_irq_handler() to process the interrupts.
         */

        call alt_irq_handler
  180084:	01800ec0 	call	1800ec <alt_irq_handler>

        .section .exceptions.irqreturn, "xa"

        br    .Lexception_exit
  180088:	00000306 	br	180098 <alt_exception_unknown+0x4>
         * upon completion, so we write ea (address of instruction *after*
         * the one where the exception occured) into 72(sp). The actual
         * instruction that caused the exception is written in r2, which these
         * handlers will utilize.
         */
        stw   ea,  72(sp)  /* Don't re-issue */
  18008c:	df401215 	stw	ea,72(sp)
        ldw   r2, -4(ea)   /* Instruction that caused exception */
  180090:	e8bfff17 	ldw	r2,-4(ea)

00180094 <alt_exception_unknown>:
#ifdef NIOS2_HAS_DEBUG_STUB
       /*
        *  Either tell the user now (if there is a debugger attached) or go into
        *  the debug monitor which will loop until a debugger is attached.
        */
        break
  180094:	003da03a 	break	0
        /* 
         * Restore the saved registers, so that all general purpose registers 
         * have been restored to their state at the time the interrupt occured.
         */

        ldw   r5,  68(sp)
  180098:	d9401117 	ldw	r5,68(sp)
        ldw   ea,  72(sp)  /* This becomes the PC once eret is executed */
  18009c:	df401217 	ldw	ea,72(sp)
        ldw   ra,   0(sp)
  1800a0:	dfc00017 	ldw	ra,0(sp)

        wrctl estatus, r5
  1800a4:	2801707a 	wrctl	estatus,r5

        ldw   r1,   8(sp)
  1800a8:	d8400217 	ldw	at,8(sp)
        ldw   r2,  12(sp)
  1800ac:	d8800317 	ldw	r2,12(sp)
        ldw   r3,  16(sp)
  1800b0:	d8c00417 	ldw	r3,16(sp)
        ldw   r4,  20(sp)
  1800b4:	d9000517 	ldw	r4,20(sp)
        ldw   r5,  24(sp)
  1800b8:	d9400617 	ldw	r5,24(sp)
        ldw   r6,  28(sp)
  1800bc:	d9800717 	ldw	r6,28(sp)
        ldw   r7,  32(sp)
  1800c0:	d9c00817 	ldw	r7,32(sp)

#if defined(ALT_EXCEPTION_STACK) && defined(ALT_STACK_CHECK)
        ldw   et, %gprel(alt_exception_old_stack_limit)(gp)
#endif

        ldw   r8,  36(sp)
  1800c4:	da000917 	ldw	r8,36(sp)
        ldw   r9,  40(sp)
  1800c8:	da400a17 	ldw	r9,40(sp)
        ldw   r10, 44(sp)
  1800cc:	da800b17 	ldw	r10,44(sp)
        ldw   r11, 48(sp)
  1800d0:	dac00c17 	ldw	r11,48(sp)
        ldw   r12, 52(sp)
  1800d4:	db000d17 	ldw	r12,52(sp)
        ldw   r13, 56(sp)
  1800d8:	db400e17 	ldw	r13,56(sp)
        ldw   r14, 60(sp)
  1800dc:	db800f17 	ldw	r14,60(sp)
        ldw   r15, 64(sp)
  1800e0:	dbc01017 	ldw	r15,64(sp)
        stw   et, %gprel(alt_stack_limit_value)(gp)
        stw   zero, %gprel(alt_exception_old_stack_limit)(gp)
#endif /* ALT_STACK_CHECK */
        ldw   sp,  76(sp)
#else /* ALT_EXCEPTION_STACK disabled */
        addi  sp, sp, 76
  1800e4:	dec01304 	addi	sp,sp,76

        /*
         * Return to the interrupted instruction.
         */

        eret
  1800e8:	ef80083a 	eret

001800ec <alt_irq_handler>:
 * instruction is present if the macro ALT_CI_INTERRUPT_VECTOR defined.
 */

void alt_irq_handler (void) __attribute__ ((section (".exceptions")));
void alt_irq_handler (void)
{
  1800ec:	defff904 	addi	sp,sp,-28
  1800f0:	dfc00615 	stw	ra,24(sp)
  1800f4:	df000515 	stw	fp,20(sp)
  1800f8:	df000504 	addi	fp,sp,20
  
  /*
   * Notify the operating system that we are at interrupt level.
   */ 
  
  ALT_OS_INT_ENTER();
  1800fc:	0001883a 	nop
#ifndef NIOS2_EIC_PRESENT
static ALT_INLINE alt_u32 ALT_ALWAYS_INLINE alt_irq_pending (void)
{
  alt_u32 active;

  NIOS2_READ_IPENDING (active);
  180100:	0005313a 	rdctl	r2,ipending
  180104:	e0bffe15 	stw	r2,-8(fp)

  return active;
  180108:	e0bffe17 	ldw	r2,-8(fp)
   * Consider the case where the high priority interupt is asserted during
   * the interrupt entry sequence for a lower priority interrupt to see why
   * this is the case.
   */

  active = alt_irq_pending ();
  18010c:	e0bffb15 	stw	r2,-20(fp)

  do
  {
    i = 0;
  180110:	e03ffd15 	stw	zero,-12(fp)
    mask = 1;
  180114:	00800044 	movi	r2,1
  180118:	e0bffc15 	stw	r2,-16(fp)
     * called to clear the interrupt condition.
     */

    do
    {
      if (active & mask)
  18011c:	e0fffb17 	ldw	r3,-20(fp)
  180120:	e0bffc17 	ldw	r2,-16(fp)
  180124:	1884703a 	and	r2,r3,r2
  180128:	10001726 	beq	r2,zero,180188 <alt_irq_handler+0x9c>
      { 
#ifdef ALT_ENHANCED_INTERRUPT_API_PRESENT
        alt_irq[i].handler(alt_irq[i].context); 
  18012c:	00c00674 	movhi	r3,25
  180130:	18f20104 	addi	r3,r3,-14332
  180134:	e0bffd17 	ldw	r2,-12(fp)
  180138:	100490fa 	slli	r2,r2,3
  18013c:	1885883a 	add	r2,r3,r2
  180140:	10c00017 	ldw	r3,0(r2)
  180144:	01000674 	movhi	r4,25
  180148:	21320104 	addi	r4,r4,-14332
  18014c:	e0bffd17 	ldw	r2,-12(fp)
  180150:	100490fa 	slli	r2,r2,3
  180154:	2085883a 	add	r2,r4,r2
  180158:	10800104 	addi	r2,r2,4
  18015c:	10800017 	ldw	r2,0(r2)
  180160:	1009883a 	mov	r4,r2
  180164:	183ee83a 	callr	r3
#else
        alt_irq[i].handler(alt_irq[i].context, i); 
#endif
        break;
  180168:	0001883a 	nop
#ifndef NIOS2_EIC_PRESENT
static ALT_INLINE alt_u32 ALT_ALWAYS_INLINE alt_irq_pending (void)
{
  alt_u32 active;

  NIOS2_READ_IPENDING (active);
  18016c:	0005313a 	rdctl	r2,ipending
  180170:	e0bfff15 	stw	r2,-4(fp)

  return active;
  180174:	e0bfff17 	ldw	r2,-4(fp)
      mask <<= 1;
      i++;

    } while (1);

    active = alt_irq_pending ();
  180178:	e0bffb15 	stw	r2,-20(fp)
    
  } while (active);
  18017c:	e0bffb17 	ldw	r2,-20(fp)
  180180:	103fe31e 	bne	r2,zero,180110 <alt_irq_handler+0x24>
  180184:	00000706 	br	1801a4 <alt_irq_handler+0xb8>
#else
        alt_irq[i].handler(alt_irq[i].context, i); 
#endif
        break;
      }
      mask <<= 1;
  180188:	e0bffc17 	ldw	r2,-16(fp)
  18018c:	1085883a 	add	r2,r2,r2
  180190:	e0bffc15 	stw	r2,-16(fp)
      i++;
  180194:	e0bffd17 	ldw	r2,-12(fp)
  180198:	10800044 	addi	r2,r2,1
  18019c:	e0bffd15 	stw	r2,-12(fp)

    } while (1);
  1801a0:	003fde06 	br	18011c <alt_irq_handler+0x30>

  /*
   * Notify the operating system that interrupt processing is complete.
   */ 

  ALT_OS_INT_EXIT();
  1801a4:	01841c00 	call	1841c0 <chSchIsPreemptionRequired>
  1801a8:	10000126 	beq	r2,zero,1801b0 <alt_irq_handler+0xc4>
  1801ac:	01842380 	call	184238 <chSchDoReschedule>
}
  1801b0:	e037883a 	mov	sp,fp
  1801b4:	dfc00117 	ldw	ra,4(sp)
  1801b8:	df000017 	ldw	fp,0(sp)
  1801bc:	dec00204 	addi	sp,sp,8
  1801c0:	f800283a 	ret

Disassembly of section .text:

001801c4 <_start>:

    /*
     * Now that the caches are initialized, set up the stack pointer and global pointer.
     * The values provided by the linker are assumed to be correctly aligned.
     */
    movhi sp, %hi(__alt_stack_pointer)
  1801c4:	06c00834 	movhi	sp,32
    ori sp, sp, %lo(__alt_stack_pointer)
  1801c8:	dec00014 	ori	sp,sp,0
    movhi gp, %hi(_gp)
  1801cc:	06800674 	movhi	gp,25
    ori gp, gp, %lo(_gp)
  1801d0:	d68a8014 	ori	gp,gp,10752
 */
#ifndef ALT_SIM_OPTIMIZE
    /* Log that the BSS is about to be cleared. */
    ALT_LOG_PUTS(alt_log_msg_bss)

    movhi r2, %hi(__bss_start)
  1801d4:	00800634 	movhi	r2,24
    ori r2, r2, %lo(__bss_start)
  1801d8:	10b15114 	ori	r2,r2,50500

    movhi r3, %hi(__bss_end)
  1801dc:	00c00634 	movhi	r3,24
    ori r3, r3, %lo(__bss_end)
  1801e0:	18f2a514 	ori	r3,r3,51860

    beq r2, r3, 1f
  1801e4:	10c00326 	beq	r2,r3,1801f4 <_start+0x30>

0:
    stw zero, (r2)
  1801e8:	10000015 	stw	zero,0(r2)
    addi r2, r2, 4
  1801ec:	10800104 	addi	r2,r2,4
    bltu r2, r3, 0b
  1801f0:	10fffd36 	bltu	r2,r3,1801e8 <_start+0x24>
     * section aren't defined until alt_load() has been called).
     */
    mov   et, zero
#endif

    call alt_load
  1801f4:	01811840 	call	181184 <alt_load>

    /* Log that alt_main is about to be called. */
    ALT_LOG_PUTS(alt_log_msg_alt_main)

    /* Call the C entry point. It should never return. */
    call alt_main
  1801f8:	01812040 	call	181204 <alt_main>

001801fc <alt_after_alt_main>:

    /* Wait in infinite loop in case alt_main does return. */
alt_after_alt_main:
    br alt_after_alt_main
  1801fc:	003fff06 	br	1801fc <alt_after_alt_main>

00180200 <main>:
#include "sys/alt_stdio.h"
#include "ledos/ledos.h"
#include "ch.h"

int main()
{ 
  180200:	deffff04 	addi	sp,sp,-4
  alt_putstr("Hello from Nios II!\n");
  180204:	01000674 	movhi	r4,25
  180208:	21239c04 	addi	r4,r4,-29072
#include "sys/alt_stdio.h"
#include "ledos/ledos.h"
#include "ch.h"

int main()
{ 
  18020c:	dfc00015 	stw	ra,0(sp)
  alt_putstr("Hello from Nios II!\n");
  180210:	018151c0 	call	18151c <alt_putstr>


  IOWR_I2C_ADDR(0x34);
  180214:	0005883a 	mov	r2,zero
  180218:	00c00d04 	movi	r3,52
  18021c:	10c00035 	stwio	r3,0(r2)
  alt_printf("0x%x\n",IORD_I2C_ADDR);
  180220:	11400037 	ldwio	r5,0(r2)
  180224:	01000674 	movhi	r4,25
  180228:	2123a204 	addi	r4,r4,-29048
  18022c:	01812940 	call	181294 <alt_printf>
  IOWR_I2C_CLK_DIV(2);
  180230:	00800404 	movi	r2,16
  180234:	00c00084 	movi	r3,2
  180238:	10c00035 	stwio	r3,0(r2)
  alt_printf("0x%x\n",IORD_I2C_CLK_DIV);
  18023c:	11400037 	ldwio	r5,0(r2)
  180240:	01000674 	movhi	r4,25
  180244:	2123a204 	addi	r4,r4,-29048
  180248:	01812940 	call	181294 <alt_printf>
  18024c:	003fff06 	br	18024c <main+0x4c>

00180250 <aud_codec_write_reg>:
#include "alt_types.h"
#include "sys/alt_stdio.h"
#include "ch.h"


I2C_RES	aud_codec_write_reg(alt_u8 addr, alt_u16 val)	{
  180250:	defffe04 	addi	sp,sp,-8
  180254:	dfc00115 	stw	ra,4(sp)
	aud_codec_i2c_bffr.byte_arry[0]	=	val & 0xff;
  180258:	d0a6d104 	addi	r2,gp,-25788
  18025c:	11400005 	stb	r5,0(r2)
	aud_codec_i2c_bffr.byte_arry[1]	=	((addr & AUD_CODEC_ADDR_MSK) << AUD_CODEC_ADDR_OFFSET) + ((val & 0x100) >> 8);
  180260:	2940400c 	andi	r5,r5,256
  180264:	280ad23a 	srli	r5,r5,8

	return i2c_xtn_write(AUD_CODEC_I2C_WRITE_ADDR,aud_codec_i2c_bffr.byte_arry,2,1,1);
  180268:	01c00044 	movi	r7,1
  18026c:	01000d04 	movi	r4,52
#include "ch.h"


I2C_RES	aud_codec_write_reg(alt_u8 addr, alt_u16 val)	{
	aud_codec_i2c_bffr.byte_arry[0]	=	val & 0xff;
	aud_codec_i2c_bffr.byte_arry[1]	=	((addr & AUD_CODEC_ADDR_MSK) << AUD_CODEC_ADDR_OFFSET) + ((val & 0x100) >> 8);
  180270:	11400045 	stb	r5,1(r2)

	return i2c_xtn_write(AUD_CODEC_I2C_WRITE_ADDR,aud_codec_i2c_bffr.byte_arry,2,1,1);
  180274:	d9c00015 	stw	r7,0(sp)
  180278:	100b883a 	mov	r5,r2
  18027c:	01800084 	movi	r6,2
  180280:	018036c0 	call	18036c <i2c_xtn_write>
}
  180284:	dfc00117 	ldw	ra,4(sp)
  180288:	dec00204 	addi	sp,sp,8
  18028c:	f800283a 	ret

00180290 <aud_codec_read_reg>:

I2C_RES	aud_codec_read_reg(alt_u8 addr, alt_u16 *val)	{
  180290:	defffd04 	addi	sp,sp,-12
	aud_codec_i2c_bffr.byte_arry[0]	=	(addr & AUD_CODEC_ADDR_MSK) << 1;
  180294:	21003fcc 	andi	r4,r4,255
	aud_codec_i2c_bffr.byte_arry[1]	=	((addr & AUD_CODEC_ADDR_MSK) << AUD_CODEC_ADDR_OFFSET) + ((val & 0x100) >> 8);

	return i2c_xtn_write(AUD_CODEC_I2C_WRITE_ADDR,aud_codec_i2c_bffr.byte_arry,2,1,1);
}

I2C_RES	aud_codec_read_reg(alt_u8 addr, alt_u16 *val)	{
  180298:	dc000115 	stw	r16,4(sp)
	aud_codec_i2c_bffr.byte_arry[0]	=	(addr & AUD_CODEC_ADDR_MSK) << 1;
  18029c:	2109883a 	add	r4,r4,r4

	if(i2c_xtn_write(AUD_CODEC_I2C_WRITE_ADDR,aud_codec_i2c_bffr.byte_arry,1,1,0))	{
  1802a0:	04000044 	movi	r16,1

	return i2c_xtn_write(AUD_CODEC_I2C_WRITE_ADDR,aud_codec_i2c_bffr.byte_arry,2,1,1);
}

I2C_RES	aud_codec_read_reg(alt_u8 addr, alt_u16 *val)	{
	aud_codec_i2c_bffr.byte_arry[0]	=	(addr & AUD_CODEC_ADDR_MSK) << 1;
  1802a4:	d126d105 	stb	r4,-25788(gp)

	if(i2c_xtn_write(AUD_CODEC_I2C_WRITE_ADDR,aud_codec_i2c_bffr.byte_arry,1,1,0))	{
  1802a8:	d8000015 	stw	zero,0(sp)
  1802ac:	01000d04 	movi	r4,52
  1802b0:	d166d104 	addi	r5,gp,-25788
  1802b4:	800d883a 	mov	r6,r16
  1802b8:	800f883a 	mov	r7,r16
	aud_codec_i2c_bffr.byte_arry[1]	=	((addr & AUD_CODEC_ADDR_MSK) << AUD_CODEC_ADDR_OFFSET) + ((val & 0x100) >> 8);

	return i2c_xtn_write(AUD_CODEC_I2C_WRITE_ADDR,aud_codec_i2c_bffr.byte_arry,2,1,1);
}

I2C_RES	aud_codec_read_reg(alt_u8 addr, alt_u16 *val)	{
  1802bc:	dfc00215 	stw	ra,8(sp)
	aud_codec_i2c_bffr.byte_arry[0]	=	(addr & AUD_CODEC_ADDR_MSK) << 1;

	if(i2c_xtn_write(AUD_CODEC_I2C_WRITE_ADDR,aud_codec_i2c_bffr.byte_arry,1,1,0))	{
  1802c0:	018036c0 	call	18036c <i2c_xtn_write>
  1802c4:	10000226 	beq	r2,zero,1802d0 <aud_codec_read_reg+0x40>
		return I2C_ERROR;
  1802c8:	00800104 	movi	r2,4
  1802cc:	00000b06 	br	1802fc <aud_codec_read_reg+0x6c>
	}

	if(i2c_xtn_read(AUD_CODEC_I2C_READ_ADDR,aud_codec_i2c_bffr.byte_arry,2,1,1))	{
  1802d0:	dc000015 	stw	r16,0(sp)
  1802d4:	01000d44 	movi	r4,53
  1802d8:	d166d104 	addi	r5,gp,-25788
  1802dc:	01800084 	movi	r6,2
  1802e0:	800f883a 	mov	r7,r16
  1802e4:	01804280 	call	180428 <i2c_xtn_read>
  1802e8:	103ff71e 	bne	r2,zero,1802c8 <aud_codec_read_reg+0x38>
		return I2C_ERROR;
	}

	aud_codec_i2c_bffr.val	=	aud_codec_i2c_bffr.val	&	AUD_CODEC_DATA_MSK;
  1802ec:	d0a6d10b 	ldhu	r2,-25788(gp)
  1802f0:	10807fcc 	andi	r2,r2,511
  1802f4:	d0a6d10d 	sth	r2,-25788(gp)

	return I2C_OK;
  1802f8:	0005883a 	mov	r2,zero
}
  1802fc:	dfc00217 	ldw	ra,8(sp)
  180300:	dc000117 	ldw	r16,4(sp)
  180304:	dec00304 	addi	sp,sp,12
  180308:	f800283a 	ret

0018030c <get_i2c_status>:


I2C_RES	get_i2c_status()	{
	alt_u32 status;

	status = IORD_I2C_STATUS;
  18030c:	00800c04 	movi	r2,48
  180310:	10800037 	ldwio	r2,0(r2)

	if(status & I2C_NACK_DET_MSK)
  180314:	10c0008c 	andi	r3,r2,2
  180318:	1800041e 	bne	r3,zero,18032c <get_i2c_status+0x20>
		return I2C_NACK_DETECTED;
	else if(status & I2C_BUSY_MSK)
  18031c:	1080004c 	andi	r2,r2,1
		return I2C_BUSY;
  180320:	1005003a 	cmpeq	r2,r2,zero
  180324:	10800084 	addi	r2,r2,2
  180328:	f800283a 	ret
	alt_u32 status;

	status = IORD_I2C_STATUS;

	if(status & I2C_NACK_DET_MSK)
		return I2C_NACK_DETECTED;
  18032c:	00800044 	movi	r2,1
	else if(status & I2C_BUSY_MSK)
		return I2C_BUSY;
	else
		return I2C_IDLE;
}
  180330:	f800283a 	ret

00180334 <configure_i2c_clk>:

void 	configure_i2c_clk(alt_u8 clk_val)	{
	IOWR_I2C_CLK_DIV(clk_val & I2C_CLK_DIV_MSK);
  180334:	21003fcc 	andi	r4,r4,255
  180338:	00800404 	movi	r2,16
  18033c:	11000035 	stwio	r4,0(r2)
  180340:	f800283a 	ret

00180344 <get_i2c_clk>:
}

alt_u8 	get_i2c_clk()	{
	return IORD_I2C_CLK_DIV & I2C_CLK_DIV_MSK;
}
  180344:	00800404 	movi	r2,16
  180348:	10800037 	ldwio	r2,0(r2)
  18034c:	f800283a 	ret

00180350 <configure_i2c_addr>:

void 	configure_i2c_addr(alt_u8 addr_val)	{
	IOWR_I2C_ADDR(addr_val & I2C_ADDR_MSK);
  180350:	21003fcc 	andi	r4,r4,255
  180354:	0005883a 	mov	r2,zero
  180358:	11000035 	stwio	r4,0(r2)
  18035c:	f800283a 	ret

00180360 <get_i2c_addr>:
}

alt_u8 	get_i2c_addr()	{
	return	IORD_I2C_ADDR & I2C_ADDR_MSK;
}
  180360:	0005883a 	mov	r2,zero
  180364:	10800037 	ldwio	r2,0(r2)
  180368:	f800283a 	ret

0018036c <i2c_xtn_write>:

I2C_RES	i2c_xtn_write(alt_u8 addr, alt_u8 *data, alt_u8 num_bytes, alt_u8 start, alt_u8 stop)	{
  18036c:	defffe04 	addi	sp,sp,-8
  180370:	dc000015 	stw	r16,0(sp)
  180374:	dfc00115 	stw	ra,4(sp)
	alt_u32 i;

	if(num_bytes > I2C_MAX_XTN_LEN)	{
  180378:	31803fcc 	andi	r6,r6,255
  18037c:	04000104 	movi	r16,4

alt_u8 	get_i2c_addr()	{
	return	IORD_I2C_ADDR & I2C_ADDR_MSK;
}

I2C_RES	i2c_xtn_write(alt_u8 addr, alt_u8 *data, alt_u8 num_bytes, alt_u8 start, alt_u8 stop)	{
  180380:	d8c00217 	ldw	r3,8(sp)
	alt_u32 i;

	if(num_bytes > I2C_MAX_XTN_LEN)	{
  180384:	8180072e 	bgeu	r16,r6,1803a4 <i2c_xtn_write+0x38>
		alt_printf("[i2c_xtn_write] ERROR num_bytes(0x%x) > I2C_MAX_XTN_LEN(0x%x)\n",num_bytes,I2C_MAX_XTN_LEN);
  180388:	300b883a 	mov	r5,r6
  18038c:	01000674 	movhi	r4,25
  180390:	2123a404 	addi	r4,r4,-29040
  180394:	800d883a 	mov	r6,r16
  180398:	01812940 	call	181294 <alt_printf>
		return I2C_ERROR;
  18039c:	8005883a 	mov	r2,r16
  1803a0:	00001d06 	br	180418 <i2c_xtn_write+0xac>
alt_u8 	get_i2c_clk()	{
	return IORD_I2C_CLK_DIV & I2C_CLK_DIV_MSK;
}

void 	configure_i2c_addr(alt_u8 addr_val)	{
	IOWR_I2C_ADDR(addr_val & I2C_ADDR_MSK);
  1803a4:	21003fcc 	andi	r4,r4,255
  1803a8:	0005883a 	mov	r2,zero
  1803ac:	11000035 	stwio	r4,0(r2)
		return I2C_ERROR;
	}

	configure_i2c_addr(addr);

	for(i=0; i<num_bytes;i++)	{
  1803b0:	00000406 	br	1803c4 <i2c_xtn_write+0x58>

alt_u8 	get_i2c_addr()	{
	return	IORD_I2C_ADDR & I2C_ADDR_MSK;
}

I2C_RES	i2c_xtn_write(alt_u8 addr, alt_u8 *data, alt_u8 num_bytes, alt_u8 start, alt_u8 stop)	{
  1803b4:	2889883a 	add	r4,r5,r2
	}

	configure_i2c_addr(addr);

	for(i=0; i<num_bytes;i++)	{
		IOWR_I2C_DATA_CACHE(i,data[i]);
  1803b8:	21000003 	ldbu	r4,0(r4)
  1803bc:	11001435 	stwio	r4,80(r2)
		return I2C_ERROR;
	}

	configure_i2c_addr(addr);

	for(i=0; i<num_bytes;i++)	{
  1803c0:	10800044 	addi	r2,r2,1
  1803c4:	11bffb36 	bltu	r2,r6,1803b4 <i2c_xtn_write+0x48>
		IOWR_I2C_DATA_CACHE(i,data[i]);
	}

	IOWR_I2C_CONFIG((num_bytes << I2C_NUM_BYTES_OFFSET) + I2C_INIT_MSK + ((stop & 0x1) << 1) + (start & 0x1));
  1803c8:	300c923a 	slli	r6,r6,8
  1803cc:	1880004c 	andi	r2,r3,1
  1803d0:	1085883a 	add	r2,r2,r2
  1803d4:	31800104 	addi	r6,r6,4
  1803d8:	3085883a 	add	r2,r6,r2
  1803dc:	39c0004c 	andi	r7,r7,1
  1803e0:	11cf883a 	add	r7,r2,r7
  1803e4:	00c00804 	movi	r3,32
  1803e8:	19c00035 	stwio	r7,0(r3)

	while(IORD_I2C_STATUS & I2C_BUSY_MSK){
  1803ec:	04000c04 	movi	r16,48
  1803f0:	00000206 	br	1803fc <i2c_xtn_write+0x90>
		chThdSleepMilliseconds(1);	//wait for I2C driver to be free
  1803f4:	01000044 	movi	r4,1
  1803f8:	0180b180 	call	180b18 <chThdSleep>
		IOWR_I2C_DATA_CACHE(i,data[i]);
	}

	IOWR_I2C_CONFIG((num_bytes << I2C_NUM_BYTES_OFFSET) + I2C_INIT_MSK + ((stop & 0x1) << 1) + (start & 0x1));

	while(IORD_I2C_STATUS & I2C_BUSY_MSK){
  1803fc:	80800037 	ldwio	r2,0(r16)
  180400:	1080004c 	andi	r2,r2,1
  180404:	103ffb1e 	bne	r2,zero,1803f4 <i2c_xtn_write+0x88>
		chThdSleepMilliseconds(1);	//wait for I2C driver to be free
	}

	if(IORD_I2C_STATUS	&	I2C_NACK_DET_MSK){
  180408:	00800c04 	movi	r2,48
  18040c:	10800037 	ldwio	r2,0(r2)
  180410:	1004d07a 	srli	r2,r2,1
  180414:	1080004c 	andi	r2,r2,1
		return I2C_NACK_DETECTED;
	}

	return I2C_OK;
}
  180418:	dfc00117 	ldw	ra,4(sp)
  18041c:	dc000017 	ldw	r16,0(sp)
  180420:	dec00204 	addi	sp,sp,8
  180424:	f800283a 	ret

00180428 <i2c_xtn_read>:


I2C_RES	i2c_xtn_read(alt_u8 addr, alt_u8 *bffr, alt_u8 num_bytes, alt_u8 start, alt_u8 stop)	{
  180428:	defffc04 	addi	sp,sp,-16
  18042c:	dc800215 	stw	r18,8(sp)
  180430:	dc400115 	stw	r17,4(sp)
  180434:	dc000015 	stw	r16,0(sp)
  180438:	dfc00315 	stw	ra,12(sp)
	alt_u32 i;

	if(num_bytes > I2C_MAX_XTN_LEN)	{
  18043c:	30803fcc 	andi	r2,r6,255
  180440:	04000104 	movi	r16,4

	return I2C_OK;
}


I2C_RES	i2c_xtn_read(alt_u8 addr, alt_u8 *bffr, alt_u8 num_bytes, alt_u8 start, alt_u8 stop)	{
  180444:	2825883a 	mov	r18,r5
  180448:	d8c00417 	ldw	r3,16(sp)
  18044c:	3023883a 	mov	r17,r6
	alt_u32 i;

	if(num_bytes > I2C_MAX_XTN_LEN)	{
  180450:	8080072e 	bgeu	r16,r2,180470 <i2c_xtn_read+0x48>
		alt_printf("[i2c_xtn_write] ERROR num_bytes(0x%x) > I2C_MAX_XTN_LEN(0x%x)\n",num_bytes,I2C_MAX_XTN_LEN);
  180454:	100b883a 	mov	r5,r2
  180458:	01000674 	movhi	r4,25
  18045c:	2123a404 	addi	r4,r4,-29040
  180460:	800d883a 	mov	r6,r16
  180464:	01812940 	call	181294 <alt_printf>
		return I2C_ERROR;
  180468:	8005883a 	mov	r2,r16
  18046c:	00002106 	br	1804f4 <i2c_xtn_read+0xcc>
alt_u8 	get_i2c_clk()	{
	return IORD_I2C_CLK_DIV & I2C_CLK_DIV_MSK;
}

void 	configure_i2c_addr(alt_u8 addr_val)	{
	IOWR_I2C_ADDR(addr_val & I2C_ADDR_MSK);
  180470:	21003fcc 	andi	r4,r4,255
  180474:	000b883a 	mov	r5,zero
  180478:	29000035 	stwio	r4,0(r5)
		return I2C_ERROR;
	}

	configure_i2c_addr(addr);

	IOWR_I2C_CONFIG((num_bytes << I2C_NUM_BYTES_OFFSET) + I2C_RD_N_WR_MSK + I2C_INIT_MSK + ((stop & 0x1) << 1) + (start & 0x1));
  18047c:	1004923a 	slli	r2,r2,8
  180480:	18c0004c 	andi	r3,r3,1
  180484:	18c7883a 	add	r3,r3,r3
  180488:	10800304 	addi	r2,r2,12
  18048c:	10c7883a 	add	r3,r2,r3
  180490:	39c0004c 	andi	r7,r7,1
  180494:	19cf883a 	add	r7,r3,r7
  180498:	01000804 	movi	r4,32
  18049c:	21c00035 	stwio	r7,0(r4)

	while(IORD_I2C_STATUS & I2C_BUSY_MSK){
  1804a0:	04000c04 	movi	r16,48
  1804a4:	00000206 	br	1804b0 <i2c_xtn_read+0x88>
		chThdSleepMilliseconds(1);	//wait for I2C driver to be free
  1804a8:	01000044 	movi	r4,1
  1804ac:	0180b180 	call	180b18 <chThdSleep>

	configure_i2c_addr(addr);

	IOWR_I2C_CONFIG((num_bytes << I2C_NUM_BYTES_OFFSET) + I2C_RD_N_WR_MSK + I2C_INIT_MSK + ((stop & 0x1) << 1) + (start & 0x1));

	while(IORD_I2C_STATUS & I2C_BUSY_MSK){
  1804b0:	80800037 	ldwio	r2,0(r16)
  1804b4:	1080004c 	andi	r2,r2,1
  1804b8:	103ffb1e 	bne	r2,zero,1804a8 <i2c_xtn_read+0x80>
		chThdSleepMilliseconds(1);	//wait for I2C driver to be free
	}

	if(IORD_I2C_STATUS	&	I2C_NACK_DET_MSK){
  1804bc:	00800c04 	movi	r2,48
  1804c0:	10800037 	ldwio	r2,0(r2)
  1804c4:	1080008c 	andi	r2,r2,2
  1804c8:	1000091e 	bne	r2,zero,1804f0 <i2c_xtn_read+0xc8>
		return I2C_NACK_DETECTED;
	}

	for(i=0; i<num_bytes;i++)	{
  1804cc:	8c403fcc 	andi	r17,r17,255
  1804d0:	00000406 	br	1804e4 <i2c_xtn_read+0xbc>
		bffr[i]	=	IORD_I2C_DATA_CACHE(i)	&	0xff;
  1804d4:	11001437 	ldwio	r4,80(r2)

	return I2C_OK;
}


I2C_RES	i2c_xtn_read(alt_u8 addr, alt_u8 *bffr, alt_u8 num_bytes, alt_u8 start, alt_u8 stop)	{
  1804d8:	9087883a 	add	r3,r18,r2
	if(IORD_I2C_STATUS	&	I2C_NACK_DET_MSK){
		return I2C_NACK_DETECTED;
	}

	for(i=0; i<num_bytes;i++)	{
		bffr[i]	=	IORD_I2C_DATA_CACHE(i)	&	0xff;
  1804dc:	19000005 	stb	r4,0(r3)

	if(IORD_I2C_STATUS	&	I2C_NACK_DET_MSK){
		return I2C_NACK_DETECTED;
	}

	for(i=0; i<num_bytes;i++)	{
  1804e0:	10800044 	addi	r2,r2,1
  1804e4:	147ffb36 	bltu	r2,r17,1804d4 <i2c_xtn_read+0xac>
		bffr[i]	=	IORD_I2C_DATA_CACHE(i)	&	0xff;
	}

	return I2C_OK;
  1804e8:	0005883a 	mov	r2,zero
  1804ec:	00000106 	br	1804f4 <i2c_xtn_read+0xcc>
	while(IORD_I2C_STATUS & I2C_BUSY_MSK){
		chThdSleepMilliseconds(1);	//wait for I2C driver to be free
	}

	if(IORD_I2C_STATUS	&	I2C_NACK_DET_MSK){
		return I2C_NACK_DETECTED;
  1804f0:	00800044 	movi	r2,1
	for(i=0; i<num_bytes;i++)	{
		bffr[i]	=	IORD_I2C_DATA_CACHE(i)	&	0xff;
	}

	return I2C_OK;
}
  1804f4:	dfc00317 	ldw	ra,12(sp)
  1804f8:	dc800217 	ldw	r18,8(sp)
  1804fc:	dc400117 	ldw	r17,4(sp)
  180500:	dc000017 	ldw	r16,0(sp)
  180504:	dec00404 	addi	sp,sp,16
  180508:	f800283a 	ret

0018050c <update_acache_mode>:
#include "alt_types.h"
#include "sys/alt_stdio.h"


void update_acache_mode(PCM_BFFR_MODE_T mode)	{
	IOWR_PCM_BFFR_CONTROL(mode & PCM_BFFR_MODE_MSK);
  18050c:	2100004c 	andi	r4,r4,1
  180510:	00880004 	movi	r2,8192
  180514:	11000035 	stwio	r4,0(r2)
  180518:	f800283a 	ret

0018051c <dump_acache_cap_data>:
}

void dump_acache_cap_data(alt_u32 *lbffr, alt_u32 *rbffr)	{
	alt_u32	i;

	for(i=0; i<PCM_BFFR_NUM_SAMPLES; i++)	{
  18051c:	0005883a 	mov	r2,zero
		IOWR_PCM_BFFR_CAP_ADDR(i);
  180520:	01880804 	movi	r6,8224
		lbffr[i]	=	IORD_PCM_BFFR_CAP_DATA;
  180524:	00c80c04 	movi	r3,8240
}

void dump_acache_cap_data(alt_u32 *lbffr, alt_u32 *rbffr)	{
	alt_u32	i;

	for(i=0; i<PCM_BFFR_NUM_SAMPLES; i++)	{
  180528:	01c02004 	movi	r7,128
		IOWR_PCM_BFFR_CAP_ADDR(i);
  18052c:	30800035 	stwio	r2,0(r6)
		lbffr[i]	=	IORD_PCM_BFFR_CAP_DATA;
  180530:	1a000037 	ldwio	r8,0(r3)
  180534:	22000015 	stw	r8,0(r4)

void update_acache_mode(PCM_BFFR_MODE_T mode)	{
	IOWR_PCM_BFFR_CONTROL(mode & PCM_BFFR_MODE_MSK);
}

void dump_acache_cap_data(alt_u32 *lbffr, alt_u32 *rbffr)	{
  180538:	12002004 	addi	r8,r2,128

	for(i=0; i<PCM_BFFR_NUM_SAMPLES; i++)	{
		IOWR_PCM_BFFR_CAP_ADDR(i);
		lbffr[i]	=	IORD_PCM_BFFR_CAP_DATA;

		IOWR_PCM_BFFR_CAP_ADDR(i+PCM_BFFR_NUM_SAMPLES);
  18053c:	32000035 	stwio	r8,0(r6)
		rbffr[i]	=	IORD_PCM_BFFR_CAP_DATA;
  180540:	1a000037 	ldwio	r8,0(r3)
  180544:	2a000015 	stw	r8,0(r5)
}

void dump_acache_cap_data(alt_u32 *lbffr, alt_u32 *rbffr)	{
	alt_u32	i;

	for(i=0; i<PCM_BFFR_NUM_SAMPLES; i++)	{
  180548:	10800044 	addi	r2,r2,1
  18054c:	21000104 	addi	r4,r4,4
  180550:	29400104 	addi	r5,r5,4
  180554:	11fff51e 	bne	r2,r7,18052c <dump_acache_cap_data+0x10>
		lbffr[i]	=	IORD_PCM_BFFR_CAP_DATA;

		IOWR_PCM_BFFR_CAP_ADDR(i+PCM_BFFR_NUM_SAMPLES);
		rbffr[i]	=	IORD_PCM_BFFR_CAP_DATA;
	}
}
  180558:	f800283a 	ret

0018055c <disable_dac_drvr>:
#include "alt_types.h"
#include "sys/alt_stdio.h"


void disable_dac_drvr()	{
	IOWR_SSM2603_DRVR_CONFIG(IORD_SSM2603_DRVR_CONFIG	&	~SSM2603_DRVR_DAC_EN_MSK);
  18055c:	00840004 	movi	r2,4096
  180560:	11000037 	ldwio	r4,0(r2)
  180564:	00ffff84 	movi	r3,-2
  180568:	20c6703a 	and	r3,r4,r3
  18056c:	10c00035 	stwio	r3,0(r2)
  180570:	f800283a 	ret

00180574 <enable_dac_drvr>:
}

void enable_dac_drvr()	{
	IOWR_SSM2603_DRVR_CONFIG(IORD_SSM2603_DRVR_CONFIG	|	SSM2603_DRVR_DAC_EN_MSK);
  180574:	00840004 	movi	r2,4096
  180578:	10c00037 	ldwio	r3,0(r2)
  18057c:	18c00054 	ori	r3,r3,1
  180580:	10c00035 	stwio	r3,0(r2)
  180584:	f800283a 	ret

00180588 <disable_adc_drvr>:
}

void disable_adc_drvr()	{
	IOWR_SSM2603_DRVR_CONFIG(IORD_SSM2603_DRVR_CONFIG	&	~SSM2603_DRVR_ADC_EN_MSK);
  180588:	00840004 	movi	r2,4096
  18058c:	11000037 	ldwio	r4,0(r2)
  180590:	00ffff44 	movi	r3,-3
  180594:	20c6703a 	and	r3,r4,r3
  180598:	10c00035 	stwio	r3,0(r2)
  18059c:	f800283a 	ret

001805a0 <enable_adc_drvr>:
}

void enable_adc_drvr()	{
	IOWR_SSM2603_DRVR_CONFIG(IORD_SSM2603_DRVR_CONFIG	|	SSM2603_DRVR_ADC_EN_MSK);
  1805a0:	00840004 	movi	r2,4096
  1805a4:	10c00037 	ldwio	r3,0(r2)
  1805a8:	18c00094 	ori	r3,r3,2
  1805ac:	10c00035 	stwio	r3,0(r2)
  1805b0:	f800283a 	ret

001805b4 <configure_drvr_bps>:
}

void configure_drvr_bps(BPS_T val)	{
	IOWR_SSM2603_DRVR_CONFIG((IORD_SSM2603_DRVR_CONFIG & ~SSM2603_DRVR_BPS_MSK) | (val << SSM2603_DRVR_BPS_OFFSET));
  1805b4:	00840004 	movi	r2,4096
  1805b8:	11400037 	ldwio	r5,0(r2)
  1805bc:	00fffcc4 	movi	r3,-13
  1805c0:	2109883a 	add	r4,r4,r4
  1805c4:	28c6703a 	and	r3,r5,r3
  1805c8:	2109883a 	add	r4,r4,r4
  1805cc:	1908b03a 	or	r4,r3,r4
  1805d0:	11000035 	stwio	r4,0(r2)
  1805d4:	f800283a 	ret

001805d8 <configure_drvr_fs_div>:
}

void configure_drvr_fs_div(FS_DIV_T val)	{
	IOWR_SSM2603_DRVR_FS_VAL(val);
  1805d8:	00840c04 	movi	r2,4144
  1805dc:	11000035 	stwio	r4,0(r2)
  1805e0:	f800283a 	ret

001805e4 <configure_drvr_bclk_div>:
}

void configure_drvr_bclk_div(BCLK_DIV_T val)	{
	IOWR_SSM2603_DRVR_BCLK_DIV(val);
  1805e4:	00840804 	movi	r2,4128
  1805e8:	11000035 	stwio	r4,0(r2)
  1805ec:	f800283a 	ret

001805f0 <__mulsi3>:
  1805f0:	0005883a 	mov	r2,zero
  1805f4:	20000726 	beq	r4,zero,180614 <__mulsi3+0x24>
  1805f8:	20c0004c 	andi	r3,r4,1
  1805fc:	2008d07a 	srli	r4,r4,1
  180600:	18000126 	beq	r3,zero,180608 <__mulsi3+0x18>
  180604:	1145883a 	add	r2,r2,r5
  180608:	294b883a 	add	r5,r5,r5
  18060c:	203ffa1e 	bne	r4,zero,1805f8 <__mulsi3+0x8>
  180610:	f800283a 	ret
  180614:	f800283a 	ret

00180618 <list_insert>:
  tp->p_prev->p_next = tp->p_next;
  tp->p_next->p_prev = tp->p_prev;
  return tp;
}

static INLINE void list_insert(Thread *tp, ThreadsList *tlp) {
  180618:	defffd04 	addi	sp,sp,-12
  18061c:	df000215 	stw	fp,8(sp)
  180620:	df000204 	addi	fp,sp,8
  180624:	e13ffe15 	stw	r4,-8(fp)
  180628:	e17fff15 	stw	r5,-4(fp)

  tp->p_next = tlp->p_next;
  18062c:	e0bfff17 	ldw	r2,-4(fp)
  180630:	10c00017 	ldw	r3,0(r2)
  180634:	e0bffe17 	ldw	r2,-8(fp)
  180638:	10c00015 	stw	r3,0(r2)
  tlp->p_next = tp;
  18063c:	e0bfff17 	ldw	r2,-4(fp)
  180640:	e0fffe17 	ldw	r3,-8(fp)
  180644:	10c00015 	stw	r3,0(r2)
}
  180648:	e037883a 	mov	sp,fp
  18064c:	df000017 	ldw	fp,0(sp)
  180650:	dec00104 	addi	sp,sp,4
  180654:	f800283a 	ret

00180658 <list_remove>:

static INLINE Thread *list_remove(ThreadsList *tlp) {
  180658:	defffd04 	addi	sp,sp,-12
  18065c:	df000215 	stw	fp,8(sp)
  180660:	df000204 	addi	fp,sp,8
  180664:	e13fff15 	stw	r4,-4(fp)

  Thread *tp = tlp->p_next;
  180668:	e0bfff17 	ldw	r2,-4(fp)
  18066c:	10800017 	ldw	r2,0(r2)
  180670:	e0bffe15 	stw	r2,-8(fp)
  tlp->p_next = tp->p_next;
  180674:	e0bffe17 	ldw	r2,-8(fp)
  180678:	10c00017 	ldw	r3,0(r2)
  18067c:	e0bfff17 	ldw	r2,-4(fp)
  180680:	10c00015 	stw	r3,0(r2)
  return tp;
  180684:	e0bffe17 	ldw	r2,-8(fp)
}
  180688:	e037883a 	mov	sp,fp
  18068c:	df000017 	ldw	fp,0(sp)
  180690:	dec00104 	addi	sp,sp,4
  180694:	f800283a 	ret

00180698 <_thread_init>:
 * @param[in] prio      the priority level for the new thread
 * @return              The same thread pointer passed as parameter.
 *
 * @notapi
 */
Thread *_thread_init(Thread *tp, tprio_t prio) {
  180698:	defffd04 	addi	sp,sp,-12
  18069c:	df000215 	stw	fp,8(sp)
  1806a0:	df000204 	addi	fp,sp,8
  1806a4:	e13ffe15 	stw	r4,-8(fp)
  1806a8:	e17fff15 	stw	r5,-4(fp)

  tp->p_prio = prio;
  1806ac:	e0bffe17 	ldw	r2,-8(fp)
  1806b0:	e0ffff17 	ldw	r3,-4(fp)
  1806b4:	10c00215 	stw	r3,8(r2)
  tp->p_state = THD_STATE_SUSPENDED;
  1806b8:	e0bffe17 	ldw	r2,-8(fp)
  1806bc:	00c00084 	movi	r3,2
  1806c0:	10c00705 	stb	r3,28(r2)
  tp->p_flags = THD_MEM_MODE_STATIC;
  1806c4:	e0bffe17 	ldw	r2,-8(fp)
  1806c8:	10000745 	stb	zero,29(r2)
#if CH_USE_MUTEXES
  tp->p_realprio = prio;
  1806cc:	e0bffe17 	ldw	r2,-8(fp)
  1806d0:	e0ffff17 	ldw	r3,-4(fp)
  1806d4:	10c01015 	stw	r3,64(r2)
  tp->p_mtxlist = NULL;
  1806d8:	e0bffe17 	ldw	r2,-8(fp)
  1806dc:	10000f15 	stw	zero,60(r2)
#endif
#if CH_USE_EVENTS
  tp->p_epending = 0;
  1806e0:	e0bffe17 	ldw	r2,-8(fp)
  1806e4:	10000e15 	stw	zero,56(r2)
#endif
#if CH_DBG_THREADS_PROFILING
  tp->p_time = 0;
  1806e8:	e0bffe17 	ldw	r2,-8(fp)
  1806ec:	10000815 	stw	zero,32(r2)
#endif
#if CH_USE_DYNAMIC
  tp->p_refs = 1;
  1806f0:	e0bffe17 	ldw	r2,-8(fp)
  1806f4:	00c00044 	movi	r3,1
  1806f8:	10c00785 	stb	r3,30(r2)
#endif
#if CH_USE_REGISTRY
  tp->p_name = NULL;
  1806fc:	e0bffe17 	ldw	r2,-8(fp)
  180700:	10000615 	stw	zero,24(r2)
  REG_INSERT(tp);
  180704:	e0bffe17 	ldw	r2,-8(fp)
  180708:	00c00674 	movhi	r3,25
  18070c:	18f18704 	addi	r3,r3,-14820
  180710:	10c00415 	stw	r3,16(r2)
  180714:	00800674 	movhi	r2,25
  180718:	10b18704 	addi	r2,r2,-14820
  18071c:	10c00517 	ldw	r3,20(r2)
  180720:	e0bffe17 	ldw	r2,-8(fp)
  180724:	10c00515 	stw	r3,20(r2)
  180728:	e0bffe17 	ldw	r2,-8(fp)
  18072c:	10800517 	ldw	r2,20(r2)
  180730:	00c00674 	movhi	r3,25
  180734:	18f18704 	addi	r3,r3,-14820
  180738:	e13ffe17 	ldw	r4,-8(fp)
  18073c:	19000515 	stw	r4,20(r3)
  180740:	00c00674 	movhi	r3,25
  180744:	18f18704 	addi	r3,r3,-14820
  180748:	18c00517 	ldw	r3,20(r3)
  18074c:	10c00415 	stw	r3,16(r2)
#endif
#if CH_USE_WAITEXIT
  list_init(&tp->p_waiting);
  180750:	e0bffe17 	ldw	r2,-8(fp)
  180754:	10c00a04 	addi	r3,r2,40
  180758:	e0bffe17 	ldw	r2,-8(fp)
  18075c:	10c00a15 	stw	r3,40(r2)
#endif
#if CH_USE_MESSAGES
  queue_init(&tp->p_msgqueue);
  180760:	e0bffe17 	ldw	r2,-8(fp)
  180764:	10c00b04 	addi	r3,r2,44
  180768:	e0bffe17 	ldw	r2,-8(fp)
  18076c:	10c00c15 	stw	r3,48(r2)
  180770:	e0bffe17 	ldw	r2,-8(fp)
  180774:	10c00c17 	ldw	r3,48(r2)
  180778:	e0bffe17 	ldw	r2,-8(fp)
  18077c:	10c00b15 	stw	r3,44(r2)
  tp->p_stklimit = (stkalign_t *)(tp + 1);
#endif
#if defined(THREAD_EXT_INIT_HOOK)
  THREAD_EXT_INIT_HOOK(tp);
#endif
  return tp;
  180780:	e0bffe17 	ldw	r2,-8(fp)
}
  180784:	e037883a 	mov	sp,fp
  180788:	df000017 	ldw	fp,0(sp)
  18078c:	dec00104 	addi	sp,sp,4
  180790:	f800283a 	ret

00180794 <chThdCreateI>:
 *                      the thread into the working space area.
 *
 * @iclass
 */
Thread *chThdCreateI(void *wsp, size_t size,
                     tprio_t prio, tfunc_t pf, void *arg) {
  180794:	defff904 	addi	sp,sp,-28
  180798:	dfc00615 	stw	ra,24(sp)
  18079c:	df000515 	stw	fp,20(sp)
  1807a0:	df000504 	addi	fp,sp,20
  1807a4:	e13ffc15 	stw	r4,-16(fp)
  1807a8:	e17ffd15 	stw	r5,-12(fp)
  1807ac:	e1bffe15 	stw	r6,-8(fp)
  1807b0:	e1ffff15 	stw	r7,-4(fp)
  /* Thread structure is laid out in the lower part of the thread workspace.*/
  Thread *tp = wsp;
  1807b4:	e0bffc17 	ldw	r2,-16(fp)
  1807b8:	e0bffb15 	stw	r2,-20(fp)

  chDbgCheckClassI();

  chDbgCheck((wsp != NULL) && (size >= THD_WA_SIZE(0)) &&
  1807bc:	e0bffc17 	ldw	r2,-16(fp)
  1807c0:	10000326 	beq	r2,zero,1807d0 <chThdCreateI+0x3c>
  1807c4:	e0bffd17 	ldw	r2,-12(fp)
  1807c8:	10805230 	cmpltui	r2,r2,328
  1807cc:	1000001e 	bne	r2,zero,1807d0 <chThdCreateI+0x3c>
             (prio <= HIGHPRIO) && (pf != NULL),
             "chThdCreateI");
  SETUP_CONTEXT(wsp, size, pf, arg);
  1807d0:	e0bffd17 	ldw	r2,-12(fp)
  1807d4:	10bff504 	addi	r2,r2,-44
  1807d8:	e0fffc17 	ldw	r3,-16(fp)
  1807dc:	1887883a 	add	r3,r3,r2
  1807e0:	e0bffb17 	ldw	r2,-20(fp)
  1807e4:	10c00315 	stw	r3,12(r2)
  1807e8:	e0bffb17 	ldw	r2,-20(fp)
  1807ec:	10800317 	ldw	r2,12(r2)
  1807f0:	e0ffff17 	ldw	r3,-4(fp)
  1807f4:	10c00215 	stw	r3,8(r2)
  1807f8:	e0bffb17 	ldw	r2,-20(fp)
  1807fc:	10800317 	ldw	r2,12(r2)
  180800:	e0c00217 	ldw	r3,8(fp)
  180804:	10c00315 	stw	r3,12(r2)
  180808:	e0bffb17 	ldw	r2,-20(fp)
  18080c:	10800317 	ldw	r2,12(r2)
  180810:	00c60634 	movhi	r3,6168
  180814:	18c60604 	addi	r3,r3,6168
  180818:	10c00415 	stw	r3,16(r2)
  18081c:	e0bffb17 	ldw	r2,-20(fp)
  180820:	10800317 	ldw	r2,12(r2)
  180824:	00c64674 	movhi	r3,6425
  180828:	18c64644 	addi	r3,r3,6425
  18082c:	10c00515 	stw	r3,20(r2)
  180830:	e0bffb17 	ldw	r2,-20(fp)
  180834:	10800317 	ldw	r2,12(r2)
  180838:	00c80834 	movhi	r3,8224
  18083c:	18c80804 	addi	r3,r3,8224
  180840:	10c00615 	stw	r3,24(r2)
  180844:	e0bffb17 	ldw	r2,-20(fp)
  180848:	10800317 	ldw	r2,12(r2)
  18084c:	00c84874 	movhi	r3,8481
  180850:	18c84844 	addi	r3,r3,8481
  180854:	10c00715 	stw	r3,28(r2)
  180858:	e0bffb17 	ldw	r2,-20(fp)
  18085c:	10800317 	ldw	r2,12(r2)
  180860:	00c888b4 	movhi	r3,8738
  180864:	18c88884 	addi	r3,r3,8738
  180868:	10c00815 	stw	r3,32(r2)
  18086c:	e0bffb17 	ldw	r2,-20(fp)
  180870:	10800317 	ldw	r2,12(r2)
  180874:	00c8c8f4 	movhi	r3,8995
  180878:	18c8c8c4 	addi	r3,r3,8995
  18087c:	10c00915 	stw	r3,36(r2)
  180880:	e0bffb17 	ldw	r2,-20(fp)
  180884:	10800317 	ldw	r2,12(r2)
  180888:	00c00044 	movi	r3,1
  18088c:	10c00a15 	stw	r3,40(r2)
  180890:	e0bffb17 	ldw	r2,-20(fp)
  180894:	10800317 	ldw	r2,12(r2)
  180898:	00ca0a34 	movhi	r3,10280
  18089c:	18ca0a04 	addi	r3,r3,10280
  1808a0:	10c00115 	stw	r3,4(r2)
  1808a4:	e0bffb17 	ldw	r2,-20(fp)
  1808a8:	10800317 	ldw	r2,12(r2)
  1808ac:	00c00634 	movhi	r3,24
  1808b0:	18c42304 	addi	r3,r3,4236
  1808b4:	10c00015 	stw	r3,0(r2)
  1808b8:	e0bffc17 	ldw	r2,-16(fp)
  1808bc:	10c01404 	addi	r3,r2,80
  1808c0:	e0bffb17 	ldw	r2,-20(fp)
  1808c4:	10c01215 	stw	r3,72(r2)
  1808c8:	e0fffc17 	ldw	r3,-16(fp)
  1808cc:	e0bffd17 	ldw	r2,-12(fp)
  1808d0:	1887883a 	add	r3,r3,r2
  1808d4:	e0bffb17 	ldw	r2,-20(fp)
  1808d8:	10c01315 	stw	r3,76(r2)
  return _thread_init(tp, prio);
  1808dc:	e13ffb17 	ldw	r4,-20(fp)
  1808e0:	e17ffe17 	ldw	r5,-8(fp)
  1808e4:	01806980 	call	180698 <_thread_init>
}
  1808e8:	e037883a 	mov	sp,fp
  1808ec:	dfc00117 	ldw	ra,4(sp)
  1808f0:	df000017 	ldw	fp,0(sp)
  1808f4:	dec00204 	addi	sp,sp,8
  1808f8:	f800283a 	ret

001808fc <chThdCreateStatic>:
 *                      the thread into the working space area.
 *
 * @api
 */
Thread *chThdCreateStatic(void *wsp, size_t size,
                          tprio_t prio, tfunc_t pf, void *arg) {
  1808fc:	defff604 	addi	sp,sp,-40
  180900:	dfc00915 	stw	ra,36(sp)
  180904:	df000815 	stw	fp,32(sp)
  180908:	df000804 	addi	fp,sp,32
  18090c:	e13ffc15 	stw	r4,-16(fp)
  180910:	e17ffd15 	stw	r5,-12(fp)
  180914:	e1bffe15 	stw	r6,-8(fp)
  180918:	e1ffff15 	stw	r7,-4(fp)
static ALT_INLINE alt_irq_context ALT_ALWAYS_INLINE 
       alt_irq_disable_all (void)
{
  alt_irq_context context;

  NIOS2_READ_STATUS (context);
  18091c:	0005303a 	rdctl	r2,status
  180920:	e0bffa15 	stw	r2,-24(fp)

  NIOS2_WRITE_STATUS (context & ~NIOS2_STATUS_PIE_MSK);
  180924:	e0fffa17 	ldw	r3,-24(fp)
  180928:	00bfff84 	movi	r2,-2
  18092c:	1884703a 	and	r2,r3,r2
  180930:	1001703a 	wrctl	status,r2
  _thread_memfill((uint8_t *)wsp + sizeof(Thread),
                  (uint8_t *)wsp + size,
                  CH_STACK_FILL_VALUE);
#endif
  chSysLock();
  chSchWakeupS(tp = chThdCreateI(wsp, size, prio, pf, arg), RDY_OK);
  180934:	e0800217 	ldw	r2,8(fp)
  180938:	d8800015 	stw	r2,0(sp)
  18093c:	e13ffc17 	ldw	r4,-16(fp)
  180940:	e17ffd17 	ldw	r5,-12(fp)
  180944:	e1bffe17 	ldw	r6,-8(fp)
  180948:	e1ffff17 	ldw	r7,-4(fp)
  18094c:	01807940 	call	180794 <chThdCreateI>
  180950:	e0bff915 	stw	r2,-28(fp)
  180954:	e13ff917 	ldw	r4,-28(fp)
  180958:	000b883a 	mov	r5,zero
  18095c:	01840c40 	call	1840c4 <chSchWakeupS>
  180960:	00800044 	movi	r2,1
  180964:	e0bffb15 	stw	r2,-20(fp)
  status &= ~NIOS2_STATUS_PIE_MSK;
  status |= (context & NIOS2_STATUS_PIE_MSK);
  
  NIOS2_WRITE_STATUS (status);
#else
  NIOS2_WRITE_STATUS (context);
  180968:	e0bffb17 	ldw	r2,-20(fp)
  18096c:	1001703a 	wrctl	status,r2
  chSysUnlock();
  return tp;
  180970:	e0bff917 	ldw	r2,-28(fp)
}
  180974:	e037883a 	mov	sp,fp
  180978:	dfc00117 	ldw	ra,4(sp)
  18097c:	df000017 	ldw	fp,0(sp)
  180980:	dec00204 	addi	sp,sp,8
  180984:	f800283a 	ret

00180988 <chThdSetPriority>:
 * @param[in] newprio   the new priority level of the running thread
 * @return              The old priority level.
 *
 * @api
 */
tprio_t chThdSetPriority(tprio_t newprio) {
  180988:	defffa04 	addi	sp,sp,-24
  18098c:	dfc00515 	stw	ra,20(sp)
  180990:	df000415 	stw	fp,16(sp)
  180994:	df000404 	addi	fp,sp,16
  180998:	e13fff15 	stw	r4,-4(fp)
static ALT_INLINE alt_irq_context ALT_ALWAYS_INLINE 
       alt_irq_disable_all (void)
{
  alt_irq_context context;

  NIOS2_READ_STATUS (context);
  18099c:	0005303a 	rdctl	r2,status
  1809a0:	e0bffd15 	stw	r2,-12(fp)

  NIOS2_WRITE_STATUS (context & ~NIOS2_STATUS_PIE_MSK);
  1809a4:	e0fffd17 	ldw	r3,-12(fp)
  1809a8:	00bfff84 	movi	r2,-2
  1809ac:	1884703a 	and	r2,r3,r2
  1809b0:	1001703a 	wrctl	status,r2

  chDbgCheck(newprio <= HIGHPRIO, "chThdSetPriority");

  chSysLock();
#if CH_USE_MUTEXES
  oldprio = currp->p_realprio;
  1809b4:	00800674 	movhi	r2,25
  1809b8:	10b18704 	addi	r2,r2,-14820
  1809bc:	10800717 	ldw	r2,28(r2)
  1809c0:	10801017 	ldw	r2,64(r2)
  1809c4:	e0bffc15 	stw	r2,-16(fp)
  if ((currp->p_prio == currp->p_realprio) || (newprio > currp->p_prio))
  1809c8:	00800674 	movhi	r2,25
  1809cc:	10b18704 	addi	r2,r2,-14820
  1809d0:	10800717 	ldw	r2,28(r2)
  1809d4:	10c00217 	ldw	r3,8(r2)
  1809d8:	00800674 	movhi	r2,25
  1809dc:	10b18704 	addi	r2,r2,-14820
  1809e0:	10800717 	ldw	r2,28(r2)
  1809e4:	10801017 	ldw	r2,64(r2)
  1809e8:	18800626 	beq	r3,r2,180a04 <chThdSetPriority+0x7c>
  1809ec:	00800674 	movhi	r2,25
  1809f0:	10b18704 	addi	r2,r2,-14820
  1809f4:	10800717 	ldw	r2,28(r2)
  1809f8:	10c00217 	ldw	r3,8(r2)
  1809fc:	e0bfff17 	ldw	r2,-4(fp)
  180a00:	1880052e 	bgeu	r3,r2,180a18 <chThdSetPriority+0x90>
    currp->p_prio = newprio;
  180a04:	00800674 	movhi	r2,25
  180a08:	10b18704 	addi	r2,r2,-14820
  180a0c:	10800717 	ldw	r2,28(r2)
  180a10:	e0ffff17 	ldw	r3,-4(fp)
  180a14:	10c00215 	stw	r3,8(r2)
  currp->p_realprio = newprio;
  180a18:	00800674 	movhi	r2,25
  180a1c:	10b18704 	addi	r2,r2,-14820
  180a20:	10800717 	ldw	r2,28(r2)
  180a24:	e0ffff17 	ldw	r3,-4(fp)
  180a28:	10c01015 	stw	r3,64(r2)
#else
  oldprio = currp->p_prio;
  currp->p_prio = newprio;
#endif
  chSchRescheduleS();
  180a2c:	01841740 	call	184174 <chSchRescheduleS>
  180a30:	00800044 	movi	r2,1
  180a34:	e0bffe15 	stw	r2,-8(fp)
  status &= ~NIOS2_STATUS_PIE_MSK;
  status |= (context & NIOS2_STATUS_PIE_MSK);
  
  NIOS2_WRITE_STATUS (status);
#else
  NIOS2_WRITE_STATUS (context);
  180a38:	e0bffe17 	ldw	r2,-8(fp)
  180a3c:	1001703a 	wrctl	status,r2
  chSysUnlock();
  return oldprio;
  180a40:	e0bffc17 	ldw	r2,-16(fp)
}
  180a44:	e037883a 	mov	sp,fp
  180a48:	dfc00117 	ldw	ra,4(sp)
  180a4c:	df000017 	ldw	fp,0(sp)
  180a50:	dec00204 	addi	sp,sp,8
  180a54:	f800283a 	ret

00180a58 <chThdResume>:
 * @param[in] tp        pointer to the thread
 * @return              The pointer to the thread.
 *
 * @api
 */
Thread *chThdResume(Thread *tp) {
  180a58:	defffb04 	addi	sp,sp,-20
  180a5c:	dfc00415 	stw	ra,16(sp)
  180a60:	df000315 	stw	fp,12(sp)
  180a64:	df000304 	addi	fp,sp,12
  180a68:	e13fff15 	stw	r4,-4(fp)
static ALT_INLINE alt_irq_context ALT_ALWAYS_INLINE 
       alt_irq_disable_all (void)
{
  alt_irq_context context;

  NIOS2_READ_STATUS (context);
  180a6c:	0005303a 	rdctl	r2,status
  180a70:	e0bffd15 	stw	r2,-12(fp)

  NIOS2_WRITE_STATUS (context & ~NIOS2_STATUS_PIE_MSK);
  180a74:	e0fffd17 	ldw	r3,-12(fp)
  180a78:	00bfff84 	movi	r2,-2
  180a7c:	1884703a 	and	r2,r3,r2
  180a80:	1001703a 	wrctl	status,r2

  chSysLock();
  chDbgAssert(tp->p_state == THD_STATE_SUSPENDED,
              "chThdResume(), #1",
              "thread not in THD_STATE_SUSPENDED state");
  chSchWakeupS(tp, RDY_OK);
  180a84:	e13fff17 	ldw	r4,-4(fp)
  180a88:	000b883a 	mov	r5,zero
  180a8c:	01840c40 	call	1840c4 <chSchWakeupS>
  180a90:	00800044 	movi	r2,1
  180a94:	e0bffe15 	stw	r2,-8(fp)
  status &= ~NIOS2_STATUS_PIE_MSK;
  status |= (context & NIOS2_STATUS_PIE_MSK);
  
  NIOS2_WRITE_STATUS (status);
#else
  NIOS2_WRITE_STATUS (context);
  180a98:	e0bffe17 	ldw	r2,-8(fp)
  180a9c:	1001703a 	wrctl	status,r2
  chSysUnlock();
  return tp;
  180aa0:	e0bfff17 	ldw	r2,-4(fp)
}
  180aa4:	e037883a 	mov	sp,fp
  180aa8:	dfc00117 	ldw	ra,4(sp)
  180aac:	df000017 	ldw	fp,0(sp)
  180ab0:	dec00204 	addi	sp,sp,8
  180ab4:	f800283a 	ret

00180ab8 <chThdTerminate>:
 *
 * @param[in] tp        pointer to the thread
 *
 * @api
 */
void chThdTerminate(Thread *tp) {
  180ab8:	defffc04 	addi	sp,sp,-16
  180abc:	df000315 	stw	fp,12(sp)
  180ac0:	df000304 	addi	fp,sp,12
  180ac4:	e13fff15 	stw	r4,-4(fp)
static ALT_INLINE alt_irq_context ALT_ALWAYS_INLINE 
       alt_irq_disable_all (void)
{
  alt_irq_context context;

  NIOS2_READ_STATUS (context);
  180ac8:	0005303a 	rdctl	r2,status
  180acc:	e0bffd15 	stw	r2,-12(fp)

  NIOS2_WRITE_STATUS (context & ~NIOS2_STATUS_PIE_MSK);
  180ad0:	e0fffd17 	ldw	r3,-12(fp)
  180ad4:	00bfff84 	movi	r2,-2
  180ad8:	1884703a 	and	r2,r3,r2
  180adc:	1001703a 	wrctl	status,r2

  chSysLock();
  tp->p_flags |= THD_TERMINATE;
  180ae0:	e0bfff17 	ldw	r2,-4(fp)
  180ae4:	10800743 	ldbu	r2,29(r2)
  180ae8:	10800114 	ori	r2,r2,4
  180aec:	1007883a 	mov	r3,r2
  180af0:	e0bfff17 	ldw	r2,-4(fp)
  180af4:	10c00745 	stb	r3,29(r2)
  180af8:	00800044 	movi	r2,1
  180afc:	e0bffe15 	stw	r2,-8(fp)
  status &= ~NIOS2_STATUS_PIE_MSK;
  status |= (context & NIOS2_STATUS_PIE_MSK);
  
  NIOS2_WRITE_STATUS (status);
#else
  NIOS2_WRITE_STATUS (context);
  180b00:	e0bffe17 	ldw	r2,-8(fp)
  180b04:	1001703a 	wrctl	status,r2
  chSysUnlock();
}
  180b08:	e037883a 	mov	sp,fp
  180b0c:	df000017 	ldw	fp,0(sp)
  180b10:	dec00104 	addi	sp,sp,4
  180b14:	f800283a 	ret

00180b18 <chThdSleep>:
 *                      - @a TIME_IMMEDIATE this value is not allowed.
 *                      .
 *
 * @api
 */
void chThdSleep(systime_t time) {
  180b18:	defffb04 	addi	sp,sp,-20
  180b1c:	dfc00415 	stw	ra,16(sp)
  180b20:	df000315 	stw	fp,12(sp)
  180b24:	df000304 	addi	fp,sp,12
  180b28:	e13fff15 	stw	r4,-4(fp)
static ALT_INLINE alt_irq_context ALT_ALWAYS_INLINE 
       alt_irq_disable_all (void)
{
  alt_irq_context context;

  NIOS2_READ_STATUS (context);
  180b2c:	0005303a 	rdctl	r2,status
  180b30:	e0bffd15 	stw	r2,-12(fp)

  NIOS2_WRITE_STATUS (context & ~NIOS2_STATUS_PIE_MSK);
  180b34:	e0fffd17 	ldw	r3,-12(fp)
  180b38:	00bfff84 	movi	r2,-2
  180b3c:	1884703a 	and	r2,r3,r2
  180b40:	1001703a 	wrctl	status,r2

  chDbgCheck(time != TIME_IMMEDIATE, "chThdSleep");

  chSysLock();
  chThdSleepS(time);
  180b44:	01000184 	movi	r4,6
  180b48:	e17fff17 	ldw	r5,-4(fp)
  180b4c:	01840280 	call	184028 <chSchGoSleepTimeoutS>
  180b50:	00800044 	movi	r2,1
  180b54:	e0bffe15 	stw	r2,-8(fp)
  status &= ~NIOS2_STATUS_PIE_MSK;
  status |= (context & NIOS2_STATUS_PIE_MSK);
  
  NIOS2_WRITE_STATUS (status);
#else
  NIOS2_WRITE_STATUS (context);
  180b58:	e0bffe17 	ldw	r2,-8(fp)
  180b5c:	1001703a 	wrctl	status,r2
  chSysUnlock();
}
  180b60:	e037883a 	mov	sp,fp
  180b64:	dfc00117 	ldw	ra,4(sp)
  180b68:	df000017 	ldw	fp,0(sp)
  180b6c:	dec00204 	addi	sp,sp,8
  180b70:	f800283a 	ret

00180b74 <chThdSleepUntil>:
 *
 * @param[in] time      absolute system time
 *
 * @api
 */
void chThdSleepUntil(systime_t time) {
  180b74:	defffb04 	addi	sp,sp,-20
  180b78:	dfc00415 	stw	ra,16(sp)
  180b7c:	df000315 	stw	fp,12(sp)
  180b80:	df000304 	addi	fp,sp,12
  180b84:	e13fff15 	stw	r4,-4(fp)
static ALT_INLINE alt_irq_context ALT_ALWAYS_INLINE 
       alt_irq_disable_all (void)
{
  alt_irq_context context;

  NIOS2_READ_STATUS (context);
  180b88:	0005303a 	rdctl	r2,status
  180b8c:	e0bffd15 	stw	r2,-12(fp)

  NIOS2_WRITE_STATUS (context & ~NIOS2_STATUS_PIE_MSK);
  180b90:	e0fffd17 	ldw	r3,-12(fp)
  180b94:	00bfff84 	movi	r2,-2
  180b98:	1884703a 	and	r2,r3,r2
  180b9c:	1001703a 	wrctl	status,r2

  chSysLock();
  if ((time -= chTimeNow()) > 0)
  180ba0:	00800674 	movhi	r2,25
  180ba4:	10b18304 	addi	r2,r2,-14836
  180ba8:	10800317 	ldw	r2,12(r2)
  180bac:	e0ffff17 	ldw	r3,-4(fp)
  180bb0:	1885c83a 	sub	r2,r3,r2
  180bb4:	e0bfff15 	stw	r2,-4(fp)
  180bb8:	e0bfff17 	ldw	r2,-4(fp)
  180bbc:	10000326 	beq	r2,zero,180bcc <chThdSleepUntil+0x58>
    chThdSleepS(time);
  180bc0:	01000184 	movi	r4,6
  180bc4:	e17fff17 	ldw	r5,-4(fp)
  180bc8:	01840280 	call	184028 <chSchGoSleepTimeoutS>
  180bcc:	00800044 	movi	r2,1
  180bd0:	e0bffe15 	stw	r2,-8(fp)
  status &= ~NIOS2_STATUS_PIE_MSK;
  status |= (context & NIOS2_STATUS_PIE_MSK);
  
  NIOS2_WRITE_STATUS (status);
#else
  NIOS2_WRITE_STATUS (context);
  180bd4:	e0bffe17 	ldw	r2,-8(fp)
  180bd8:	1001703a 	wrctl	status,r2
  chSysUnlock();
}
  180bdc:	e037883a 	mov	sp,fp
  180be0:	dfc00117 	ldw	ra,4(sp)
  180be4:	df000017 	ldw	fp,0(sp)
  180be8:	dec00204 	addi	sp,sp,8
  180bec:	f800283a 	ret

00180bf0 <chThdYield>:
 * @details Yields the CPU control to the next thread in the ready list with
 *          equal priority, if any.
 *
 * @api
 */
void chThdYield(void) {
  180bf0:	defffc04 	addi	sp,sp,-16
  180bf4:	dfc00315 	stw	ra,12(sp)
  180bf8:	df000215 	stw	fp,8(sp)
  180bfc:	df000204 	addi	fp,sp,8
static ALT_INLINE alt_irq_context ALT_ALWAYS_INLINE 
       alt_irq_disable_all (void)
{
  alt_irq_context context;

  NIOS2_READ_STATUS (context);
  180c00:	0005303a 	rdctl	r2,status
  180c04:	e0bffe15 	stw	r2,-8(fp)

  NIOS2_WRITE_STATUS (context & ~NIOS2_STATUS_PIE_MSK);
  180c08:	e0fffe17 	ldw	r3,-8(fp)
  180c0c:	00bfff84 	movi	r2,-2
  180c10:	1884703a 	and	r2,r3,r2
  180c14:	1001703a 	wrctl	status,r2

  chSysLock();
  chSchDoYieldS();
  180c18:	00800674 	movhi	r2,25
  180c1c:	10b18704 	addi	r2,r2,-14820
  180c20:	10800017 	ldw	r2,0(r2)
  180c24:	10c00217 	ldw	r3,8(r2)
  180c28:	00800674 	movhi	r2,25
  180c2c:	10b18704 	addi	r2,r2,-14820
  180c30:	10800717 	ldw	r2,28(r2)
  180c34:	10800217 	ldw	r2,8(r2)
  180c38:	18800136 	bltu	r3,r2,180c40 <chThdYield+0x50>
  180c3c:	01842380 	call	184238 <chSchDoReschedule>
  180c40:	00800044 	movi	r2,1
  180c44:	e0bfff15 	stw	r2,-4(fp)
  status &= ~NIOS2_STATUS_PIE_MSK;
  status |= (context & NIOS2_STATUS_PIE_MSK);
  
  NIOS2_WRITE_STATUS (status);
#else
  NIOS2_WRITE_STATUS (context);
  180c48:	e0bfff17 	ldw	r2,-4(fp)
  180c4c:	1001703a 	wrctl	status,r2
  chSysUnlock();
}
  180c50:	e037883a 	mov	sp,fp
  180c54:	dfc00117 	ldw	ra,4(sp)
  180c58:	df000017 	ldw	fp,0(sp)
  180c5c:	dec00204 	addi	sp,sp,8
  180c60:	f800283a 	ret

00180c64 <chThdExit>:
 *
 * @param[in] msg       thread exit code
 *
 * @api
 */
void chThdExit(msg_t msg) {
  180c64:	defffc04 	addi	sp,sp,-16
  180c68:	dfc00315 	stw	ra,12(sp)
  180c6c:	df000215 	stw	fp,8(sp)
  180c70:	df000204 	addi	fp,sp,8
  180c74:	e13fff15 	stw	r4,-4(fp)
static ALT_INLINE alt_irq_context ALT_ALWAYS_INLINE 
       alt_irq_disable_all (void)
{
  alt_irq_context context;

  NIOS2_READ_STATUS (context);
  180c78:	0005303a 	rdctl	r2,status
  180c7c:	e0bffe15 	stw	r2,-8(fp)

  NIOS2_WRITE_STATUS (context & ~NIOS2_STATUS_PIE_MSK);
  180c80:	e0fffe17 	ldw	r3,-8(fp)
  180c84:	00bfff84 	movi	r2,-2
  180c88:	1884703a 	and	r2,r3,r2
  180c8c:	1001703a 	wrctl	status,r2

  chSysLock();
  chThdExitS(msg);
  180c90:	e13fff17 	ldw	r4,-4(fp)
  180c94:	0180cac0 	call	180cac <chThdExitS>
  /* The thread never returns here.*/
}
  180c98:	e037883a 	mov	sp,fp
  180c9c:	dfc00117 	ldw	ra,4(sp)
  180ca0:	df000017 	ldw	fp,0(sp)
  180ca4:	dec00204 	addi	sp,sp,8
  180ca8:	f800283a 	ret

00180cac <chThdExitS>:
 *
 * @param[in] msg       thread exit code
 *
 * @sclass
 */
void chThdExitS(msg_t msg) {
  180cac:	defffc04 	addi	sp,sp,-16
  180cb0:	dfc00315 	stw	ra,12(sp)
  180cb4:	df000215 	stw	fp,8(sp)
  180cb8:	df000204 	addi	fp,sp,8
  180cbc:	e13fff15 	stw	r4,-4(fp)
  Thread *tp = currp;
  180cc0:	00800674 	movhi	r2,25
  180cc4:	10b18704 	addi	r2,r2,-14820
  180cc8:	10800717 	ldw	r2,28(r2)
  180ccc:	e0bffe15 	stw	r2,-8(fp)

  tp->p_u.exitcode = msg;
  180cd0:	e0bffe17 	ldw	r2,-8(fp)
  180cd4:	e0ffff17 	ldw	r3,-4(fp)
  180cd8:	10c00915 	stw	r3,36(r2)
#if defined(THREAD_EXT_EXIT_HOOK)
  THREAD_EXT_EXIT_HOOK(tp);
#endif
#if CH_USE_WAITEXIT
  while (notempty(&tp->p_waiting))
  180cdc:	00000606 	br	180cf8 <chThdExitS+0x4c>
    chSchReadyI(list_remove(&tp->p_waiting));
  180ce0:	e0bffe17 	ldw	r2,-8(fp)
  180ce4:	10800a04 	addi	r2,r2,40
  180ce8:	1009883a 	mov	r4,r2
  180cec:	01806580 	call	180658 <list_remove>
  180cf0:	1009883a 	mov	r4,r2
  180cf4:	0183e580 	call	183e58 <chSchReadyI>
  tp->p_u.exitcode = msg;
#if defined(THREAD_EXT_EXIT_HOOK)
  THREAD_EXT_EXIT_HOOK(tp);
#endif
#if CH_USE_WAITEXIT
  while (notempty(&tp->p_waiting))
  180cf8:	e0bffe17 	ldw	r2,-8(fp)
  180cfc:	10c00a17 	ldw	r3,40(r2)
  180d00:	e0bffe17 	ldw	r2,-8(fp)
  180d04:	10800a04 	addi	r2,r2,40
  180d08:	18bff51e 	bne	r3,r2,180ce0 <chThdExitS+0x34>
    chSchReadyI(list_remove(&tp->p_waiting));
#endif
#if CH_USE_REGISTRY
  /* Static threads are immediately removed from the registry because
     there is no memory to recover.*/
  if ((tp->p_flags & THD_MEM_MODE_MASK) == THD_MEM_MODE_STATIC)
  180d0c:	e0bffe17 	ldw	r2,-8(fp)
  180d10:	10800743 	ldbu	r2,29(r2)
  180d14:	10803fcc 	andi	r2,r2,255
  180d18:	108000cc 	andi	r2,r2,3
  180d1c:	10000a1e 	bne	r2,zero,180d48 <chThdExitS+0x9c>
    REG_REMOVE(tp);
  180d20:	e0bffe17 	ldw	r2,-8(fp)
  180d24:	10800517 	ldw	r2,20(r2)
  180d28:	e0fffe17 	ldw	r3,-8(fp)
  180d2c:	18c00417 	ldw	r3,16(r3)
  180d30:	10c00415 	stw	r3,16(r2)
  180d34:	e0bffe17 	ldw	r2,-8(fp)
  180d38:	10800417 	ldw	r2,16(r2)
  180d3c:	e0fffe17 	ldw	r3,-8(fp)
  180d40:	18c00517 	ldw	r3,20(r3)
  180d44:	10c00515 	stw	r3,20(r2)
#endif
  chSchGoSleepS(THD_STATE_FINAL);
  180d48:	01000384 	movi	r4,14
  180d4c:	0183eec0 	call	183eec <chSchGoSleepS>
  /* The thread never returns here.*/
  chDbgAssert(FALSE, "chThdExitS(), #1", "zombies apocalypse");
}
  180d50:	e037883a 	mov	sp,fp
  180d54:	dfc00117 	ldw	ra,4(sp)
  180d58:	df000017 	ldw	fp,0(sp)
  180d5c:	dec00204 	addi	sp,sp,8
  180d60:	f800283a 	ret

00180d64 <chThdWait>:
 * @param[in] tp        pointer to the thread
 * @return              The exit code from the terminated thread.
 *
 * @api
 */
msg_t chThdWait(Thread *tp) {
  180d64:	defffa04 	addi	sp,sp,-24
  180d68:	dfc00515 	stw	ra,20(sp)
  180d6c:	df000415 	stw	fp,16(sp)
  180d70:	df000404 	addi	fp,sp,16
  180d74:	e13fff15 	stw	r4,-4(fp)
static ALT_INLINE alt_irq_context ALT_ALWAYS_INLINE 
       alt_irq_disable_all (void)
{
  alt_irq_context context;

  NIOS2_READ_STATUS (context);
  180d78:	0005303a 	rdctl	r2,status
  180d7c:	e0bffd15 	stw	r2,-12(fp)

  NIOS2_WRITE_STATUS (context & ~NIOS2_STATUS_PIE_MSK);
  180d80:	e0fffd17 	ldw	r3,-12(fp)
  180d84:	00bfff84 	movi	r2,-2
  180d88:	1884703a 	and	r2,r3,r2
  180d8c:	1001703a 	wrctl	status,r2
  chSysLock();
  chDbgAssert(tp != currp, "chThdWait(), #1", "waiting self");
#if CH_USE_DYNAMIC
  chDbgAssert(tp->p_refs > 0, "chThdWait(), #2", "not referenced");
#endif
  if (tp->p_state != THD_STATE_FINAL) {
  180d90:	e0bfff17 	ldw	r2,-4(fp)
  180d94:	10800703 	ldbu	r2,28(r2)
  180d98:	10803fcc 	andi	r2,r2,255
  180d9c:	108003a0 	cmpeqi	r2,r2,14
  180da0:	10000a1e 	bne	r2,zero,180dcc <chThdWait+0x68>
    list_insert(currp, &tp->p_waiting);
  180da4:	00800674 	movhi	r2,25
  180da8:	10b18704 	addi	r2,r2,-14820
  180dac:	10c00717 	ldw	r3,28(r2)
  180db0:	e0bfff17 	ldw	r2,-4(fp)
  180db4:	10800a04 	addi	r2,r2,40
  180db8:	1809883a 	mov	r4,r3
  180dbc:	100b883a 	mov	r5,r2
  180dc0:	01806180 	call	180618 <list_insert>
    chSchGoSleepS(THD_STATE_WTEXIT);
  180dc4:	010001c4 	movi	r4,7
  180dc8:	0183eec0 	call	183eec <chSchGoSleepS>
  }
  msg = tp->p_u.exitcode;
  180dcc:	e0bfff17 	ldw	r2,-4(fp)
  180dd0:	10800917 	ldw	r2,36(r2)
  180dd4:	e0bffc15 	stw	r2,-16(fp)
  180dd8:	00800044 	movi	r2,1
  180ddc:	e0bffe15 	stw	r2,-8(fp)
  status &= ~NIOS2_STATUS_PIE_MSK;
  status |= (context & NIOS2_STATUS_PIE_MSK);
  
  NIOS2_WRITE_STATUS (status);
#else
  NIOS2_WRITE_STATUS (context);
  180de0:	e0bffe17 	ldw	r2,-8(fp)
  180de4:	1001703a 	wrctl	status,r2
  chSysUnlock();
#if CH_USE_DYNAMIC
  chThdRelease(tp);
  180de8:	e13fff17 	ldw	r4,-4(fp)
  180dec:	0182b140 	call	182b14 <chThdRelease>
#endif
  return msg;
  180df0:	e0bffc17 	ldw	r2,-16(fp)
}
  180df4:	e037883a 	mov	sp,fp
  180df8:	dfc00117 	ldw	ra,4(sp)
  180dfc:	df000017 	ldw	fp,0(sp)
  180e00:	dec00204 	addi	sp,sp,8
  180e04:	f800283a 	ret

00180e08 <_vt_init>:
 * @brief   Virtual Timers initialization.
 * @note    Internal use only.
 *
 * @notapi
 */
void _vt_init(void) {
  180e08:	deffff04 	addi	sp,sp,-4
  180e0c:	df000015 	stw	fp,0(sp)
  180e10:	d839883a 	mov	fp,sp

  vtlist.vt_next = vtlist.vt_prev = (void *)&vtlist;
  180e14:	00800674 	movhi	r2,25
  180e18:	10b18304 	addi	r2,r2,-14836
  180e1c:	00c00674 	movhi	r3,25
  180e20:	18f18304 	addi	r3,r3,-14836
  180e24:	10c00115 	stw	r3,4(r2)
  180e28:	00800674 	movhi	r2,25
  180e2c:	10b18304 	addi	r2,r2,-14836
  180e30:	10c00117 	ldw	r3,4(r2)
  180e34:	00800674 	movhi	r2,25
  180e38:	10b18304 	addi	r2,r2,-14836
  180e3c:	10c00015 	stw	r3,0(r2)
  vtlist.vt_time = (systime_t)-1;
  180e40:	00800674 	movhi	r2,25
  180e44:	10b18304 	addi	r2,r2,-14836
  180e48:	00ffffc4 	movi	r3,-1
  180e4c:	10c00215 	stw	r3,8(r2)
  vtlist.vt_systime = 0;
  180e50:	00800674 	movhi	r2,25
  180e54:	10b18304 	addi	r2,r2,-14836
  180e58:	10000315 	stw	zero,12(r2)
}
  180e5c:	e037883a 	mov	sp,fp
  180e60:	df000017 	ldw	fp,0(sp)
  180e64:	dec00104 	addi	sp,sp,4
  180e68:	f800283a 	ret

00180e6c <chVTSetI>:
 * @param[in] par       a parameter that will be passed to the callback
 *                      function
 *
 * @iclass
 */
void chVTSetI(VirtualTimer *vtp, systime_t time, vtfunc_t vtfunc, void *par) {
  180e6c:	defffa04 	addi	sp,sp,-24
  180e70:	df000515 	stw	fp,20(sp)
  180e74:	df000504 	addi	fp,sp,20
  180e78:	e13ffc15 	stw	r4,-16(fp)
  180e7c:	e17ffd15 	stw	r5,-12(fp)
  180e80:	e1bffe15 	stw	r6,-8(fp)
  180e84:	e1ffff15 	stw	r7,-4(fp)
  VirtualTimer *p;

  chDbgCheckClassI();
  chDbgCheck((vtp != NULL) && (vtfunc != NULL) && (time != TIME_IMMEDIATE),
  180e88:	e0bffc17 	ldw	r2,-16(fp)
  180e8c:	10000226 	beq	r2,zero,180e98 <chVTSetI+0x2c>
  180e90:	e0bffe17 	ldw	r2,-8(fp)
  180e94:	10000026 	beq	r2,zero,180e98 <chVTSetI+0x2c>
             "chVTSetI");

  vtp->vt_par = par;
  180e98:	e0bffc17 	ldw	r2,-16(fp)
  180e9c:	e0ffff17 	ldw	r3,-4(fp)
  180ea0:	10c00415 	stw	r3,16(r2)
  vtp->vt_func = vtfunc;
  180ea4:	e0bffc17 	ldw	r2,-16(fp)
  180ea8:	e0fffe17 	ldw	r3,-8(fp)
  180eac:	10c00315 	stw	r3,12(r2)
  p = vtlist.vt_next;
  180eb0:	00800674 	movhi	r2,25
  180eb4:	10b18304 	addi	r2,r2,-14836
  180eb8:	10800017 	ldw	r2,0(r2)
  180ebc:	e0bffb15 	stw	r2,-20(fp)
  while (p->vt_time < time) {
  180ec0:	00000806 	br	180ee4 <chVTSetI+0x78>
    time -= p->vt_time;
  180ec4:	e0bffb17 	ldw	r2,-20(fp)
  180ec8:	10800217 	ldw	r2,8(r2)
  180ecc:	e0fffd17 	ldw	r3,-12(fp)
  180ed0:	1885c83a 	sub	r2,r3,r2
  180ed4:	e0bffd15 	stw	r2,-12(fp)
    p = p->vt_next;
  180ed8:	e0bffb17 	ldw	r2,-20(fp)
  180edc:	10800017 	ldw	r2,0(r2)
  180ee0:	e0bffb15 	stw	r2,-20(fp)
             "chVTSetI");

  vtp->vt_par = par;
  vtp->vt_func = vtfunc;
  p = vtlist.vt_next;
  while (p->vt_time < time) {
  180ee4:	e0bffb17 	ldw	r2,-20(fp)
  180ee8:	10c00217 	ldw	r3,8(r2)
  180eec:	e0bffd17 	ldw	r2,-12(fp)
  180ef0:	18bff436 	bltu	r3,r2,180ec4 <chVTSetI+0x58>
    time -= p->vt_time;
    p = p->vt_next;
  }

  vtp->vt_prev = (vtp->vt_next = p)->vt_prev;
  180ef4:	e0bffc17 	ldw	r2,-16(fp)
  180ef8:	e0fffb17 	ldw	r3,-20(fp)
  180efc:	10c00015 	stw	r3,0(r2)
  180f00:	e0bffc17 	ldw	r2,-16(fp)
  180f04:	10800017 	ldw	r2,0(r2)
  180f08:	10c00117 	ldw	r3,4(r2)
  180f0c:	e0bffc17 	ldw	r2,-16(fp)
  180f10:	10c00115 	stw	r3,4(r2)
  vtp->vt_prev->vt_next = p->vt_prev = vtp;
  180f14:	e0bffc17 	ldw	r2,-16(fp)
  180f18:	10800117 	ldw	r2,4(r2)
  180f1c:	e0fffb17 	ldw	r3,-20(fp)
  180f20:	e13ffc17 	ldw	r4,-16(fp)
  180f24:	19000115 	stw	r4,4(r3)
  180f28:	e0fffb17 	ldw	r3,-20(fp)
  180f2c:	18c00117 	ldw	r3,4(r3)
  180f30:	10c00015 	stw	r3,0(r2)
  vtp->vt_time = time;
  180f34:	e0bffc17 	ldw	r2,-16(fp)
  180f38:	e0fffd17 	ldw	r3,-12(fp)
  180f3c:	10c00215 	stw	r3,8(r2)
  if (p != (void *)&vtlist)
  180f40:	e0fffb17 	ldw	r3,-20(fp)
  180f44:	00800674 	movhi	r2,25
  180f48:	10b18304 	addi	r2,r2,-14836
  180f4c:	18800626 	beq	r3,r2,180f68 <chVTSetI+0xfc>
    p->vt_time -= time;
  180f50:	e0bffb17 	ldw	r2,-20(fp)
  180f54:	10c00217 	ldw	r3,8(r2)
  180f58:	e0bffd17 	ldw	r2,-12(fp)
  180f5c:	1887c83a 	sub	r3,r3,r2
  180f60:	e0bffb17 	ldw	r2,-20(fp)
  180f64:	10c00215 	stw	r3,8(r2)
}
  180f68:	e037883a 	mov	sp,fp
  180f6c:	df000017 	ldw	fp,0(sp)
  180f70:	dec00104 	addi	sp,sp,4
  180f74:	f800283a 	ret

00180f78 <chVTResetI>:
 *
 * @param[in] vtp       the @p VirtualTimer structure pointer
 *
 * @iclass
 */
void chVTResetI(VirtualTimer *vtp) {
  180f78:	defffe04 	addi	sp,sp,-8
  180f7c:	df000115 	stw	fp,4(sp)
  180f80:	df000104 	addi	fp,sp,4
  180f84:	e13fff15 	stw	r4,-4(fp)
  chDbgCheck(vtp != NULL, "chVTResetI");
  chDbgAssert(vtp->vt_func != NULL,
              "chVTResetI(), #1",
              "timer not set or already triggered");

  if (vtp->vt_next != (void *)&vtlist)
  180f88:	e0bfff17 	ldw	r2,-4(fp)
  180f8c:	10c00017 	ldw	r3,0(r2)
  180f90:	00800674 	movhi	r2,25
  180f94:	10b18304 	addi	r2,r2,-14836
  180f98:	18800926 	beq	r3,r2,180fc0 <chVTResetI+0x48>
    vtp->vt_next->vt_time += vtp->vt_time;
  180f9c:	e0bfff17 	ldw	r2,-4(fp)
  180fa0:	10800017 	ldw	r2,0(r2)
  180fa4:	e0ffff17 	ldw	r3,-4(fp)
  180fa8:	18c00017 	ldw	r3,0(r3)
  180fac:	19000217 	ldw	r4,8(r3)
  180fb0:	e0ffff17 	ldw	r3,-4(fp)
  180fb4:	18c00217 	ldw	r3,8(r3)
  180fb8:	20c7883a 	add	r3,r4,r3
  180fbc:	10c00215 	stw	r3,8(r2)
  vtp->vt_prev->vt_next = vtp->vt_next;
  180fc0:	e0bfff17 	ldw	r2,-4(fp)
  180fc4:	10800117 	ldw	r2,4(r2)
  180fc8:	e0ffff17 	ldw	r3,-4(fp)
  180fcc:	18c00017 	ldw	r3,0(r3)
  180fd0:	10c00015 	stw	r3,0(r2)
  vtp->vt_next->vt_prev = vtp->vt_prev;
  180fd4:	e0bfff17 	ldw	r2,-4(fp)
  180fd8:	10800017 	ldw	r2,0(r2)
  180fdc:	e0ffff17 	ldw	r3,-4(fp)
  180fe0:	18c00117 	ldw	r3,4(r3)
  180fe4:	10c00115 	stw	r3,4(r2)
  vtp->vt_func = (vtfunc_t)NULL;
  180fe8:	e0bfff17 	ldw	r2,-4(fp)
  180fec:	10000315 	stw	zero,12(r2)
}
  180ff0:	e037883a 	mov	sp,fp
  180ff4:	df000017 	ldw	fp,0(sp)
  180ff8:	dec00104 	addi	sp,sp,4
  180ffc:	f800283a 	ret

00181000 <chTimeIsWithin>:
 * @retval TRUE         current time within the specified time window.
 * @retval FALSE        current time not within the specified time window.
 *
 * @api
 */
bool_t chTimeIsWithin(systime_t start, systime_t end) {
  181000:	defffc04 	addi	sp,sp,-16
  181004:	df000315 	stw	fp,12(sp)
  181008:	df000304 	addi	fp,sp,12
  18100c:	e13ffe15 	stw	r4,-8(fp)
  181010:	e17fff15 	stw	r5,-4(fp)

  systime_t time = chTimeNow();
  181014:	00800674 	movhi	r2,25
  181018:	10b18304 	addi	r2,r2,-14836
  18101c:	10800317 	ldw	r2,12(r2)
  181020:	e0bffd15 	stw	r2,-12(fp)
  return end > start ? (time >= start) && (time < end) :
  181024:	e0bfff17 	ldw	r2,-4(fp)
  181028:	e0fffe17 	ldw	r3,-8(fp)
  18102c:	18800a2e 	bgeu	r3,r2,181058 <chTimeIsWithin+0x58>
  181030:	e0fffd17 	ldw	r3,-12(fp)
  181034:	e0bffe17 	ldw	r2,-8(fp)
  181038:	18800536 	bltu	r3,r2,181050 <chTimeIsWithin+0x50>
  18103c:	e0fffd17 	ldw	r3,-12(fp)
  181040:	e0bfff17 	ldw	r2,-4(fp)
  181044:	1880022e 	bgeu	r3,r2,181050 <chTimeIsWithin+0x50>
  181048:	00800044 	movi	r2,1
  18104c:	00000106 	br	181054 <chTimeIsWithin+0x54>
  181050:	0005883a 	mov	r2,zero
  181054:	00000906 	br	18107c <chTimeIsWithin+0x7c>
  181058:	e0fffd17 	ldw	r3,-12(fp)
  18105c:	e0bffe17 	ldw	r2,-8(fp)
  181060:	1880032e 	bgeu	r3,r2,181070 <chTimeIsWithin+0x70>
                       (time >= start) || (time < end);
  181064:	e0fffd17 	ldw	r3,-12(fp)
  181068:	e0bfff17 	ldw	r2,-4(fp)
  18106c:	1880022e 	bgeu	r3,r2,181078 <chTimeIsWithin+0x78>
 * @api
 */
bool_t chTimeIsWithin(systime_t start, systime_t end) {

  systime_t time = chTimeNow();
  return end > start ? (time >= start) && (time < end) :
  181070:	00800044 	movi	r2,1
  181074:	00000106 	br	18107c <chTimeIsWithin+0x7c>
  181078:	0005883a 	mov	r2,zero
                       (time >= start) || (time < end);
}
  18107c:	e037883a 	mov	sp,fp
  181080:	df000017 	ldw	fp,0(sp)
  181084:	dec00104 	addi	sp,sp,4
  181088:	f800283a 	ret

0018108c <_port_thread_start>:
/*                                                                         */
/*  Start a thread by invoking its work function.                          */
/***************************************************************************/
_port_thread_start:

      mov   r4, r17        /* r4 = Register Arguments (First 32 bits) */
  18108c:	8809883a 	mov	r4,r17
      mov   r5, r16        /* Store thread pointer for the callr,     */
  181090:	800b883a 	mov	r5,r16
      callr r5             /* and call the thread */
  181094:	283ee83a 	callr	r5
      call  chThdExit      /* This is the thread exit function. */
  181098:	0180c640 	call	180c64 <chThdExit>

0018109c <_port_thread_start_loop>:
      
_port_thread_start_loop:      
      br    _port_thread_start_loop
  18109c:	003fff06 	br	18109c <_port_thread_start_loop>

001810a0 <port_switch>:
/***************************************************************************/
port_switch:

      /* r4 = ntp, r5 = otp */

      addi  sp, sp, -44    /* Size of the intctx structure */
  1810a0:	defff504 	addi	sp,sp,-44
      
      stw   ra,   0(sp)
  1810a4:	dfc00015 	stw	ra,0(sp)
      stw   fp,   4(sp)
  1810a8:	df000115 	stw	fp,4(sp)
      stw   r16,  8(sp)
  1810ac:	dc000215 	stw	r16,8(sp)
      stw   r17, 12(sp)
  1810b0:	dc400315 	stw	r17,12(sp)
      stw   r18, 16(sp)
  1810b4:	dc800415 	stw	r18,16(sp)
      stw   r19, 20(sp)
  1810b8:	dcc00515 	stw	r19,20(sp)
      stw   r20, 24(sp)
  1810bc:	dd000615 	stw	r20,24(sp)
      stw   r21, 28(sp)
  1810c0:	dd400715 	stw	r21,28(sp)
      stw   r22, 32(sp)
  1810c4:	dd800815 	stw	r22,32(sp)
      stw   r23, 36(sp)
  1810c8:	ddc00915 	stw	r23,36(sp)
      
      rdctl r23, status    /* r23 is not more needed and can */
  1810cc:	002f303a 	rdctl	r23,status
      stw   r23, 40(sp)    /* be used here to store the status */
  1810d0:	ddc00a15 	stw	r23,40(sp)
      
      stw   sp, 12(r5)     /* Save old stack: otp->p_ctx.sp = sp */
  1810d4:	2ec00315 	stw	sp,12(r5)
      
      ldw   sp, 12(r4)     /* Get new stack: sp = ntp->p_ctx.sp */
  1810d8:	26c00317 	ldw	sp,12(r4)
      
      ldw   ra,   0(sp)
  1810dc:	dfc00017 	ldw	ra,0(sp)
      ldw   fp,   4(sp)
  1810e0:	df000117 	ldw	fp,4(sp)
      ldw   r16,  8(sp)
  1810e4:	dc000217 	ldw	r16,8(sp)
      ldw   r17, 12(sp)
  1810e8:	dc400317 	ldw	r17,12(sp)
      ldw   r18, 16(sp)
  1810ec:	dc800417 	ldw	r18,16(sp)
      ldw   r19, 20(sp)
  1810f0:	dcc00517 	ldw	r19,20(sp)
      ldw   r20, 24(sp)
  1810f4:	dd000617 	ldw	r20,24(sp)
      ldw   r21, 28(sp)
  1810f8:	dd400717 	ldw	r21,28(sp)
      ldw   r22, 32(sp)
  1810fc:	dd800817 	ldw	r22,32(sp)
      ldw   r23, 36(sp)
  181100:	ddc00917 	ldw	r23,36(sp)
      
      ldw   r4,  40(sp)    /* r4 is not more needed and can */
  181104:	d9000a17 	ldw	r4,40(sp)
      wrctl status, r4     /* be used here to store the status */
  181108:	2001703a 	wrctl	status,r4
      
      addi  sp, sp, 44     /* Size of the intctx structure */
  18110c:	dec00b04 	addi	sp,sp,44
      
      ret
  181110:	f800283a 	ret
   
      nop
  181114:	0001883a 	nop

00181118 <alt_load_section>:
 */

static void ALT_INLINE alt_load_section (alt_u32* from, 
                                         alt_u32* to, 
                                         alt_u32* end)
{
  181118:	defffc04 	addi	sp,sp,-16
  18111c:	df000315 	stw	fp,12(sp)
  181120:	df000304 	addi	fp,sp,12
  181124:	e13ffd15 	stw	r4,-12(fp)
  181128:	e17ffe15 	stw	r5,-8(fp)
  18112c:	e1bfff15 	stw	r6,-4(fp)
  if (to != from)
  181130:	e0fffe17 	ldw	r3,-8(fp)
  181134:	e0bffd17 	ldw	r2,-12(fp)
  181138:	18800e26 	beq	r3,r2,181174 <alt_load_section+0x5c>
  {
    while( to != end )
  18113c:	00000a06 	br	181168 <alt_load_section+0x50>
    {
      *to++ = *from++;
  181140:	e0bffd17 	ldw	r2,-12(fp)
  181144:	10c00017 	ldw	r3,0(r2)
  181148:	e0bffe17 	ldw	r2,-8(fp)
  18114c:	10c00015 	stw	r3,0(r2)
  181150:	e0bffe17 	ldw	r2,-8(fp)
  181154:	10800104 	addi	r2,r2,4
  181158:	e0bffe15 	stw	r2,-8(fp)
  18115c:	e0bffd17 	ldw	r2,-12(fp)
  181160:	10800104 	addi	r2,r2,4
  181164:	e0bffd15 	stw	r2,-12(fp)
                                         alt_u32* to, 
                                         alt_u32* end)
{
  if (to != from)
  {
    while( to != end )
  181168:	e0fffe17 	ldw	r3,-8(fp)
  18116c:	e0bfff17 	ldw	r2,-4(fp)
  181170:	18bff31e 	bne	r3,r2,181140 <alt_load_section+0x28>
    {
      *to++ = *from++;
    }
  }
}
  181174:	e037883a 	mov	sp,fp
  181178:	df000017 	ldw	fp,0(sp)
  18117c:	dec00104 	addi	sp,sp,4
  181180:	f800283a 	ret

00181184 <alt_load>:
 * there is no bootloader, so this application is responsible for loading to
 * RAM any sections that are required.
 */  

void alt_load (void)
{
  181184:	defffe04 	addi	sp,sp,-8
  181188:	dfc00115 	stw	ra,4(sp)
  18118c:	df000015 	stw	fp,0(sp)
  181190:	d839883a 	mov	fp,sp
  /* 
   * Copy the .rwdata section. 
   */

  alt_load_section (&__flash_rwdata_start, 
  181194:	01000674 	movhi	r4,25
  181198:	212a8e04 	addi	r4,r4,-21960
  18119c:	01400674 	movhi	r5,25
  1811a0:	2963cb04 	addi	r5,r5,-28884
  1811a4:	01800674 	movhi	r6,25
  1811a8:	31aa8e04 	addi	r6,r6,-21960
  1811ac:	01811180 	call	181118 <alt_load_section>

  /*
   * Copy the exception handler.
   */

  alt_load_section (&__flash_exceptions_start, 
  1811b0:	01000634 	movhi	r4,24
  1811b4:	21000804 	addi	r4,r4,32
  1811b8:	01400634 	movhi	r5,24
  1811bc:	29400804 	addi	r5,r5,32
  1811c0:	01800634 	movhi	r6,24
  1811c4:	31807104 	addi	r6,r6,452
  1811c8:	01811180 	call	181118 <alt_load_section>

  /*
   * Copy the .rodata section.
   */

  alt_load_section (&__flash_rodata_start, 
  1811cc:	01000674 	movhi	r4,25
  1811d0:	21239c04 	addi	r4,r4,-29072
  1811d4:	01400674 	movhi	r5,25
  1811d8:	29639c04 	addi	r5,r5,-29072
  1811dc:	01800674 	movhi	r6,25
  1811e0:	31a3cb04 	addi	r6,r6,-28884
  1811e4:	01811180 	call	181118 <alt_load_section>
  
  /*
   * Now ensure that the caches are in synch.
   */
  
  alt_dcache_flush_all();
  1811e8:	01847240 	call	184724 <alt_dcache_flush_all>
  alt_icache_flush_all();
  1811ec:	01849140 	call	184914 <alt_icache_flush_all>
}
  1811f0:	e037883a 	mov	sp,fp
  1811f4:	dfc00117 	ldw	ra,4(sp)
  1811f8:	df000017 	ldw	fp,0(sp)
  1811fc:	dec00204 	addi	sp,sp,8
  181200:	f800283a 	ret

00181204 <alt_main>:
 * devices/filesystems/components in the system; and call the entry point for
 * the users application, i.e. main().
 */

void alt_main (void)
{
  181204:	defffc04 	addi	sp,sp,-16
  181208:	dfc00315 	stw	ra,12(sp)
  18120c:	df000215 	stw	fp,8(sp)
  181210:	df000204 	addi	fp,sp,8
#endif

  /* ALT LOG - please see HAL/sys/alt_log_printf.h for details */
  ALT_LOG_PRINT_BOOT("[alt_main.c] Entering alt_main, calling alt_irq_init.\r\n");
  /* Initialize the interrupt controller. */
  alt_irq_init (NULL);
  181214:	0009883a 	mov	r4,zero
  181218:	01815980 	call	181598 <alt_irq_init>
static ALT_INLINE alt_irq_context ALT_ALWAYS_INLINE 
       alt_irq_disable_all (void)
{
  alt_irq_context context;

  NIOS2_READ_STATUS (context);
  18121c:	0005303a 	rdctl	r2,status
  181220:	e0bfff15 	stw	r2,-4(fp)

  NIOS2_WRITE_STATUS (context & ~NIOS2_STATUS_PIE_MSK);
  181224:	e0ffff17 	ldw	r3,-4(fp)
  181228:	00bfff84 	movi	r2,-2
  18122c:	1884703a 	and	r2,r3,r2
  181230:	1001703a 	wrctl	status,r2

  /* Initialize the operating system */
  ALT_LOG_PRINT_BOOT("[alt_main.c] Done alt_irq_init, calling alt_os_init.\r\n");
  ALT_OS_INIT();
  181234:	01842f80 	call	1842f8 <chSysInit>
  ALT_LOG_PRINT_BOOT("[alt_main.c] Done OS Init, calling alt_sem_create.\r\n");
  ALT_SEM_CREATE (&alt_fd_list_lock, 1);

  /* Initialize the device drivers/software components. */
  ALT_LOG_PRINT_BOOT("[alt_main.c] Calling alt_sys_init.\r\n");
  alt_sys_init();
  181238:	01815cc0 	call	1815cc <alt_sys_init>
   * devices be present (not equal to /dev/null) and if direct drivers
   * aren't being used.
   */

    ALT_LOG_PRINT_BOOT("[alt_main.c] Redirecting IO.\r\n");
    alt_io_redirect(ALT_STDOUT, ALT_STDIN, ALT_STDERR);
  18123c:	01000674 	movhi	r4,25
  181240:	2123b404 	addi	r4,r4,-28976
  181244:	01400674 	movhi	r5,25
  181248:	2963b404 	addi	r5,r5,-28976
  18124c:	01800674 	movhi	r6,25
  181250:	31a3b404 	addi	r6,r6,-28976
  181254:	0184cd80 	call	184cd8 <alt_io_redirect>
  /* 
   * Call the C++ constructors 
   */

  ALT_LOG_PRINT_BOOT("[alt_main.c] Calling C++ constructors.\r\n");
  _do_ctors ();
  181258:	018485c0 	call	18485c <_do_ctors>
   * redefined as _exit()). This is in the interest of reducing code footprint,
   * in that the atexit() overhead is removed when it's not needed.
   */

  ALT_LOG_PRINT_BOOT("[alt_main.c] Calling atexit.\r\n");
  atexit (_do_dtors);
  18125c:	01000634 	movhi	r4,24
  181260:	21122e04 	addi	r4,r4,18616
  181264:	01855f40 	call	1855f4 <atexit>
  ALT_LOG_PRINT_BOOT("[alt_main.c] Calling main.\r\n");

#ifdef ALT_NO_EXIT
  main (alt_argc, alt_argv, alt_envp);
#else
  result = main (alt_argc, alt_argv, alt_envp);
  181268:	d126d217 	ldw	r4,-25784(gp)
  18126c:	d0e6d317 	ldw	r3,-25780(gp)
  181270:	d0a6d417 	ldw	r2,-25776(gp)
  181274:	180b883a 	mov	r5,r3
  181278:	100d883a 	mov	r6,r2
  18127c:	01802000 	call	180200 <main>
  181280:	e0bffe15 	stw	r2,-8(fp)
  close(STDOUT_FILENO);
  181284:	01000044 	movi	r4,1
  181288:	01846580 	call	184658 <close>
  exit (result);
  18128c:	e13ffe17 	ldw	r4,-8(fp)
  181290:	01856080 	call	185608 <exit>

00181294 <alt_printf>:
/* 
 * ALT printf function 
 */
void 
alt_printf(const char* fmt, ... )
{
  181294:	defff204 	addi	sp,sp,-56
  181298:	dfc00a15 	stw	ra,40(sp)
  18129c:	df000915 	stw	fp,36(sp)
  1812a0:	df000904 	addi	fp,sp,36
  1812a4:	e1400215 	stw	r5,8(fp)
  1812a8:	e1800315 	stw	r6,12(fp)
  1812ac:	e1c00415 	stw	r7,16(fp)
  1812b0:	e13fff15 	stw	r4,-4(fp)
	va_list args;
	va_start(args, fmt);
  1812b4:	e0800204 	addi	r2,fp,8
  1812b8:	e0bffe15 	stw	r2,-8(fp)
    const char *w;
    char c;

    /* Process format string. */
    w = fmt;
  1812bc:	e0bfff17 	ldw	r2,-4(fp)
  1812c0:	e0bff715 	stw	r2,-36(fp)
    while ((c = *w++) != 0)
  1812c4:	00007306 	br	181494 <alt_printf+0x200>
    {
        /* If not a format escape character, just print  */
        /* character.  Otherwise, process format string. */
        if (c != '%')
  1812c8:	e0bff807 	ldb	r2,-32(fp)
  1812cc:	10800960 	cmpeqi	r2,r2,37
  1812d0:	1000041e 	bne	r2,zero,1812e4 <alt_printf+0x50>
        {
            alt_putchar(c);
  1812d4:	e0bff807 	ldb	r2,-32(fp)
  1812d8:	1009883a 	mov	r4,r2
  1812dc:	01814d80 	call	1814d8 <alt_putchar>
  1812e0:	00006c06 	br	181494 <alt_printf+0x200>
        }
        else
        {
            /* Get format character.  If none     */
            /* available, processing is complete. */
            if ((c = *w++) != 0)
  1812e4:	e0bff717 	ldw	r2,-36(fp)
  1812e8:	10800003 	ldbu	r2,0(r2)
  1812ec:	e0bff805 	stb	r2,-32(fp)
  1812f0:	e0bff807 	ldb	r2,-32(fp)
  1812f4:	1004c03a 	cmpne	r2,r2,zero
  1812f8:	e0fff717 	ldw	r3,-36(fp)
  1812fc:	18c00044 	addi	r3,r3,1
  181300:	e0fff715 	stw	r3,-36(fp)
  181304:	10803fcc 	andi	r2,r2,255
  181308:	10006d26 	beq	r2,zero,1814c0 <alt_printf+0x22c>
            {
                if (c == '%')
  18130c:	e0bff807 	ldb	r2,-32(fp)
  181310:	10800958 	cmpnei	r2,r2,37
  181314:	1000041e 	bne	r2,zero,181328 <alt_printf+0x94>
                {
                    /* Process "%" escape sequence. */
                    alt_putchar(c);
  181318:	e0bff807 	ldb	r2,-32(fp)
  18131c:	1009883a 	mov	r4,r2
  181320:	01814d80 	call	1814d8 <alt_putchar>
  181324:	00005b06 	br	181494 <alt_printf+0x200>
                } 
                else if (c == 'c')
  181328:	e0bff807 	ldb	r2,-32(fp)
  18132c:	108018d8 	cmpnei	r2,r2,99
  181330:	1000081e 	bne	r2,zero,181354 <alt_printf+0xc0>
                {
                    int v = va_arg(args, int);
  181334:	e0bffe17 	ldw	r2,-8(fp)
  181338:	10c00104 	addi	r3,r2,4
  18133c:	e0fffe15 	stw	r3,-8(fp)
  181340:	10800017 	ldw	r2,0(r2)
  181344:	e0bffb15 	stw	r2,-20(fp)
                    alt_putchar(v);
  181348:	e13ffb17 	ldw	r4,-20(fp)
  18134c:	01814d80 	call	1814d8 <alt_putchar>
  181350:	00005006 	br	181494 <alt_printf+0x200>
                }
                else if (c == 'x')
  181354:	e0bff807 	ldb	r2,-32(fp)
  181358:	10801e18 	cmpnei	r2,r2,120
  18135c:	1000341e 	bne	r2,zero,181430 <alt_printf+0x19c>
                {
                    /* Process hexadecimal number format. */
                    unsigned long v = va_arg(args, unsigned long);
  181360:	e0bffe17 	ldw	r2,-8(fp)
  181364:	10c00104 	addi	r3,r2,4
  181368:	e0fffe15 	stw	r3,-8(fp)
  18136c:	10800017 	ldw	r2,0(r2)
  181370:	e0bffc15 	stw	r2,-16(fp)
                    unsigned long digit;
                    int digit_shift;

                    /* If the number value is zero, just print and continue. */
                    if (v == 0)
  181374:	e0bffc17 	ldw	r2,-16(fp)
  181378:	1000031e 	bne	r2,zero,181388 <alt_printf+0xf4>
                    {
                        alt_putchar('0');
  18137c:	01000c04 	movi	r4,48
  181380:	01814d80 	call	1814d8 <alt_putchar>
                        continue;
  181384:	00004306 	br	181494 <alt_printf+0x200>
                    }

                    /* Find first non-zero digit. */
                    digit_shift = 28;
  181388:	00800704 	movi	r2,28
  18138c:	e0bff915 	stw	r2,-28(fp)
                    while (!(v & (0xF << digit_shift)))
  181390:	00000306 	br	1813a0 <alt_printf+0x10c>
                        digit_shift -= 4;
  181394:	e0bff917 	ldw	r2,-28(fp)
  181398:	10bfff04 	addi	r2,r2,-4
  18139c:	e0bff915 	stw	r2,-28(fp)
                        continue;
                    }

                    /* Find first non-zero digit. */
                    digit_shift = 28;
                    while (!(v & (0xF << digit_shift)))
  1813a0:	00c003c4 	movi	r3,15
  1813a4:	e0bff917 	ldw	r2,-28(fp)
  1813a8:	1884983a 	sll	r2,r3,r2
  1813ac:	1007883a 	mov	r3,r2
  1813b0:	e0bffc17 	ldw	r2,-16(fp)
  1813b4:	1884703a 	and	r2,r3,r2
  1813b8:	103ff626 	beq	r2,zero,181394 <alt_printf+0x100>
                        digit_shift -= 4;

                    /* Print digits. */
                    for (; digit_shift >= 0; digit_shift -= 4)
  1813bc:	00001906 	br	181424 <alt_printf+0x190>
                    {
                        digit = (v & (0xF << digit_shift)) >> digit_shift;
  1813c0:	00c003c4 	movi	r3,15
  1813c4:	e0bff917 	ldw	r2,-28(fp)
  1813c8:	1884983a 	sll	r2,r3,r2
  1813cc:	1007883a 	mov	r3,r2
  1813d0:	e0bffc17 	ldw	r2,-16(fp)
  1813d4:	1886703a 	and	r3,r3,r2
  1813d8:	e0bff917 	ldw	r2,-28(fp)
  1813dc:	1884d83a 	srl	r2,r3,r2
  1813e0:	e0bffd15 	stw	r2,-12(fp)
                        if (digit <= 9)
  1813e4:	e0bffd17 	ldw	r2,-12(fp)
  1813e8:	108002a8 	cmpgeui	r2,r2,10
  1813ec:	1000041e 	bne	r2,zero,181400 <alt_printf+0x16c>
                            c = '0' + digit;
  1813f0:	e0bffd17 	ldw	r2,-12(fp)
  1813f4:	10800c04 	addi	r2,r2,48
  1813f8:	e0bff805 	stb	r2,-32(fp)
  1813fc:	00000306 	br	18140c <alt_printf+0x178>
                        else
                            c = 'a' + digit - 10;
  181400:	e0bffd17 	ldw	r2,-12(fp)
  181404:	108015c4 	addi	r2,r2,87
  181408:	e0bff805 	stb	r2,-32(fp)
                        alt_putchar(c);
  18140c:	e0bff807 	ldb	r2,-32(fp)
  181410:	1009883a 	mov	r4,r2
  181414:	01814d80 	call	1814d8 <alt_putchar>
                    digit_shift = 28;
                    while (!(v & (0xF << digit_shift)))
                        digit_shift -= 4;

                    /* Print digits. */
                    for (; digit_shift >= 0; digit_shift -= 4)
  181418:	e0bff917 	ldw	r2,-28(fp)
  18141c:	10bfff04 	addi	r2,r2,-4
  181420:	e0bff915 	stw	r2,-28(fp)
  181424:	e0bff917 	ldw	r2,-28(fp)
  181428:	103fe50e 	bge	r2,zero,1813c0 <alt_printf+0x12c>
  18142c:	00001906 	br	181494 <alt_printf+0x200>
                        else
                            c = 'a' + digit - 10;
                        alt_putchar(c);
                    }
                }
                else if (c == 's')
  181430:	e0bff807 	ldb	r2,-32(fp)
  181434:	10801cd8 	cmpnei	r2,r2,115
  181438:	1000161e 	bne	r2,zero,181494 <alt_printf+0x200>
                {
                    /* Process string format. */
                    char *s = va_arg(args, char *);
  18143c:	e0bffe17 	ldw	r2,-8(fp)
  181440:	10c00104 	addi	r3,r2,4
  181444:	e0fffe15 	stw	r3,-8(fp)
  181448:	10800017 	ldw	r2,0(r2)
  18144c:	e0bffa15 	stw	r2,-24(fp)

                    while(*s)
  181450:	00000a06 	br	18147c <alt_printf+0x1e8>
                      alt_putchar(*s++);
  181454:	e0bffa17 	ldw	r2,-24(fp)
  181458:	10800003 	ldbu	r2,0(r2)
  18145c:	10803fcc 	andi	r2,r2,255
  181460:	1080201c 	xori	r2,r2,128
  181464:	10bfe004 	addi	r2,r2,-128
  181468:	e0fffa17 	ldw	r3,-24(fp)
  18146c:	18c00044 	addi	r3,r3,1
  181470:	e0fffa15 	stw	r3,-24(fp)
  181474:	1009883a 	mov	r4,r2
  181478:	01814d80 	call	1814d8 <alt_putchar>
                else if (c == 's')
                {
                    /* Process string format. */
                    char *s = va_arg(args, char *);

                    while(*s)
  18147c:	e0bffa17 	ldw	r2,-24(fp)
  181480:	10800003 	ldbu	r2,0(r2)
  181484:	10803fcc 	andi	r2,r2,255
  181488:	1080201c 	xori	r2,r2,128
  18148c:	10bfe004 	addi	r2,r2,-128
  181490:	103ff01e 	bne	r2,zero,181454 <alt_printf+0x1c0>
    const char *w;
    char c;

    /* Process format string. */
    w = fmt;
    while ((c = *w++) != 0)
  181494:	e0bff717 	ldw	r2,-36(fp)
  181498:	10800003 	ldbu	r2,0(r2)
  18149c:	e0bff805 	stb	r2,-32(fp)
  1814a0:	e0bff807 	ldb	r2,-32(fp)
  1814a4:	1004c03a 	cmpne	r2,r2,zero
  1814a8:	e0fff717 	ldw	r3,-36(fp)
  1814ac:	18c00044 	addi	r3,r3,1
  1814b0:	e0fff715 	stw	r3,-36(fp)
  1814b4:	10803fcc 	andi	r2,r2,255
  1814b8:	103f831e 	bne	r2,zero,1812c8 <alt_printf+0x34>
  1814bc:	00000106 	br	1814c4 <alt_printf+0x230>
                      alt_putchar(*s++);
                }
            }
            else
            {
                break;
  1814c0:	0001883a 	nop
            }
        }
    }
}
  1814c4:	e037883a 	mov	sp,fp
  1814c8:	dfc00117 	ldw	ra,4(sp)
  1814cc:	df000017 	ldw	fp,0(sp)
  1814d0:	dec00504 	addi	sp,sp,20
  1814d4:	f800283a 	ret

001814d8 <alt_putchar>:
 * Uses the ALT_DRIVER_WRITE() macro to call directly to driver if available.
 * Otherwise, uses newlib provided putchar() routine.
 */
int 
alt_putchar(int c)
{
  1814d8:	defffd04 	addi	sp,sp,-12
  1814dc:	dfc00215 	stw	ra,8(sp)
  1814e0:	df000115 	stw	fp,4(sp)
  1814e4:	df000104 	addi	fp,sp,4
  1814e8:	e13fff15 	stw	r4,-4(fp)
    if (ALT_DRIVER_WRITE(ALT_STDOUT_DEV, &c1, 1, 0) == -1) {
        return -1;
    }
    return c;
#else
    return putchar(c);
  1814ec:	00800674 	movhi	r2,25
  1814f0:	10aa8a04 	addi	r2,r2,-21976
  1814f4:	10800017 	ldw	r2,0(r2)
  1814f8:	10800217 	ldw	r2,8(r2)
  1814fc:	e13fff17 	ldw	r4,-4(fp)
  181500:	100b883a 	mov	r5,r2
  181504:	01868340 	call	186834 <putc>
#endif
}
  181508:	e037883a 	mov	sp,fp
  18150c:	dfc00117 	ldw	ra,4(sp)
  181510:	df000017 	ldw	fp,0(sp)
  181514:	dec00204 	addi	sp,sp,8
  181518:	f800283a 	ret

0018151c <alt_putstr>:
 * Uses the ALT_DRIVER_WRITE() macro to call directly to driver if available.
 * Otherwise, uses newlib provided fputs() routine.
 */
int 
alt_putstr(const char* str)
{
  18151c:	defffd04 	addi	sp,sp,-12
  181520:	dfc00215 	stw	ra,8(sp)
  181524:	df000115 	stw	fp,4(sp)
  181528:	df000104 	addi	fp,sp,4
  18152c:	e13fff15 	stw	r4,-4(fp)
#ifdef ALT_USE_DIRECT_DRIVERS
    ALT_DRIVER_WRITE_EXTERNS(ALT_STDOUT_DEV);
    return ALT_DRIVER_WRITE(ALT_STDOUT_DEV, str, strlen(str), 0);
#else
    return fputs(str, stdout);
  181530:	00800674 	movhi	r2,25
  181534:	10aa8a04 	addi	r2,r2,-21976
  181538:	10800017 	ldw	r2,0(r2)
  18153c:	10800217 	ldw	r2,8(r2)
  181540:	e13fff17 	ldw	r4,-4(fp)
  181544:	100b883a 	mov	r5,r2
  181548:	01856b40 	call	1856b4 <fputs>
#endif
}
  18154c:	e037883a 	mov	sp,fp
  181550:	dfc00117 	ldw	ra,4(sp)
  181554:	df000017 	ldw	fp,0(sp)
  181558:	dec00204 	addi	sp,sp,8
  18155c:	f800283a 	ret

00181560 <alt_dev_reg>:
 */

extern int alt_fs_reg  (alt_dev* dev); 

static ALT_INLINE int alt_dev_reg (alt_dev* dev)
{
  181560:	defffd04 	addi	sp,sp,-12
  181564:	dfc00215 	stw	ra,8(sp)
  181568:	df000115 	stw	fp,4(sp)
  18156c:	df000104 	addi	fp,sp,4
  181570:	e13fff15 	stw	r4,-4(fp)
  extern alt_llist alt_dev_list;

  return alt_dev_llist_insert ((alt_dev_llist*) dev, &alt_dev_list);
  181574:	e13fff17 	ldw	r4,-4(fp)
  181578:	01400674 	movhi	r5,25
  18157c:	296a8204 	addi	r5,r5,-22008
  181580:	01847bc0 	call	1847bc <alt_dev_llist_insert>
}
  181584:	e037883a 	mov	sp,fp
  181588:	dfc00117 	ldw	ra,4(sp)
  18158c:	df000017 	ldw	fp,0(sp)
  181590:	dec00204 	addi	sp,sp,8
  181594:	f800283a 	ret

00181598 <alt_irq_init>:
 * The "base" parameter is ignored and only
 * present for backwards-compatibility.
 */

void alt_irq_init ( const void* base )
{
  181598:	defffd04 	addi	sp,sp,-12
  18159c:	dfc00215 	stw	ra,8(sp)
  1815a0:	df000115 	stw	fp,4(sp)
  1815a4:	df000104 	addi	fp,sp,4
  1815a8:	e13fff15 	stw	r4,-4(fp)
    ALTERA_NIOS2_QSYS_IRQ_INIT ( CPU, cpu);
  1815ac:	01852040 	call	185204 <altera_nios2_qsys_irq_init>
 * alt_irq_cpu_enable_interrupts() enables the CPU to start taking interrupts.
 */
static ALT_INLINE void ALT_ALWAYS_INLINE 
       alt_irq_cpu_enable_interrupts ()
{
    NIOS2_WRITE_STATUS(NIOS2_STATUS_PIE_MSK
  1815b0:	00800044 	movi	r2,1
  1815b4:	1001703a 	wrctl	status,r2
    alt_irq_cpu_enable_interrupts();
}
  1815b8:	e037883a 	mov	sp,fp
  1815bc:	dfc00117 	ldw	ra,4(sp)
  1815c0:	df000017 	ldw	fp,0(sp)
  1815c4:	dec00204 	addi	sp,sp,8
  1815c8:	f800283a 	ret

001815cc <alt_sys_init>:
 * Initialize the non-interrupt controller devices.
 * Called after alt_irq_init().
 */

void alt_sys_init( void )
{
  1815cc:	defffe04 	addi	sp,sp,-8
  1815d0:	dfc00115 	stw	ra,4(sp)
  1815d4:	df000015 	stw	fp,0(sp)
  1815d8:	d839883a 	mov	fp,sp
    ALTERA_AVALON_TIMER_INIT ( TIMER_0, timer_0);
  1815dc:	01000834 	movhi	r4,32
  1815e0:	21040804 	addi	r4,r4,4128
  1815e4:	000b883a 	mov	r5,zero
  1815e8:	01800044 	movi	r6,1
  1815ec:	01c0fa04 	movi	r7,1000
  1815f0:	01821240 	call	182124 <alt_avalon_timer_sc_init>
    ALTERA_AVALON_JTAG_UART_INIT ( JTAG_UART, jtag_uart);
  1815f4:	01000674 	movhi	r4,25
  1815f8:	2123d504 	addi	r4,r4,-28844
  1815fc:	000b883a 	mov	r5,zero
  181600:	000d883a 	mov	r6,zero
  181604:	01817b00 	call	1817b0 <altera_avalon_jtag_uart_init>
  181608:	01000674 	movhi	r4,25
  18160c:	2123cb04 	addi	r4,r4,-28884
  181610:	01815600 	call	181560 <alt_dev_reg>
    ALTERA_AVALON_SYSID_QSYS_INIT ( SYSID, sysid);
  181614:	0001883a 	nop
    ALTERA_AVALON_UART_INIT ( UART_0, uart_0);
  181618:	01000674 	movhi	r4,25
  18161c:	2127ed04 	addi	r4,r4,-24652
  181620:	000b883a 	mov	r5,zero
  181624:	01800084 	movi	r6,2
  181628:	01822bc0 	call	1822bc <altera_avalon_uart_init>
  18162c:	01000674 	movhi	r4,25
  181630:	2127e304 	addi	r4,r4,-24692
  181634:	01815600 	call	181560 <alt_dev_reg>
}
  181638:	e037883a 	mov	sp,fp
  18163c:	dfc00117 	ldw	ra,4(sp)
  181640:	df000017 	ldw	fp,0(sp)
  181644:	dec00204 	addi	sp,sp,8
  181648:	f800283a 	ret

0018164c <altera_avalon_jtag_uart_read_fd>:
 *
 */

int 
altera_avalon_jtag_uart_read_fd(alt_fd* fd, char* buffer, int space)
{
  18164c:	defffa04 	addi	sp,sp,-24
  181650:	dfc00515 	stw	ra,20(sp)
  181654:	df000415 	stw	fp,16(sp)
  181658:	df000404 	addi	fp,sp,16
  18165c:	e13ffd15 	stw	r4,-12(fp)
  181660:	e17ffe15 	stw	r5,-8(fp)
  181664:	e1bfff15 	stw	r6,-4(fp)
    altera_avalon_jtag_uart_dev* dev = (altera_avalon_jtag_uart_dev*) fd->dev; 
  181668:	e0bffd17 	ldw	r2,-12(fp)
  18166c:	10800017 	ldw	r2,0(r2)
  181670:	e0bffc15 	stw	r2,-16(fp)

    return altera_avalon_jtag_uart_read(&dev->state, buffer, space,
  181674:	e0bffc17 	ldw	r2,-16(fp)
  181678:	10c00a04 	addi	r3,r2,40
      fd->fd_flags);
  18167c:	e0bffd17 	ldw	r2,-12(fp)
int 
altera_avalon_jtag_uart_read_fd(alt_fd* fd, char* buffer, int space)
{
    altera_avalon_jtag_uart_dev* dev = (altera_avalon_jtag_uart_dev*) fd->dev; 

    return altera_avalon_jtag_uart_read(&dev->state, buffer, space,
  181680:	10800217 	ldw	r2,8(r2)
  181684:	1809883a 	mov	r4,r3
  181688:	e17ffe17 	ldw	r5,-8(fp)
  18168c:	e1bfff17 	ldw	r6,-4(fp)
  181690:	100f883a 	mov	r7,r2
  181694:	0181c740 	call	181c74 <altera_avalon_jtag_uart_read>
      fd->fd_flags);
}
  181698:	e037883a 	mov	sp,fp
  18169c:	dfc00117 	ldw	ra,4(sp)
  1816a0:	df000017 	ldw	fp,0(sp)
  1816a4:	dec00204 	addi	sp,sp,8
  1816a8:	f800283a 	ret

001816ac <altera_avalon_jtag_uart_write_fd>:

int 
altera_avalon_jtag_uart_write_fd(alt_fd* fd, const char* buffer, int space)
{
  1816ac:	defffa04 	addi	sp,sp,-24
  1816b0:	dfc00515 	stw	ra,20(sp)
  1816b4:	df000415 	stw	fp,16(sp)
  1816b8:	df000404 	addi	fp,sp,16
  1816bc:	e13ffd15 	stw	r4,-12(fp)
  1816c0:	e17ffe15 	stw	r5,-8(fp)
  1816c4:	e1bfff15 	stw	r6,-4(fp)
    altera_avalon_jtag_uart_dev* dev = (altera_avalon_jtag_uart_dev*) fd->dev; 
  1816c8:	e0bffd17 	ldw	r2,-12(fp)
  1816cc:	10800017 	ldw	r2,0(r2)
  1816d0:	e0bffc15 	stw	r2,-16(fp)

    return altera_avalon_jtag_uart_write(&dev->state, buffer, space,
  1816d4:	e0bffc17 	ldw	r2,-16(fp)
  1816d8:	10c00a04 	addi	r3,r2,40
      fd->fd_flags);
  1816dc:	e0bffd17 	ldw	r2,-12(fp)
int 
altera_avalon_jtag_uart_write_fd(alt_fd* fd, const char* buffer, int space)
{
    altera_avalon_jtag_uart_dev* dev = (altera_avalon_jtag_uart_dev*) fd->dev; 

    return altera_avalon_jtag_uart_write(&dev->state, buffer, space,
  1816e0:	10800217 	ldw	r2,8(r2)
  1816e4:	1809883a 	mov	r4,r3
  1816e8:	e17ffe17 	ldw	r5,-8(fp)
  1816ec:	e1bfff17 	ldw	r6,-4(fp)
  1816f0:	100f883a 	mov	r7,r2
  1816f4:	0181e8c0 	call	181e8c <altera_avalon_jtag_uart_write>
      fd->fd_flags);
}
  1816f8:	e037883a 	mov	sp,fp
  1816fc:	dfc00117 	ldw	ra,4(sp)
  181700:	df000017 	ldw	fp,0(sp)
  181704:	dec00204 	addi	sp,sp,8
  181708:	f800283a 	ret

0018170c <altera_avalon_jtag_uart_close_fd>:

#ifndef ALTERA_AVALON_JTAG_UART_SMALL

int 
altera_avalon_jtag_uart_close_fd(alt_fd* fd)
{
  18170c:	defffc04 	addi	sp,sp,-16
  181710:	dfc00315 	stw	ra,12(sp)
  181714:	df000215 	stw	fp,8(sp)
  181718:	df000204 	addi	fp,sp,8
  18171c:	e13fff15 	stw	r4,-4(fp)
    altera_avalon_jtag_uart_dev* dev = (altera_avalon_jtag_uart_dev*) fd->dev; 
  181720:	e0bfff17 	ldw	r2,-4(fp)
  181724:	10800017 	ldw	r2,0(r2)
  181728:	e0bffe15 	stw	r2,-8(fp)

    return altera_avalon_jtag_uart_close(&dev->state, fd->fd_flags);
  18172c:	e0bffe17 	ldw	r2,-8(fp)
  181730:	10c00a04 	addi	r3,r2,40
  181734:	e0bfff17 	ldw	r2,-4(fp)
  181738:	10800217 	ldw	r2,8(r2)
  18173c:	1809883a 	mov	r4,r3
  181740:	100b883a 	mov	r5,r2
  181744:	0181b180 	call	181b18 <altera_avalon_jtag_uart_close>
}
  181748:	e037883a 	mov	sp,fp
  18174c:	dfc00117 	ldw	ra,4(sp)
  181750:	df000017 	ldw	fp,0(sp)
  181754:	dec00204 	addi	sp,sp,8
  181758:	f800283a 	ret

0018175c <altera_avalon_jtag_uart_ioctl_fd>:

int 
altera_avalon_jtag_uart_ioctl_fd(alt_fd* fd, int req, void* arg)
{
  18175c:	defffa04 	addi	sp,sp,-24
  181760:	dfc00515 	stw	ra,20(sp)
  181764:	df000415 	stw	fp,16(sp)
  181768:	df000404 	addi	fp,sp,16
  18176c:	e13ffd15 	stw	r4,-12(fp)
  181770:	e17ffe15 	stw	r5,-8(fp)
  181774:	e1bfff15 	stw	r6,-4(fp)
    altera_avalon_jtag_uart_dev* dev = (altera_avalon_jtag_uart_dev*) fd->dev;
  181778:	e0bffd17 	ldw	r2,-12(fp)
  18177c:	10800017 	ldw	r2,0(r2)
  181780:	e0bffc15 	stw	r2,-16(fp)

    return altera_avalon_jtag_uart_ioctl(&dev->state, req, arg);
  181784:	e0bffc17 	ldw	r2,-16(fp)
  181788:	10800a04 	addi	r2,r2,40
  18178c:	1009883a 	mov	r4,r2
  181790:	e17ffe17 	ldw	r5,-8(fp)
  181794:	e1bfff17 	ldw	r6,-4(fp)
  181798:	0181b800 	call	181b80 <altera_avalon_jtag_uart_ioctl>
}
  18179c:	e037883a 	mov	sp,fp
  1817a0:	dfc00117 	ldw	ra,4(sp)
  1817a4:	df000017 	ldw	fp,0(sp)
  1817a8:	dec00204 	addi	sp,sp,8
  1817ac:	f800283a 	ret

001817b0 <altera_avalon_jtag_uart_init>:
 * Return 1 on sucessful IRQ register and 0 on failure.
 */

void altera_avalon_jtag_uart_init(altera_avalon_jtag_uart_state* sp, 
                                  int irq_controller_id, int irq)
{
  1817b0:	defffa04 	addi	sp,sp,-24
  1817b4:	dfc00515 	stw	ra,20(sp)
  1817b8:	df000415 	stw	fp,16(sp)
  1817bc:	df000404 	addi	fp,sp,16
  1817c0:	e13ffd15 	stw	r4,-12(fp)
  1817c4:	e17ffe15 	stw	r5,-8(fp)
  1817c8:	e1bfff15 	stw	r6,-4(fp)
  ALT_FLAG_CREATE(&sp->events, 0);
  ALT_SEM_CREATE(&sp->read_lock, 1);
  ALT_SEM_CREATE(&sp->write_lock, 1);

  /* enable read interrupts at the device */
  sp->irq_enable = ALTERA_AVALON_JTAG_UART_CONTROL_RE_MSK;
  1817cc:	e0bffd17 	ldw	r2,-12(fp)
  1817d0:	00c00044 	movi	r3,1
  1817d4:	10c00815 	stw	r3,32(r2)

  IOWR_ALTERA_AVALON_JTAG_UART_CONTROL(sp->base, sp->irq_enable); 
  1817d8:	e0bffd17 	ldw	r2,-12(fp)
  1817dc:	10800017 	ldw	r2,0(r2)
  1817e0:	10800104 	addi	r2,r2,4
  1817e4:	e0fffd17 	ldw	r3,-12(fp)
  1817e8:	18c00817 	ldw	r3,32(r3)
  1817ec:	10c00035 	stwio	r3,0(r2)
  
  /* register the interrupt handler */
#ifdef ALT_ENHANCED_INTERRUPT_API_PRESENT
  alt_ic_isr_register(irq_controller_id, irq, altera_avalon_jtag_uart_irq, 
  1817f0:	e0fffe17 	ldw	r3,-8(fp)
  1817f4:	e0bfff17 	ldw	r2,-4(fp)
  1817f8:	d8000015 	stw	zero,0(sp)
  1817fc:	1809883a 	mov	r4,r3
  181800:	100b883a 	mov	r5,r2
  181804:	01800634 	movhi	r6,24
  181808:	31861c04 	addi	r6,r6,6256
  18180c:	e1fffd17 	ldw	r7,-12(fp)
  181810:	01849300 	call	184930 <alt_ic_isr_register>
#else
  alt_irq_register(irq, sp, altera_avalon_jtag_uart_irq);
#endif  

  /* Register an alarm to go off every second to check for presence of host */
  sp->host_inactive = 0;
  181814:	e0bffd17 	ldw	r2,-12(fp)
  181818:	10000915 	stw	zero,36(r2)

  if (alt_alarm_start(&sp->alarm, alt_ticks_per_second(), 
  18181c:	e0bffd17 	ldw	r2,-12(fp)
  181820:	10c00204 	addi	r3,r2,8
 * Obtain the system clock rate in ticks/s. 
 */

static ALT_INLINE alt_u32 ALT_ALWAYS_INLINE alt_ticks_per_second (void)
{
  return _alt_tick_rate;
  181824:	00800674 	movhi	r2,25
  181828:	10b15804 	addi	r2,r2,-15008
  18182c:	10800017 	ldw	r2,0(r2)
  181830:	1809883a 	mov	r4,r3
  181834:	100b883a 	mov	r5,r2
  181838:	01800634 	movhi	r6,24
  18183c:	31869d04 	addi	r6,r6,6772
  181840:	e1fffd17 	ldw	r7,-12(fp)
  181844:	01844c80 	call	1844c8 <alt_alarm_start>
  181848:	1000040e 	bge	r2,zero,18185c <altera_avalon_jtag_uart_init+0xac>
    &altera_avalon_jtag_uart_timeout, sp) < 0)
  {
    /* If we can't set the alarm then record "don't know if host present" 
     * and behave as though the host is present.
     */
    sp->timeout = INT_MAX;
  18184c:	e0bffd17 	ldw	r2,-12(fp)
  181850:	00e00034 	movhi	r3,32768
  181854:	18ffffc4 	addi	r3,r3,-1
  181858:	10c00115 	stw	r3,4(r2)
  }

  /* ALT_LOG - see altera_hal/HAL/inc/sys/alt_log_printf.h */ 
  ALT_LOG_JTAG_UART_ALARM_REGISTER(sp, sp->base);
}
  18185c:	e037883a 	mov	sp,fp
  181860:	dfc00117 	ldw	ra,4(sp)
  181864:	df000017 	ldw	fp,0(sp)
  181868:	dec00204 	addi	sp,sp,8
  18186c:	f800283a 	ret

00181870 <altera_avalon_jtag_uart_irq>:
#ifdef ALT_ENHANCED_INTERRUPT_API_PRESENT
static void altera_avalon_jtag_uart_irq(void* context)
#else
static void altera_avalon_jtag_uart_irq(void* context, alt_u32 id)
#endif
{
  181870:	defff804 	addi	sp,sp,-32
  181874:	df000715 	stw	fp,28(sp)
  181878:	df000704 	addi	fp,sp,28
  18187c:	e13fff15 	stw	r4,-4(fp)
  altera_avalon_jtag_uart_state* sp = (altera_avalon_jtag_uart_state*) context;
  181880:	e0bfff17 	ldw	r2,-4(fp)
  181884:	e0bffb15 	stw	r2,-20(fp)
  unsigned int base = sp->base;
  181888:	e0bffb17 	ldw	r2,-20(fp)
  18188c:	10800017 	ldw	r2,0(r2)
  181890:	e0bffc15 	stw	r2,-16(fp)
  181894:	00000106 	br	18189c <altera_avalon_jtag_uart_irq+0x2c>
        
        /* Dummy read to ensure IRQ is cleared prior to ISR completion */
        IORD_ALTERA_AVALON_JTAG_UART_CONTROL(base);
      }
    }
  }
  181898:	0001883a 	nop
  /* ALT_LOG - see altera_hal/HAL/inc/sys/alt_log_printf.h */ 
  ALT_LOG_JTAG_UART_ISR_FUNCTION(base, sp);

  for ( ; ; )
  {
    unsigned int control = IORD_ALTERA_AVALON_JTAG_UART_CONTROL(base);
  18189c:	e0bffc17 	ldw	r2,-16(fp)
  1818a0:	10800104 	addi	r2,r2,4
  1818a4:	10800037 	ldwio	r2,0(r2)
  1818a8:	e0bffd15 	stw	r2,-12(fp)

    /* Return once nothing more to do */
    if ((control & (ALTERA_AVALON_JTAG_UART_CONTROL_RI_MSK | ALTERA_AVALON_JTAG_UART_CONTROL_WI_MSK)) == 0)
  1818ac:	e0bffd17 	ldw	r2,-12(fp)
  1818b0:	1080c00c 	andi	r2,r2,768
  1818b4:	10006a26 	beq	r2,zero,181a60 <altera_avalon_jtag_uart_irq+0x1f0>
      break;

    if (control & ALTERA_AVALON_JTAG_UART_CONTROL_RI_MSK)
  1818b8:	e0bffd17 	ldw	r2,-12(fp)
  1818bc:	1080400c 	andi	r2,r2,256
  1818c0:	10003326 	beq	r2,zero,181990 <altera_avalon_jtag_uart_irq+0x120>
    {
      /* process a read irq.  Start by assuming that there is data in the
       * receive FIFO (otherwise why would we have been interrupted?)
       */
      unsigned int data = 1 << ALTERA_AVALON_JTAG_UART_DATA_RAVAIL_OFST;
  1818c4:	00800074 	movhi	r2,1
  1818c8:	e0bff915 	stw	r2,-28(fp)
      for ( ; ; )
      {
        /* Check whether there is space in the buffer.  If not then we must not
         * read any characters from the buffer as they will be lost.
         */
        unsigned int next = (sp->rx_in + 1) % ALTERA_AVALON_JTAG_UART_BUF_LEN;
  1818cc:	e0bffb17 	ldw	r2,-20(fp)
  1818d0:	10800a17 	ldw	r2,40(r2)
  1818d4:	10800044 	addi	r2,r2,1
  1818d8:	1081ffcc 	andi	r2,r2,2047
  1818dc:	e0bffe15 	stw	r2,-8(fp)
        if (next == sp->rx_out)
  1818e0:	e0bffb17 	ldw	r2,-20(fp)
  1818e4:	10c00b17 	ldw	r3,44(r2)
  1818e8:	e0bffe17 	ldw	r2,-8(fp)
  1818ec:	18801426 	beq	r3,r2,181940 <altera_avalon_jtag_uart_irq+0xd0>
          break;

        /* Try to remove a character from the FIFO and find out whether there
         * are any more characters remaining.
         */
        data = IORD_ALTERA_AVALON_JTAG_UART_DATA(base);
  1818f0:	e0bffc17 	ldw	r2,-16(fp)
  1818f4:	10800037 	ldwio	r2,0(r2)
  1818f8:	e0bff915 	stw	r2,-28(fp)
        
        if ((data & ALTERA_AVALON_JTAG_UART_DATA_RVALID_MSK) == 0)
  1818fc:	e0bff917 	ldw	r2,-28(fp)
  181900:	10a0000c 	andi	r2,r2,32768
  181904:	10001026 	beq	r2,zero,181948 <altera_avalon_jtag_uart_irq+0xd8>
          break;

        sp->rx_buf[sp->rx_in] = (data & ALTERA_AVALON_JTAG_UART_DATA_DATA_MSK) >> ALTERA_AVALON_JTAG_UART_DATA_DATA_OFST;
  181908:	e0bffb17 	ldw	r2,-20(fp)
  18190c:	10800a17 	ldw	r2,40(r2)
  181910:	e0fff917 	ldw	r3,-28(fp)
  181914:	e13ffb17 	ldw	r4,-20(fp)
  181918:	2085883a 	add	r2,r4,r2
  18191c:	10800e04 	addi	r2,r2,56
  181920:	10c00005 	stb	r3,0(r2)
        sp->rx_in = (sp->rx_in + 1) % ALTERA_AVALON_JTAG_UART_BUF_LEN;
  181924:	e0bffb17 	ldw	r2,-20(fp)
  181928:	10800a17 	ldw	r2,40(r2)
  18192c:	10800044 	addi	r2,r2,1
  181930:	10c1ffcc 	andi	r3,r2,2047
  181934:	e0bffb17 	ldw	r2,-20(fp)
  181938:	10c00a15 	stw	r3,40(r2)

        /* Post an event to notify jtag_uart_read that a character has been read */
        ALT_FLAG_POST (sp->events, ALT_JTAG_UART_READ_RDY, OS_FLAG_SET);
      }
  18193c:	003fe306 	br	1818cc <altera_avalon_jtag_uart_irq+0x5c>
        /* Check whether there is space in the buffer.  If not then we must not
         * read any characters from the buffer as they will be lost.
         */
        unsigned int next = (sp->rx_in + 1) % ALTERA_AVALON_JTAG_UART_BUF_LEN;
        if (next == sp->rx_out)
          break;
  181940:	0001883a 	nop
  181944:	00000106 	br	18194c <altera_avalon_jtag_uart_irq+0xdc>
         * are any more characters remaining.
         */
        data = IORD_ALTERA_AVALON_JTAG_UART_DATA(base);
        
        if ((data & ALTERA_AVALON_JTAG_UART_DATA_RVALID_MSK) == 0)
          break;
  181948:	0001883a 	nop

        /* Post an event to notify jtag_uart_read that a character has been read */
        ALT_FLAG_POST (sp->events, ALT_JTAG_UART_READ_RDY, OS_FLAG_SET);
      }

      if (data & ALTERA_AVALON_JTAG_UART_DATA_RAVAIL_MSK)
  18194c:	e0bff917 	ldw	r2,-28(fp)
  181950:	10bfffec 	andhi	r2,r2,65535
  181954:	10000e26 	beq	r2,zero,181990 <altera_avalon_jtag_uart_irq+0x120>
      {
        /* If there is still data available here then the buffer is full 
         * so turn off receive interrupts until some space becomes available.
         */
        sp->irq_enable &= ~ALTERA_AVALON_JTAG_UART_CONTROL_RE_MSK;
  181958:	e0bffb17 	ldw	r2,-20(fp)
  18195c:	10c00817 	ldw	r3,32(r2)
  181960:	00bfff84 	movi	r2,-2
  181964:	1886703a 	and	r3,r3,r2
  181968:	e0bffb17 	ldw	r2,-20(fp)
  18196c:	10c00815 	stw	r3,32(r2)
        IOWR_ALTERA_AVALON_JTAG_UART_CONTROL(base, sp->irq_enable);
  181970:	e0bffc17 	ldw	r2,-16(fp)
  181974:	10800104 	addi	r2,r2,4
  181978:	e0fffb17 	ldw	r3,-20(fp)
  18197c:	18c00817 	ldw	r3,32(r3)
  181980:	10c00035 	stwio	r3,0(r2)
        
        /* Dummy read to ensure IRQ is cleared prior to ISR completion */
        IORD_ALTERA_AVALON_JTAG_UART_CONTROL(base);
  181984:	e0bffc17 	ldw	r2,-16(fp)
  181988:	10800104 	addi	r2,r2,4
  18198c:	10800037 	ldwio	r2,0(r2)
      }
    }

    if (control & ALTERA_AVALON_JTAG_UART_CONTROL_WI_MSK)
  181990:	e0bffd17 	ldw	r2,-12(fp)
  181994:	1080800c 	andi	r2,r2,512
  181998:	103fbf26 	beq	r2,zero,181898 <altera_avalon_jtag_uart_irq+0x28>
    {
      /* process a write irq */
      unsigned int space = (control & ALTERA_AVALON_JTAG_UART_CONTROL_WSPACE_MSK) >> ALTERA_AVALON_JTAG_UART_CONTROL_WSPACE_OFST;
  18199c:	e0bffd17 	ldw	r2,-12(fp)
  1819a0:	1004d43a 	srli	r2,r2,16
  1819a4:	e0bffa15 	stw	r2,-24(fp)

      while (space > 0 && sp->tx_out != sp->tx_in)
  1819a8:	00001406 	br	1819fc <altera_avalon_jtag_uart_irq+0x18c>
      {
        IOWR_ALTERA_AVALON_JTAG_UART_DATA(base, sp->tx_buf[sp->tx_out]);
  1819ac:	e0bffc17 	ldw	r2,-16(fp)
  1819b0:	e0fffb17 	ldw	r3,-20(fp)
  1819b4:	18c00d17 	ldw	r3,52(r3)
  1819b8:	e13ffb17 	ldw	r4,-20(fp)
  1819bc:	20c7883a 	add	r3,r4,r3
  1819c0:	18c20e04 	addi	r3,r3,2104
  1819c4:	18c00003 	ldbu	r3,0(r3)
  1819c8:	18c03fcc 	andi	r3,r3,255
  1819cc:	18c0201c 	xori	r3,r3,128
  1819d0:	18ffe004 	addi	r3,r3,-128
  1819d4:	10c00035 	stwio	r3,0(r2)

        sp->tx_out = (sp->tx_out + 1) % ALTERA_AVALON_JTAG_UART_BUF_LEN;
  1819d8:	e0bffb17 	ldw	r2,-20(fp)
  1819dc:	10800d17 	ldw	r2,52(r2)
  1819e0:	10800044 	addi	r2,r2,1
  1819e4:	10c1ffcc 	andi	r3,r2,2047
  1819e8:	e0bffb17 	ldw	r2,-20(fp)
  1819ec:	10c00d15 	stw	r3,52(r2)

        /* Post an event to notify jtag_uart_write that a character has been written */
        ALT_FLAG_POST (sp->events, ALT_JTAG_UART_WRITE_RDY, OS_FLAG_SET);

        space--;
  1819f0:	e0bffa17 	ldw	r2,-24(fp)
  1819f4:	10bfffc4 	addi	r2,r2,-1
  1819f8:	e0bffa15 	stw	r2,-24(fp)
    if (control & ALTERA_AVALON_JTAG_UART_CONTROL_WI_MSK)
    {
      /* process a write irq */
      unsigned int space = (control & ALTERA_AVALON_JTAG_UART_CONTROL_WSPACE_MSK) >> ALTERA_AVALON_JTAG_UART_CONTROL_WSPACE_OFST;

      while (space > 0 && sp->tx_out != sp->tx_in)
  1819fc:	e0bffa17 	ldw	r2,-24(fp)
  181a00:	10000526 	beq	r2,zero,181a18 <altera_avalon_jtag_uart_irq+0x1a8>
  181a04:	e0bffb17 	ldw	r2,-20(fp)
  181a08:	10c00d17 	ldw	r3,52(r2)
  181a0c:	e0bffb17 	ldw	r2,-20(fp)
  181a10:	10800c17 	ldw	r2,48(r2)
  181a14:	18bfe51e 	bne	r3,r2,1819ac <altera_avalon_jtag_uart_irq+0x13c>
        ALT_FLAG_POST (sp->events, ALT_JTAG_UART_WRITE_RDY, OS_FLAG_SET);

        space--;
      }

      if (space > 0)
  181a18:	e0bffa17 	ldw	r2,-24(fp)
  181a1c:	103f9e26 	beq	r2,zero,181898 <altera_avalon_jtag_uart_irq+0x28>
      {
        /* If we don't have any more data available then turn off the TX interrupt */
        sp->irq_enable &= ~ALTERA_AVALON_JTAG_UART_CONTROL_WE_MSK;
  181a20:	e0bffb17 	ldw	r2,-20(fp)
  181a24:	10c00817 	ldw	r3,32(r2)
  181a28:	00bfff44 	movi	r2,-3
  181a2c:	1886703a 	and	r3,r3,r2
  181a30:	e0bffb17 	ldw	r2,-20(fp)
  181a34:	10c00815 	stw	r3,32(r2)
        IOWR_ALTERA_AVALON_JTAG_UART_CONTROL(sp->base, sp->irq_enable);
  181a38:	e0bffb17 	ldw	r2,-20(fp)
  181a3c:	10800017 	ldw	r2,0(r2)
  181a40:	10800104 	addi	r2,r2,4
  181a44:	e0fffb17 	ldw	r3,-20(fp)
  181a48:	18c00817 	ldw	r3,32(r3)
  181a4c:	10c00035 	stwio	r3,0(r2)
        
        /* Dummy read to ensure IRQ is cleared prior to ISR completion */
        IORD_ALTERA_AVALON_JTAG_UART_CONTROL(base);
  181a50:	e0bffc17 	ldw	r2,-16(fp)
  181a54:	10800104 	addi	r2,r2,4
  181a58:	10800037 	ldwio	r2,0(r2)
      }
    }
  }
  181a5c:	003f8e06 	br	181898 <altera_avalon_jtag_uart_irq+0x28>
  {
    unsigned int control = IORD_ALTERA_AVALON_JTAG_UART_CONTROL(base);

    /* Return once nothing more to do */
    if ((control & (ALTERA_AVALON_JTAG_UART_CONTROL_RI_MSK | ALTERA_AVALON_JTAG_UART_CONTROL_WI_MSK)) == 0)
      break;
  181a60:	0001883a 	nop
        /* Dummy read to ensure IRQ is cleared prior to ISR completion */
        IORD_ALTERA_AVALON_JTAG_UART_CONTROL(base);
      }
    }
  }
}
  181a64:	e037883a 	mov	sp,fp
  181a68:	df000017 	ldw	fp,0(sp)
  181a6c:	dec00104 	addi	sp,sp,4
  181a70:	f800283a 	ret

00181a74 <altera_avalon_jtag_uart_timeout>:
 * Timeout routine is called every second
 */

static alt_u32 
altera_avalon_jtag_uart_timeout(void* context) 
{
  181a74:	defffc04 	addi	sp,sp,-16
  181a78:	df000315 	stw	fp,12(sp)
  181a7c:	df000304 	addi	fp,sp,12
  181a80:	e13fff15 	stw	r4,-4(fp)
  altera_avalon_jtag_uart_state* sp = (altera_avalon_jtag_uart_state *) context;
  181a84:	e0bfff17 	ldw	r2,-4(fp)
  181a88:	e0bffd15 	stw	r2,-12(fp)

  unsigned int control = IORD_ALTERA_AVALON_JTAG_UART_CONTROL(sp->base);
  181a8c:	e0bffd17 	ldw	r2,-12(fp)
  181a90:	10800017 	ldw	r2,0(r2)
  181a94:	10800104 	addi	r2,r2,4
  181a98:	10800037 	ldwio	r2,0(r2)
  181a9c:	e0bffe15 	stw	r2,-8(fp)

  if (control & ALTERA_AVALON_JTAG_UART_CONTROL_AC_MSK)
  181aa0:	e0bffe17 	ldw	r2,-8(fp)
  181aa4:	1081000c 	andi	r2,r2,1024
  181aa8:	10000a26 	beq	r2,zero,181ad4 <altera_avalon_jtag_uart_timeout+0x60>
  {
    IOWR_ALTERA_AVALON_JTAG_UART_CONTROL(sp->base, sp->irq_enable | ALTERA_AVALON_JTAG_UART_CONTROL_AC_MSK);
  181aac:	e0bffd17 	ldw	r2,-12(fp)
  181ab0:	10800017 	ldw	r2,0(r2)
  181ab4:	10800104 	addi	r2,r2,4
  181ab8:	e0fffd17 	ldw	r3,-12(fp)
  181abc:	18c00817 	ldw	r3,32(r3)
  181ac0:	18c10014 	ori	r3,r3,1024
  181ac4:	10c00035 	stwio	r3,0(r2)
    sp->host_inactive = 0;
  181ac8:	e0bffd17 	ldw	r2,-12(fp)
  181acc:	10000915 	stw	zero,36(r2)
  181ad0:	00000a06 	br	181afc <altera_avalon_jtag_uart_timeout+0x88>
  }
  else if (sp->host_inactive < INT_MAX - 2) {
  181ad4:	e0bffd17 	ldw	r2,-12(fp)
  181ad8:	10800917 	ldw	r2,36(r2)
  181adc:	00e00034 	movhi	r3,32768
  181ae0:	18ffff04 	addi	r3,r3,-4
  181ae4:	18800536 	bltu	r3,r2,181afc <altera_avalon_jtag_uart_timeout+0x88>
    sp->host_inactive++;
  181ae8:	e0bffd17 	ldw	r2,-12(fp)
  181aec:	10800917 	ldw	r2,36(r2)
  181af0:	10c00044 	addi	r3,r2,1
  181af4:	e0bffd17 	ldw	r2,-12(fp)
  181af8:	10c00915 	stw	r3,36(r2)
  181afc:	00800674 	movhi	r2,25
  181b00:	10b15804 	addi	r2,r2,-15008
  181b04:	10800017 	ldw	r2,0(r2)
      ALT_FLAG_POST (sp->events, ALT_JTAG_UART_TIMEOUT, OS_FLAG_SET);
    }
  }

  return alt_ticks_per_second();
}
  181b08:	e037883a 	mov	sp,fp
  181b0c:	df000017 	ldw	fp,0(sp)
  181b10:	dec00104 	addi	sp,sp,4
  181b14:	f800283a 	ret

00181b18 <altera_avalon_jtag_uart_close>:
 * The close routine is not implemented for the small driver; instead it will
 * map to null. This is because the small driver simply waits while characters
 * are transmitted; there is no interrupt-serviced buffer to empty 
 */
int altera_avalon_jtag_uart_close(altera_avalon_jtag_uart_state* sp, int flags)
{
  181b18:	defffd04 	addi	sp,sp,-12
  181b1c:	df000215 	stw	fp,8(sp)
  181b20:	df000204 	addi	fp,sp,8
  181b24:	e13ffe15 	stw	r4,-8(fp)
  181b28:	e17fff15 	stw	r5,-4(fp)
  /* 
   * Wait for all transmit data to be emptied by the JTAG UART ISR, or
   * for a host-inactivity timeout, in which case transmit data will be lost
   */
  while ( (sp->tx_out != sp->tx_in) && (sp->host_inactive < sp->timeout) ) {
  181b2c:	00000506 	br	181b44 <altera_avalon_jtag_uart_close+0x2c>
    if (flags & O_NONBLOCK) {
  181b30:	e0bfff17 	ldw	r2,-4(fp)
  181b34:	1090000c 	andi	r2,r2,16384
  181b38:	10000226 	beq	r2,zero,181b44 <altera_avalon_jtag_uart_close+0x2c>
      return -EWOULDBLOCK; 
  181b3c:	00bffd44 	movi	r2,-11
  181b40:	00000b06 	br	181b70 <altera_avalon_jtag_uart_close+0x58>
{
  /* 
   * Wait for all transmit data to be emptied by the JTAG UART ISR, or
   * for a host-inactivity timeout, in which case transmit data will be lost
   */
  while ( (sp->tx_out != sp->tx_in) && (sp->host_inactive < sp->timeout) ) {
  181b44:	e0bffe17 	ldw	r2,-8(fp)
  181b48:	10c00d17 	ldw	r3,52(r2)
  181b4c:	e0bffe17 	ldw	r2,-8(fp)
  181b50:	10800c17 	ldw	r2,48(r2)
  181b54:	18800526 	beq	r3,r2,181b6c <altera_avalon_jtag_uart_close+0x54>
  181b58:	e0bffe17 	ldw	r2,-8(fp)
  181b5c:	10c00917 	ldw	r3,36(r2)
  181b60:	e0bffe17 	ldw	r2,-8(fp)
  181b64:	10800117 	ldw	r2,4(r2)
  181b68:	18bff136 	bltu	r3,r2,181b30 <altera_avalon_jtag_uart_close+0x18>
    if (flags & O_NONBLOCK) {
      return -EWOULDBLOCK; 
    }
  }

  return 0;
  181b6c:	0005883a 	mov	r2,zero
}
  181b70:	e037883a 	mov	sp,fp
  181b74:	df000017 	ldw	fp,0(sp)
  181b78:	dec00104 	addi	sp,sp,4
  181b7c:	f800283a 	ret

00181b80 <altera_avalon_jtag_uart_ioctl>:
/* ----------------------------------------------------------- */

int 
altera_avalon_jtag_uart_ioctl(altera_avalon_jtag_uart_state* sp, int req,
  void* arg)
{
  181b80:	defffa04 	addi	sp,sp,-24
  181b84:	df000515 	stw	fp,20(sp)
  181b88:	df000504 	addi	fp,sp,20
  181b8c:	e13ffd15 	stw	r4,-12(fp)
  181b90:	e17ffe15 	stw	r5,-8(fp)
  181b94:	e1bfff15 	stw	r6,-4(fp)
  int rc = -ENOTTY;
  181b98:	00bff9c4 	movi	r2,-25
  181b9c:	e0bffb15 	stw	r2,-20(fp)

  switch (req)
  181ba0:	e0bffe17 	ldw	r2,-8(fp)
  181ba4:	10da8060 	cmpeqi	r3,r2,27137
  181ba8:	1800031e 	bne	r3,zero,181bb8 <altera_avalon_jtag_uart_ioctl+0x38>
  181bac:	109a80a0 	cmpeqi	r2,r2,27138
  181bb0:	1000181e 	bne	r2,zero,181c14 <altera_avalon_jtag_uart_ioctl+0x94>
  181bb4:	00002606 	br	181c50 <altera_avalon_jtag_uart_ioctl+0xd0>
  {
  case TIOCSTIMEOUT:
    /* Set the time to wait until assuming host is not connected */
    if (sp->timeout != INT_MAX)
  181bb8:	e0bffd17 	ldw	r2,-12(fp)
  181bbc:	10c00117 	ldw	r3,4(r2)
  181bc0:	00a00034 	movhi	r2,32768
  181bc4:	10bfffc4 	addi	r2,r2,-1
  181bc8:	18802226 	beq	r3,r2,181c54 <altera_avalon_jtag_uart_ioctl+0xd4>
    {
      int timeout = *((int *)arg);
  181bcc:	e0bfff17 	ldw	r2,-4(fp)
  181bd0:	10800017 	ldw	r2,0(r2)
  181bd4:	e0bffc15 	stw	r2,-16(fp)
      sp->timeout = (timeout >= 2 && timeout < INT_MAX) ? timeout : INT_MAX - 1;
  181bd8:	e0bffc17 	ldw	r2,-16(fp)
  181bdc:	10800090 	cmplti	r2,r2,2
  181be0:	1000061e 	bne	r2,zero,181bfc <altera_avalon_jtag_uart_ioctl+0x7c>
  181be4:	e0fffc17 	ldw	r3,-16(fp)
  181be8:	00a00034 	movhi	r2,32768
  181bec:	10bfffc4 	addi	r2,r2,-1
  181bf0:	18800226 	beq	r3,r2,181bfc <altera_avalon_jtag_uart_ioctl+0x7c>
  181bf4:	e0bffc17 	ldw	r2,-16(fp)
  181bf8:	00000206 	br	181c04 <altera_avalon_jtag_uart_ioctl+0x84>
  181bfc:	00a00034 	movhi	r2,32768
  181c00:	10bfff84 	addi	r2,r2,-2
  181c04:	e0fffd17 	ldw	r3,-12(fp)
  181c08:	18800115 	stw	r2,4(r3)
      rc = 0;
  181c0c:	e03ffb15 	stw	zero,-20(fp)
    }
    break;
  181c10:	00001006 	br	181c54 <altera_avalon_jtag_uart_ioctl+0xd4>

  case TIOCGCONNECTED:
    /* Find out whether host is connected */
    if (sp->timeout != INT_MAX)
  181c14:	e0bffd17 	ldw	r2,-12(fp)
  181c18:	10c00117 	ldw	r3,4(r2)
  181c1c:	00a00034 	movhi	r2,32768
  181c20:	10bfffc4 	addi	r2,r2,-1
  181c24:	18800d26 	beq	r3,r2,181c5c <altera_avalon_jtag_uart_ioctl+0xdc>
    {
      *((int *)arg) = (sp->host_inactive < sp->timeout) ? 1 : 0;
  181c28:	e0bffd17 	ldw	r2,-12(fp)
  181c2c:	10c00917 	ldw	r3,36(r2)
  181c30:	e0bffd17 	ldw	r2,-12(fp)
  181c34:	10800117 	ldw	r2,4(r2)
  181c38:	1885803a 	cmpltu	r2,r3,r2
  181c3c:	10c03fcc 	andi	r3,r2,255
  181c40:	e0bfff17 	ldw	r2,-4(fp)
  181c44:	10c00015 	stw	r3,0(r2)
      rc = 0;
  181c48:	e03ffb15 	stw	zero,-20(fp)
    }
    break;
  181c4c:	00000306 	br	181c5c <altera_avalon_jtag_uart_ioctl+0xdc>

  default:
    break;
  181c50:	00000306 	br	181c60 <altera_avalon_jtag_uart_ioctl+0xe0>
    {
      int timeout = *((int *)arg);
      sp->timeout = (timeout >= 2 && timeout < INT_MAX) ? timeout : INT_MAX - 1;
      rc = 0;
    }
    break;
  181c54:	0001883a 	nop
  181c58:	00000106 	br	181c60 <altera_avalon_jtag_uart_ioctl+0xe0>
    if (sp->timeout != INT_MAX)
    {
      *((int *)arg) = (sp->host_inactive < sp->timeout) ? 1 : 0;
      rc = 0;
    }
    break;
  181c5c:	0001883a 	nop

  default:
    break;
  }

  return rc;
  181c60:	e0bffb17 	ldw	r2,-20(fp)
}
  181c64:	e037883a 	mov	sp,fp
  181c68:	df000017 	ldw	fp,0(sp)
  181c6c:	dec00104 	addi	sp,sp,4
  181c70:	f800283a 	ret

00181c74 <altera_avalon_jtag_uart_read>:
/* ----------------------------------------------------------- */

int 
altera_avalon_jtag_uart_read(altera_avalon_jtag_uart_state* sp, 
  char * buffer, int space, int flags)
{
  181c74:	defff304 	addi	sp,sp,-52
  181c78:	dfc00c15 	stw	ra,48(sp)
  181c7c:	df000b15 	stw	fp,44(sp)
  181c80:	df000b04 	addi	fp,sp,44
  181c84:	e13ffc15 	stw	r4,-16(fp)
  181c88:	e17ffd15 	stw	r5,-12(fp)
  181c8c:	e1bffe15 	stw	r6,-8(fp)
  181c90:	e1ffff15 	stw	r7,-4(fp)
  char * ptr = buffer;
  181c94:	e0bffd17 	ldw	r2,-12(fp)
  181c98:	e0bff515 	stw	r2,-44(fp)
   * When running in a multi threaded environment, obtain the "read_lock"
   * semaphore. This ensures that reading from the device is thread-safe.
   */
  ALT_SEM_PEND (sp->read_lock, 0);

  while (space > 0)
  181c9c:	00004706 	br	181dbc <altera_avalon_jtag_uart_read+0x148>
    unsigned int in, out;

    /* Read as much data as possible */
    do
    {
      in  = sp->rx_in;
  181ca0:	e0bffc17 	ldw	r2,-16(fp)
  181ca4:	10800a17 	ldw	r2,40(r2)
  181ca8:	e0bff715 	stw	r2,-36(fp)
      out = sp->rx_out;
  181cac:	e0bffc17 	ldw	r2,-16(fp)
  181cb0:	10800b17 	ldw	r2,44(r2)
  181cb4:	e0bff815 	stw	r2,-32(fp)

      if (in >= out)
  181cb8:	e0fff717 	ldw	r3,-36(fp)
  181cbc:	e0bff817 	ldw	r2,-32(fp)
  181cc0:	18800536 	bltu	r3,r2,181cd8 <altera_avalon_jtag_uart_read+0x64>
        n = in - out;
  181cc4:	e0fff717 	ldw	r3,-36(fp)
  181cc8:	e0bff817 	ldw	r2,-32(fp)
  181ccc:	1885c83a 	sub	r2,r3,r2
  181cd0:	e0bff615 	stw	r2,-40(fp)
  181cd4:	00000406 	br	181ce8 <altera_avalon_jtag_uart_read+0x74>
      else
        n = ALTERA_AVALON_JTAG_UART_BUF_LEN - out;
  181cd8:	00c20004 	movi	r3,2048
  181cdc:	e0bff817 	ldw	r2,-32(fp)
  181ce0:	1885c83a 	sub	r2,r3,r2
  181ce4:	e0bff615 	stw	r2,-40(fp)

      if (n == 0)
  181ce8:	e0bff617 	ldw	r2,-40(fp)
  181cec:	10001e26 	beq	r2,zero,181d68 <altera_avalon_jtag_uart_read+0xf4>
        break; /* No more data available */

      if (n > space)
  181cf0:	e0fffe17 	ldw	r3,-8(fp)
  181cf4:	e0bff617 	ldw	r2,-40(fp)
  181cf8:	1880022e 	bgeu	r3,r2,181d04 <altera_avalon_jtag_uart_read+0x90>
        n = space;
  181cfc:	e0bffe17 	ldw	r2,-8(fp)
  181d00:	e0bff615 	stw	r2,-40(fp)

      memcpy(ptr, sp->rx_buf + out, n);
  181d04:	e0bff817 	ldw	r2,-32(fp)
  181d08:	10800e04 	addi	r2,r2,56
  181d0c:	e0fffc17 	ldw	r3,-16(fp)
  181d10:	1885883a 	add	r2,r3,r2
  181d14:	e13ff517 	ldw	r4,-44(fp)
  181d18:	100b883a 	mov	r5,r2
  181d1c:	e1bff617 	ldw	r6,-40(fp)
  181d20:	01864ac0 	call	1864ac <memcpy>
      ptr   += n;
  181d24:	e0fff517 	ldw	r3,-44(fp)
  181d28:	e0bff617 	ldw	r2,-40(fp)
  181d2c:	1885883a 	add	r2,r3,r2
  181d30:	e0bff515 	stw	r2,-44(fp)
      space -= n;
  181d34:	e0fffe17 	ldw	r3,-8(fp)
  181d38:	e0bff617 	ldw	r2,-40(fp)
  181d3c:	1885c83a 	sub	r2,r3,r2
  181d40:	e0bffe15 	stw	r2,-8(fp)

      sp->rx_out = (out + n) % ALTERA_AVALON_JTAG_UART_BUF_LEN;
  181d44:	e0fff817 	ldw	r3,-32(fp)
  181d48:	e0bff617 	ldw	r2,-40(fp)
  181d4c:	1885883a 	add	r2,r3,r2
  181d50:	10c1ffcc 	andi	r3,r2,2047
  181d54:	e0bffc17 	ldw	r2,-16(fp)
  181d58:	10c00b15 	stw	r3,44(r2)
    }
    while (space > 0);
  181d5c:	e0bffe17 	ldw	r2,-8(fp)
  181d60:	00bfcf16 	blt	zero,r2,181ca0 <altera_avalon_jtag_uart_read+0x2c>
  181d64:	00000106 	br	181d6c <altera_avalon_jtag_uart_read+0xf8>
        n = in - out;
      else
        n = ALTERA_AVALON_JTAG_UART_BUF_LEN - out;

      if (n == 0)
        break; /* No more data available */
  181d68:	0001883a 	nop
      sp->rx_out = (out + n) % ALTERA_AVALON_JTAG_UART_BUF_LEN;
    }
    while (space > 0);

    /* If we read any data then return it */
    if (ptr != buffer)
  181d6c:	e0fff517 	ldw	r3,-44(fp)
  181d70:	e0bffd17 	ldw	r2,-12(fp)
  181d74:	1880141e 	bne	r3,r2,181dc8 <altera_avalon_jtag_uart_read+0x154>
      break;

    /* If in non-blocking mode then return error */
    if (flags & O_NONBLOCK)
  181d78:	e0bfff17 	ldw	r2,-4(fp)
  181d7c:	1090000c 	andi	r2,r2,16384
  181d80:	1000131e 	bne	r2,zero,181dd0 <altera_avalon_jtag_uart_read+0x15c>
      while (in == sp->rx_in && sp->host_inactive < sp->timeout)
        ;
    }
#else
    /* No OS: Always spin */
    while (in == sp->rx_in && sp->host_inactive < sp->timeout)
  181d84:	0001883a 	nop
  181d88:	e0bffc17 	ldw	r2,-16(fp)
  181d8c:	10c00a17 	ldw	r3,40(r2)
  181d90:	e0bff717 	ldw	r2,-36(fp)
  181d94:	1880051e 	bne	r3,r2,181dac <altera_avalon_jtag_uart_read+0x138>
  181d98:	e0bffc17 	ldw	r2,-16(fp)
  181d9c:	10c00917 	ldw	r3,36(r2)
  181da0:	e0bffc17 	ldw	r2,-16(fp)
  181da4:	10800117 	ldw	r2,4(r2)
  181da8:	18bff736 	bltu	r3,r2,181d88 <altera_avalon_jtag_uart_read+0x114>
      ;
#endif /* __ucosii__ */

    if (in == sp->rx_in)
  181dac:	e0bffc17 	ldw	r2,-16(fp)
  181db0:	10c00a17 	ldw	r3,40(r2)
  181db4:	e0bff717 	ldw	r2,-36(fp)
  181db8:	18800726 	beq	r3,r2,181dd8 <altera_avalon_jtag_uart_read+0x164>
   * When running in a multi threaded environment, obtain the "read_lock"
   * semaphore. This ensures that reading from the device is thread-safe.
   */
  ALT_SEM_PEND (sp->read_lock, 0);

  while (space > 0)
  181dbc:	e0bffe17 	ldw	r2,-8(fp)
  181dc0:	00bfb716 	blt	zero,r2,181ca0 <altera_avalon_jtag_uart_read+0x2c>
  181dc4:	00000506 	br	181ddc <altera_avalon_jtag_uart_read+0x168>
    }
    while (space > 0);

    /* If we read any data then return it */
    if (ptr != buffer)
      break;
  181dc8:	0001883a 	nop
  181dcc:	00000306 	br	181ddc <altera_avalon_jtag_uart_read+0x168>

    /* If in non-blocking mode then return error */
    if (flags & O_NONBLOCK)
      break;
  181dd0:	0001883a 	nop
  181dd4:	00000106 	br	181ddc <altera_avalon_jtag_uart_read+0x168>
    while (in == sp->rx_in && sp->host_inactive < sp->timeout)
      ;
#endif /* __ucosii__ */

    if (in == sp->rx_in)
      break;
  181dd8:	0001883a 	nop
   * semaphore so that other threads can access the buffer.
   */

  ALT_SEM_POST (sp->read_lock);

  if (ptr != buffer)
  181ddc:	e0fff517 	ldw	r3,-44(fp)
  181de0:	e0bffd17 	ldw	r2,-12(fp)
  181de4:	18801726 	beq	r3,r2,181e44 <altera_avalon_jtag_uart_read+0x1d0>
static ALT_INLINE alt_irq_context ALT_ALWAYS_INLINE 
       alt_irq_disable_all (void)
{
  alt_irq_context context;

  NIOS2_READ_STATUS (context);
  181de8:	0005303a 	rdctl	r2,status
  181dec:	e0bffa15 	stw	r2,-24(fp)

  NIOS2_WRITE_STATUS (context & ~NIOS2_STATUS_PIE_MSK);
  181df0:	e0fffa17 	ldw	r3,-24(fp)
  181df4:	00bfff84 	movi	r2,-2
  181df8:	1884703a 	and	r2,r3,r2
  181dfc:	1001703a 	wrctl	status,r2
  
  return context;
  181e00:	e0bffa17 	ldw	r2,-24(fp)
  {
    /* If we read any data then there is space in the buffer so enable interrupts */
    context = alt_irq_disable_all();
  181e04:	e0bff915 	stw	r2,-28(fp)
    sp->irq_enable |= ALTERA_AVALON_JTAG_UART_CONTROL_RE_MSK;
  181e08:	e0bffc17 	ldw	r2,-16(fp)
  181e0c:	10800817 	ldw	r2,32(r2)
  181e10:	10c00054 	ori	r3,r2,1
  181e14:	e0bffc17 	ldw	r2,-16(fp)
  181e18:	10c00815 	stw	r3,32(r2)
    IOWR_ALTERA_AVALON_JTAG_UART_CONTROL(sp->base, sp->irq_enable);
  181e1c:	e0bffc17 	ldw	r2,-16(fp)
  181e20:	10800017 	ldw	r2,0(r2)
  181e24:	10800104 	addi	r2,r2,4
  181e28:	e0fffc17 	ldw	r3,-16(fp)
  181e2c:	18c00817 	ldw	r3,32(r3)
  181e30:	10c00035 	stwio	r3,0(r2)
  181e34:	e0bff917 	ldw	r2,-28(fp)
  181e38:	e0bffb15 	stw	r2,-20(fp)
  status &= ~NIOS2_STATUS_PIE_MSK;
  status |= (context & NIOS2_STATUS_PIE_MSK);
  
  NIOS2_WRITE_STATUS (status);
#else
  NIOS2_WRITE_STATUS (context);
  181e3c:	e0bffb17 	ldw	r2,-20(fp)
  181e40:	1001703a 	wrctl	status,r2
    alt_irq_enable_all(context);
  }

  if (ptr != buffer)
  181e44:	e0fff517 	ldw	r3,-44(fp)
  181e48:	e0bffd17 	ldw	r2,-12(fp)
  181e4c:	18800426 	beq	r3,r2,181e60 <altera_avalon_jtag_uart_read+0x1ec>
    return ptr - buffer;
  181e50:	e0fff517 	ldw	r3,-44(fp)
  181e54:	e0bffd17 	ldw	r2,-12(fp)
  181e58:	1885c83a 	sub	r2,r3,r2
  181e5c:	00000606 	br	181e78 <altera_avalon_jtag_uart_read+0x204>
  else if (flags & O_NONBLOCK)
  181e60:	e0bfff17 	ldw	r2,-4(fp)
  181e64:	1090000c 	andi	r2,r2,16384
  181e68:	10000226 	beq	r2,zero,181e74 <altera_avalon_jtag_uart_read+0x200>
    return -EWOULDBLOCK;
  181e6c:	00bffd44 	movi	r2,-11
  181e70:	00000106 	br	181e78 <altera_avalon_jtag_uart_read+0x204>
  else
    return -EIO;
  181e74:	00bffec4 	movi	r2,-5
}
  181e78:	e037883a 	mov	sp,fp
  181e7c:	dfc00117 	ldw	ra,4(sp)
  181e80:	df000017 	ldw	fp,0(sp)
  181e84:	dec00204 	addi	sp,sp,8
  181e88:	f800283a 	ret

00181e8c <altera_avalon_jtag_uart_write>:
/* ----------------------------------------------------------- */

int 
altera_avalon_jtag_uart_write(altera_avalon_jtag_uart_state* sp, 
  const char * ptr, int count, int flags)
{
  181e8c:	defff304 	addi	sp,sp,-52
  181e90:	dfc00c15 	stw	ra,48(sp)
  181e94:	df000b15 	stw	fp,44(sp)
  181e98:	df000b04 	addi	fp,sp,44
  181e9c:	e13ffc15 	stw	r4,-16(fp)
  181ea0:	e17ffd15 	stw	r5,-12(fp)
  181ea4:	e1bffe15 	stw	r6,-8(fp)
  181ea8:	e1ffff15 	stw	r7,-4(fp)
  /* Remove warning at optimisation level 03 by seting out to 0 */
  unsigned int in, out=0;
  181eac:	e03ff515 	stw	zero,-44(fp)
  unsigned int n;
  alt_irq_context context;

  const char * start = ptr;
  181eb0:	e0bffd17 	ldw	r2,-12(fp)
  181eb4:	e0bff715 	stw	r2,-36(fp)
  ALT_SEM_PEND (sp->write_lock, 0);

  do
  {
    /* Copy as much as we can into the transmit buffer */
    while (count > 0)
  181eb8:	00003706 	br	181f98 <altera_avalon_jtag_uart_write+0x10c>
    {
      /* We need a stable value of the out pointer to calculate the space available */
      in  = sp->tx_in;
  181ebc:	e0bffc17 	ldw	r2,-16(fp)
  181ec0:	10800c17 	ldw	r2,48(r2)
  181ec4:	e0bff815 	stw	r2,-32(fp)
      out = sp->tx_out;
  181ec8:	e0bffc17 	ldw	r2,-16(fp)
  181ecc:	10800d17 	ldw	r2,52(r2)
  181ed0:	e0bff515 	stw	r2,-44(fp)

      if (in < out)
  181ed4:	e0fff817 	ldw	r3,-32(fp)
  181ed8:	e0bff517 	ldw	r2,-44(fp)
  181edc:	1880062e 	bgeu	r3,r2,181ef8 <altera_avalon_jtag_uart_write+0x6c>
        n = out - 1 - in;
  181ee0:	e0fff517 	ldw	r3,-44(fp)
  181ee4:	e0bff817 	ldw	r2,-32(fp)
  181ee8:	1885c83a 	sub	r2,r3,r2
  181eec:	10bfffc4 	addi	r2,r2,-1
  181ef0:	e0bff615 	stw	r2,-40(fp)
  181ef4:	00000b06 	br	181f24 <altera_avalon_jtag_uart_write+0x98>
      else if (out > 0)
  181ef8:	e0bff517 	ldw	r2,-44(fp)
  181efc:	10000526 	beq	r2,zero,181f14 <altera_avalon_jtag_uart_write+0x88>
        n = ALTERA_AVALON_JTAG_UART_BUF_LEN - in;
  181f00:	00c20004 	movi	r3,2048
  181f04:	e0bff817 	ldw	r2,-32(fp)
  181f08:	1885c83a 	sub	r2,r3,r2
  181f0c:	e0bff615 	stw	r2,-40(fp)
  181f10:	00000406 	br	181f24 <altera_avalon_jtag_uart_write+0x98>
      else
        n = ALTERA_AVALON_JTAG_UART_BUF_LEN - 1 - in;
  181f14:	00c1ffc4 	movi	r3,2047
  181f18:	e0bff817 	ldw	r2,-32(fp)
  181f1c:	1885c83a 	sub	r2,r3,r2
  181f20:	e0bff615 	stw	r2,-40(fp)

      if (n == 0)
  181f24:	e0bff617 	ldw	r2,-40(fp)
  181f28:	10001e26 	beq	r2,zero,181fa4 <altera_avalon_jtag_uart_write+0x118>
        break;

      if (n > count)
  181f2c:	e0fffe17 	ldw	r3,-8(fp)
  181f30:	e0bff617 	ldw	r2,-40(fp)
  181f34:	1880022e 	bgeu	r3,r2,181f40 <altera_avalon_jtag_uart_write+0xb4>
        n = count;
  181f38:	e0bffe17 	ldw	r2,-8(fp)
  181f3c:	e0bff615 	stw	r2,-40(fp)

      memcpy(sp->tx_buf + in, ptr, n);
  181f40:	e0bff817 	ldw	r2,-32(fp)
  181f44:	10820e04 	addi	r2,r2,2104
  181f48:	e0fffc17 	ldw	r3,-16(fp)
  181f4c:	1885883a 	add	r2,r3,r2
  181f50:	1009883a 	mov	r4,r2
  181f54:	e17ffd17 	ldw	r5,-12(fp)
  181f58:	e1bff617 	ldw	r6,-40(fp)
  181f5c:	01864ac0 	call	1864ac <memcpy>
      ptr   += n;
  181f60:	e0fffd17 	ldw	r3,-12(fp)
  181f64:	e0bff617 	ldw	r2,-40(fp)
  181f68:	1885883a 	add	r2,r3,r2
  181f6c:	e0bffd15 	stw	r2,-12(fp)
      count -= n;
  181f70:	e0fffe17 	ldw	r3,-8(fp)
  181f74:	e0bff617 	ldw	r2,-40(fp)
  181f78:	1885c83a 	sub	r2,r3,r2
  181f7c:	e0bffe15 	stw	r2,-8(fp)

      sp->tx_in = (in + n) % ALTERA_AVALON_JTAG_UART_BUF_LEN;
  181f80:	e0fff817 	ldw	r3,-32(fp)
  181f84:	e0bff617 	ldw	r2,-40(fp)
  181f88:	1885883a 	add	r2,r3,r2
  181f8c:	10c1ffcc 	andi	r3,r2,2047
  181f90:	e0bffc17 	ldw	r2,-16(fp)
  181f94:	10c00c15 	stw	r3,48(r2)
  ALT_SEM_PEND (sp->write_lock, 0);

  do
  {
    /* Copy as much as we can into the transmit buffer */
    while (count > 0)
  181f98:	e0bffe17 	ldw	r2,-8(fp)
  181f9c:	00bfc716 	blt	zero,r2,181ebc <altera_avalon_jtag_uart_write+0x30>
  181fa0:	00000106 	br	181fa8 <altera_avalon_jtag_uart_write+0x11c>
        n = ALTERA_AVALON_JTAG_UART_BUF_LEN - in;
      else
        n = ALTERA_AVALON_JTAG_UART_BUF_LEN - 1 - in;

      if (n == 0)
        break;
  181fa4:	0001883a 	nop
static ALT_INLINE alt_irq_context ALT_ALWAYS_INLINE 
       alt_irq_disable_all (void)
{
  alt_irq_context context;

  NIOS2_READ_STATUS (context);
  181fa8:	0005303a 	rdctl	r2,status
  181fac:	e0bffa15 	stw	r2,-24(fp)

  NIOS2_WRITE_STATUS (context & ~NIOS2_STATUS_PIE_MSK);
  181fb0:	e0fffa17 	ldw	r3,-24(fp)
  181fb4:	00bfff84 	movi	r2,-2
  181fb8:	1884703a 	and	r2,r3,r2
  181fbc:	1001703a 	wrctl	status,r2
  
  return context;
  181fc0:	e0bffa17 	ldw	r2,-24(fp)
     * to enable interrupts if there is no space left in the FIFO
     *
     * For now kick the interrupt routine every time to make it transmit 
     * the data 
     */
    context = alt_irq_disable_all();
  181fc4:	e0bff915 	stw	r2,-28(fp)
    sp->irq_enable |= ALTERA_AVALON_JTAG_UART_CONTROL_WE_MSK;
  181fc8:	e0bffc17 	ldw	r2,-16(fp)
  181fcc:	10800817 	ldw	r2,32(r2)
  181fd0:	10c00094 	ori	r3,r2,2
  181fd4:	e0bffc17 	ldw	r2,-16(fp)
  181fd8:	10c00815 	stw	r3,32(r2)
    IOWR_ALTERA_AVALON_JTAG_UART_CONTROL(sp->base, sp->irq_enable);
  181fdc:	e0bffc17 	ldw	r2,-16(fp)
  181fe0:	10800017 	ldw	r2,0(r2)
  181fe4:	10800104 	addi	r2,r2,4
  181fe8:	e0fffc17 	ldw	r3,-16(fp)
  181fec:	18c00817 	ldw	r3,32(r3)
  181ff0:	10c00035 	stwio	r3,0(r2)
  181ff4:	e0bff917 	ldw	r2,-28(fp)
  181ff8:	e0bffb15 	stw	r2,-20(fp)
  status &= ~NIOS2_STATUS_PIE_MSK;
  status |= (context & NIOS2_STATUS_PIE_MSK);
  
  NIOS2_WRITE_STATUS (status);
#else
  NIOS2_WRITE_STATUS (context);
  181ffc:	e0bffb17 	ldw	r2,-20(fp)
  182000:	1001703a 	wrctl	status,r2
    /* 
     * If there is any data left then either return now or block until 
     * some has been sent 
     */
    /* consider: test whether there is anything there while doing this and delay for at most 2s. */
    if (count > 0)
  182004:	e0bffe17 	ldw	r2,-8(fp)
  182008:	0080110e 	bge	zero,r2,182050 <altera_avalon_jtag_uart_write+0x1c4>
    {
      if (flags & O_NONBLOCK)
  18200c:	e0bfff17 	ldw	r2,-4(fp)
  182010:	1090000c 	andi	r2,r2,16384
  182014:	1000111e 	bne	r2,zero,18205c <altera_avalon_jtag_uart_write+0x1d0>
      /*
       * No OS present: Always wait for data to be removed from buffer.  Once
       * the interrupt routine has removed some data then we will be able to
       * insert some more.
       */
      while (out == sp->tx_out && sp->host_inactive < sp->timeout)
  182018:	0001883a 	nop
  18201c:	e0bffc17 	ldw	r2,-16(fp)
  182020:	10c00d17 	ldw	r3,52(r2)
  182024:	e0bff517 	ldw	r2,-44(fp)
  182028:	1880051e 	bne	r3,r2,182040 <altera_avalon_jtag_uart_write+0x1b4>
  18202c:	e0bffc17 	ldw	r2,-16(fp)
  182030:	10c00917 	ldw	r3,36(r2)
  182034:	e0bffc17 	ldw	r2,-16(fp)
  182038:	10800117 	ldw	r2,4(r2)
  18203c:	18bff736 	bltu	r3,r2,18201c <altera_avalon_jtag_uart_write+0x190>
        ;
#endif /* __ucosii__ */

      if (out == sp->tx_out)
  182040:	e0bffc17 	ldw	r2,-16(fp)
  182044:	10c00d17 	ldw	r3,52(r2)
  182048:	e0bff517 	ldw	r2,-44(fp)
  18204c:	18800526 	beq	r3,r2,182064 <altera_avalon_jtag_uart_write+0x1d8>
         break;
    }
  }
  while (count > 0);
  182050:	e0bffe17 	ldw	r2,-8(fp)
  182054:	00bfd016 	blt	zero,r2,181f98 <altera_avalon_jtag_uart_write+0x10c>
  182058:	00000306 	br	182068 <altera_avalon_jtag_uart_write+0x1dc>
     */
    /* consider: test whether there is anything there while doing this and delay for at most 2s. */
    if (count > 0)
    {
      if (flags & O_NONBLOCK)
        break;
  18205c:	0001883a 	nop
  182060:	00000106 	br	182068 <altera_avalon_jtag_uart_write+0x1dc>
      while (out == sp->tx_out && sp->host_inactive < sp->timeout)
        ;
#endif /* __ucosii__ */

      if (out == sp->tx_out)
         break;
  182064:	0001883a 	nop
   * Now that access to the circular buffer is complete, release the write
   * semaphore so that other threads can access the buffer.
   */
  ALT_SEM_POST (sp->write_lock);

  if (ptr != start)
  182068:	e0fffd17 	ldw	r3,-12(fp)
  18206c:	e0bff717 	ldw	r2,-36(fp)
  182070:	18800426 	beq	r3,r2,182084 <altera_avalon_jtag_uart_write+0x1f8>
    return ptr - start;
  182074:	e0fffd17 	ldw	r3,-12(fp)
  182078:	e0bff717 	ldw	r2,-36(fp)
  18207c:	1885c83a 	sub	r2,r3,r2
  182080:	00000606 	br	18209c <altera_avalon_jtag_uart_write+0x210>
  else if (flags & O_NONBLOCK)
  182084:	e0bfff17 	ldw	r2,-4(fp)
  182088:	1090000c 	andi	r2,r2,16384
  18208c:	10000226 	beq	r2,zero,182098 <altera_avalon_jtag_uart_write+0x20c>
    return -EWOULDBLOCK;
  182090:	00bffd44 	movi	r2,-11
  182094:	00000106 	br	18209c <altera_avalon_jtag_uart_write+0x210>
    sp->tx_out = sp->tx_in = 0;
    return ptr - start + count;
  }
#endif
  else
    return -EIO; /* Host not connected */
  182098:	00bffec4 	movi	r2,-5
}
  18209c:	e037883a 	mov	sp,fp
  1820a0:	dfc00117 	ldw	ra,4(sp)
  1820a4:	df000017 	ldw	fp,0(sp)
  1820a8:	dec00204 	addi	sp,sp,8
  1820ac:	f800283a 	ret

001820b0 <alt_avalon_timer_sc_irq>:
#ifdef ALT_ENHANCED_INTERRUPT_API_PRESENT
static void alt_avalon_timer_sc_irq (void* base)
#else
static void alt_avalon_timer_sc_irq (void* base, alt_u32 id)
#endif
{
  1820b0:	defffa04 	addi	sp,sp,-24
  1820b4:	dfc00515 	stw	ra,20(sp)
  1820b8:	df000415 	stw	fp,16(sp)
  1820bc:	df000404 	addi	fp,sp,16
  1820c0:	e13fff15 	stw	r4,-4(fp)
  alt_irq_context cpu_sr;
  
  /* clear the interrupt */
  IOWR_ALTERA_AVALON_TIMER_STATUS (base, 0);
  1820c4:	0007883a 	mov	r3,zero
  1820c8:	e0bfff17 	ldw	r2,-4(fp)
  1820cc:	10c00035 	stwio	r3,0(r2)
  /* 
   * Dummy read to ensure IRQ is negated before the ISR returns.
   * The control register is read because reading the status
   * register has side-effects per the register map documentation.
   */
  IORD_ALTERA_AVALON_TIMER_CONTROL (base);
  1820d0:	e0bfff17 	ldw	r2,-4(fp)
  1820d4:	10800104 	addi	r2,r2,4
  1820d8:	10800037 	ldwio	r2,0(r2)
static ALT_INLINE alt_irq_context ALT_ALWAYS_INLINE 
       alt_irq_disable_all (void)
{
  alt_irq_context context;

  NIOS2_READ_STATUS (context);
  1820dc:	0005303a 	rdctl	r2,status
  1820e0:	e0bffd15 	stw	r2,-12(fp)

  NIOS2_WRITE_STATUS (context & ~NIOS2_STATUS_PIE_MSK);
  1820e4:	e0fffd17 	ldw	r3,-12(fp)
  1820e8:	00bfff84 	movi	r2,-2
  1820ec:	1884703a 	and	r2,r3,r2
  1820f0:	1001703a 	wrctl	status,r2
  
  return context;
  1820f4:	e0bffd17 	ldw	r2,-12(fp)

  /* 
   * Notify the system of a clock tick. disable interrupts 
   * during this time to safely support ISR preemption
   */
  cpu_sr = alt_irq_disable_all();
  1820f8:	e0bffc15 	stw	r2,-16(fp)
  alt_tick ();
  1820fc:	01851000 	call	185100 <alt_tick>
  182100:	e0bffc17 	ldw	r2,-16(fp)
  182104:	e0bffe15 	stw	r2,-8(fp)
  status &= ~NIOS2_STATUS_PIE_MSK;
  status |= (context & NIOS2_STATUS_PIE_MSK);
  
  NIOS2_WRITE_STATUS (status);
#else
  NIOS2_WRITE_STATUS (context);
  182108:	e0bffe17 	ldw	r2,-8(fp)
  18210c:	1001703a 	wrctl	status,r2
  alt_irq_enable_all(cpu_sr);
}
  182110:	e037883a 	mov	sp,fp
  182114:	dfc00117 	ldw	ra,4(sp)
  182118:	df000017 	ldw	fp,0(sp)
  18211c:	dec00204 	addi	sp,sp,8
  182120:	f800283a 	ret

00182124 <alt_avalon_timer_sc_init>:
 * auto-generated alt_sys_init() function.
 */

void alt_avalon_timer_sc_init (void* base, alt_u32 irq_controller_id, 
                                alt_u32 irq, alt_u32 freq)
{
  182124:	defff804 	addi	sp,sp,-32
  182128:	dfc00715 	stw	ra,28(sp)
  18212c:	df000615 	stw	fp,24(sp)
  182130:	df000604 	addi	fp,sp,24
  182134:	e13ffc15 	stw	r4,-16(fp)
  182138:	e17ffd15 	stw	r5,-12(fp)
  18213c:	e1bffe15 	stw	r6,-8(fp)
  182140:	e1ffff15 	stw	r7,-4(fp)
  182144:	e0bfff17 	ldw	r2,-4(fp)
  182148:	e0bffb15 	stw	r2,-20(fp)
 * in order to initialise the value of the clock frequency.
 */

static ALT_INLINE int ALT_ALWAYS_INLINE alt_sysclk_init (alt_u32 nticks)
{
  if (! _alt_tick_rate)
  18214c:	00800674 	movhi	r2,25
  182150:	10b15804 	addi	r2,r2,-15008
  182154:	10800017 	ldw	r2,0(r2)
  182158:	1000041e 	bne	r2,zero,18216c <alt_avalon_timer_sc_init+0x48>
  {
    _alt_tick_rate = nticks;
  18215c:	00800674 	movhi	r2,25
  182160:	10b15804 	addi	r2,r2,-15008
  182164:	e0fffb17 	ldw	r3,-20(fp)
  182168:	10c00015 	stw	r3,0(r2)
  
  alt_sysclk_init (freq);
  
  /* set to free running mode */
  
  IOWR_ALTERA_AVALON_TIMER_CONTROL (base, 
  18216c:	e0bffc17 	ldw	r2,-16(fp)
  182170:	10800104 	addi	r2,r2,4
  182174:	00c001c4 	movi	r3,7
  182178:	10c00035 	stwio	r3,0(r2)
            ALTERA_AVALON_TIMER_CONTROL_CONT_MSK |
            ALTERA_AVALON_TIMER_CONTROL_START_MSK);

  /* register the interrupt handler, and enable the interrupt */
#ifdef ALT_ENHANCED_INTERRUPT_API_PRESENT
  alt_ic_isr_register(irq_controller_id, irq, alt_avalon_timer_sc_irq, 
  18217c:	d8000015 	stw	zero,0(sp)
  182180:	e13ffd17 	ldw	r4,-12(fp)
  182184:	e17ffe17 	ldw	r5,-8(fp)
  182188:	01800634 	movhi	r6,24
  18218c:	31882c04 	addi	r6,r6,8368
  182190:	e1fffc17 	ldw	r7,-16(fp)
  182194:	01849300 	call	184930 <alt_ic_isr_register>
                      base, NULL);
#else
  alt_irq_register (irq, base, alt_avalon_timer_sc_irq);
#endif  
}
  182198:	e037883a 	mov	sp,fp
  18219c:	dfc00117 	ldw	ra,4(sp)
  1821a0:	df000017 	ldw	fp,0(sp)
  1821a4:	dec00204 	addi	sp,sp,8
  1821a8:	f800283a 	ret

001821ac <altera_avalon_uart_read_fd>:
 *
 */

int 
altera_avalon_uart_read_fd(alt_fd* fd, char* buffer, int space)
{
  1821ac:	defffa04 	addi	sp,sp,-24
  1821b0:	dfc00515 	stw	ra,20(sp)
  1821b4:	df000415 	stw	fp,16(sp)
  1821b8:	df000404 	addi	fp,sp,16
  1821bc:	e13ffd15 	stw	r4,-12(fp)
  1821c0:	e17ffe15 	stw	r5,-8(fp)
  1821c4:	e1bfff15 	stw	r6,-4(fp)
    altera_avalon_uart_dev* dev = (altera_avalon_uart_dev*) fd->dev; 
  1821c8:	e0bffd17 	ldw	r2,-12(fp)
  1821cc:	10800017 	ldw	r2,0(r2)
  1821d0:	e0bffc15 	stw	r2,-16(fp)

    return altera_avalon_uart_read(&dev->state, buffer, space,
  1821d4:	e0bffc17 	ldw	r2,-16(fp)
  1821d8:	10c00a04 	addi	r3,r2,40
      fd->fd_flags);
  1821dc:	e0bffd17 	ldw	r2,-12(fp)
int 
altera_avalon_uart_read_fd(alt_fd* fd, char* buffer, int space)
{
    altera_avalon_uart_dev* dev = (altera_avalon_uart_dev*) fd->dev; 

    return altera_avalon_uart_read(&dev->state, buffer, space,
  1821e0:	10800217 	ldw	r2,8(r2)
  1821e4:	1809883a 	mov	r4,r3
  1821e8:	e17ffe17 	ldw	r5,-8(fp)
  1821ec:	e1bfff17 	ldw	r6,-4(fp)
  1821f0:	100f883a 	mov	r7,r2
  1821f4:	01826b40 	call	1826b4 <altera_avalon_uart_read>
      fd->fd_flags);
}
  1821f8:	e037883a 	mov	sp,fp
  1821fc:	dfc00117 	ldw	ra,4(sp)
  182200:	df000017 	ldw	fp,0(sp)
  182204:	dec00204 	addi	sp,sp,8
  182208:	f800283a 	ret

0018220c <altera_avalon_uart_write_fd>:

int 
altera_avalon_uart_write_fd(alt_fd* fd, const char* buffer, int space)
{
  18220c:	defffa04 	addi	sp,sp,-24
  182210:	dfc00515 	stw	ra,20(sp)
  182214:	df000415 	stw	fp,16(sp)
  182218:	df000404 	addi	fp,sp,16
  18221c:	e13ffd15 	stw	r4,-12(fp)
  182220:	e17ffe15 	stw	r5,-8(fp)
  182224:	e1bfff15 	stw	r6,-4(fp)
    altera_avalon_uart_dev* dev = (altera_avalon_uart_dev*) fd->dev; 
  182228:	e0bffd17 	ldw	r2,-12(fp)
  18222c:	10800017 	ldw	r2,0(r2)
  182230:	e0bffc15 	stw	r2,-16(fp)

    return altera_avalon_uart_write(&dev->state, buffer, space,
  182234:	e0bffc17 	ldw	r2,-16(fp)
  182238:	10c00a04 	addi	r3,r2,40
      fd->fd_flags);
  18223c:	e0bffd17 	ldw	r2,-12(fp)
int 
altera_avalon_uart_write_fd(alt_fd* fd, const char* buffer, int space)
{
    altera_avalon_uart_dev* dev = (altera_avalon_uart_dev*) fd->dev; 

    return altera_avalon_uart_write(&dev->state, buffer, space,
  182240:	10800217 	ldw	r2,8(r2)
  182244:	1809883a 	mov	r4,r3
  182248:	e17ffe17 	ldw	r5,-8(fp)
  18224c:	e1bfff17 	ldw	r6,-4(fp)
  182250:	100f883a 	mov	r7,r2
  182254:	01829080 	call	182908 <altera_avalon_uart_write>
      fd->fd_flags);
}
  182258:	e037883a 	mov	sp,fp
  18225c:	dfc00117 	ldw	ra,4(sp)
  182260:	df000017 	ldw	fp,0(sp)
  182264:	dec00204 	addi	sp,sp,8
  182268:	f800283a 	ret

0018226c <altera_avalon_uart_close_fd>:

#endif /* ALTERA_AVALON_UART_USE_IOCTL */

int 
altera_avalon_uart_close_fd(alt_fd* fd)
{
  18226c:	defffc04 	addi	sp,sp,-16
  182270:	dfc00315 	stw	ra,12(sp)
  182274:	df000215 	stw	fp,8(sp)
  182278:	df000204 	addi	fp,sp,8
  18227c:	e13fff15 	stw	r4,-4(fp)
    altera_avalon_uart_dev* dev = (altera_avalon_uart_dev*) fd->dev; 
  182280:	e0bfff17 	ldw	r2,-4(fp)
  182284:	10800017 	ldw	r2,0(r2)
  182288:	e0bffe15 	stw	r2,-8(fp)

    return altera_avalon_uart_close(&dev->state, fd->fd_flags);
  18228c:	e0bffe17 	ldw	r2,-8(fp)
  182290:	10c00a04 	addi	r3,r2,40
  182294:	e0bfff17 	ldw	r2,-4(fp)
  182298:	10800217 	ldw	r2,8(r2)
  18229c:	1809883a 	mov	r4,r3
  1822a0:	100b883a 	mov	r5,r2
  1822a4:	01826100 	call	182610 <altera_avalon_uart_close>
}
  1822a8:	e037883a 	mov	sp,fp
  1822ac:	dfc00117 	ldw	ra,4(sp)
  1822b0:	df000017 	ldw	fp,0(sp)
  1822b4:	dec00204 	addi	sp,sp,8
  1822b8:	f800283a 	ret

001822bc <altera_avalon_uart_init>:
  alt_u32 status);

void 
altera_avalon_uart_init(altera_avalon_uart_state* sp, 
  alt_u32 irq_controller_id,  alt_u32 irq)
{
  1822bc:	defff804 	addi	sp,sp,-32
  1822c0:	dfc00715 	stw	ra,28(sp)
  1822c4:	df000615 	stw	fp,24(sp)
  1822c8:	df000604 	addi	fp,sp,24
  1822cc:	e13ffd15 	stw	r4,-12(fp)
  1822d0:	e17ffe15 	stw	r5,-8(fp)
  1822d4:	e1bfff15 	stw	r6,-4(fp)
  void* base = sp->base;
  1822d8:	e0bffd17 	ldw	r2,-12(fp)
  1822dc:	10800017 	ldw	r2,0(r2)
  1822e0:	e0bffb15 	stw	r2,-20(fp)
 * HAL.
 */

static ALT_INLINE int ALT_ALWAYS_INLINE alt_no_error (void)
{
  return 0;
  1822e4:	0005883a 	mov	r2,zero
   * Initialise the read and write flags and the semaphores used to 
   * protect access to the circular buffers when running in a multi-threaded
   * environment.
   */
  error = ALT_FLAG_CREATE (&sp->events, 0)    || 
          ALT_SEM_CREATE (&sp->read_lock, 1)  ||
  1822e8:	1000041e 	bne	r2,zero,1822fc <altera_avalon_uart_init+0x40>
  1822ec:	0005883a 	mov	r2,zero
  /* 
   * Initialise the read and write flags and the semaphores used to 
   * protect access to the circular buffers when running in a multi-threaded
   * environment.
   */
  error = ALT_FLAG_CREATE (&sp->events, 0)    || 
  1822f0:	1000021e 	bne	r2,zero,1822fc <altera_avalon_uart_init+0x40>
  1822f4:	0005883a 	mov	r2,zero
          ALT_SEM_CREATE (&sp->read_lock, 1)  ||
  1822f8:	10000226 	beq	r2,zero,182304 <altera_avalon_uart_init+0x48>
  1822fc:	00800044 	movi	r2,1
  182300:	00000106 	br	182308 <altera_avalon_uart_init+0x4c>
  182304:	0005883a 	mov	r2,zero
  /* 
   * Initialise the read and write flags and the semaphores used to 
   * protect access to the circular buffers when running in a multi-threaded
   * environment.
   */
  error = ALT_FLAG_CREATE (&sp->events, 0)    || 
  182308:	e0bffc15 	stw	r2,-16(fp)
          ALT_SEM_CREATE (&sp->read_lock, 1)  ||
          ALT_SEM_CREATE (&sp->write_lock, 1);

  if (!error)
  18230c:	e0bffc17 	ldw	r2,-16(fp)
  182310:	10000f1e 	bne	r2,zero,182350 <altera_avalon_uart_init+0x94>
  {
    /* enable interrupts at the device */
    sp->ctrl = ALTERA_AVALON_UART_CONTROL_RTS_MSK  |
  182314:	e0bffd17 	ldw	r2,-12(fp)
  182318:	00c32004 	movi	r3,3200
  18231c:	10c00115 	stw	r3,4(r2)
                ALTERA_AVALON_UART_CONTROL_RRDY_MSK |
                ALTERA_AVALON_UART_CONTROL_DCTS_MSK;

    IOWR_ALTERA_AVALON_UART_CONTROL(base, sp->ctrl); 
  182320:	e0bffb17 	ldw	r2,-20(fp)
  182324:	10800304 	addi	r2,r2,12
  182328:	e0fffd17 	ldw	r3,-12(fp)
  18232c:	18c00117 	ldw	r3,4(r3)
  182330:	10c00035 	stwio	r3,0(r2)
  
    /* register the interrupt handler */
#ifdef ALT_ENHANCED_INTERRUPT_API_PRESENT
    alt_ic_isr_register(irq_controller_id, irq, altera_avalon_uart_irq, sp, 
  182334:	d8000015 	stw	zero,0(sp)
  182338:	e13ffe17 	ldw	r4,-8(fp)
  18233c:	e17fff17 	ldw	r5,-4(fp)
  182340:	01800634 	movhi	r6,24
  182344:	3188d904 	addi	r6,r6,9060
  182348:	e1fffd17 	ldw	r7,-12(fp)
  18234c:	01849300 	call	184930 <alt_ic_isr_register>
      0x0);
#else
    alt_irq_register (irq, sp, altera_avalon_uart_irq);
#endif  
  }
}
  182350:	e037883a 	mov	sp,fp
  182354:	dfc00117 	ldw	ra,4(sp)
  182358:	df000017 	ldw	fp,0(sp)
  18235c:	dec00204 	addi	sp,sp,8
  182360:	f800283a 	ret

00182364 <altera_avalon_uart_irq>:
#ifdef ALT_ENHANCED_INTERRUPT_API_PRESENT
static void altera_avalon_uart_irq(void* context)
#else
static void altera_avalon_uart_irq(void* context, alt_u32 id)
#endif
{
  182364:	defffa04 	addi	sp,sp,-24
  182368:	dfc00515 	stw	ra,20(sp)
  18236c:	df000415 	stw	fp,16(sp)
  182370:	df000404 	addi	fp,sp,16
  182374:	e13fff15 	stw	r4,-4(fp)
  alt_u32 status;

  altera_avalon_uart_state* sp = (altera_avalon_uart_state*) context;
  182378:	e0bfff17 	ldw	r2,-4(fp)
  18237c:	e0bffc15 	stw	r2,-16(fp)
  void* base               = sp->base;
  182380:	e0bffc17 	ldw	r2,-16(fp)
  182384:	10800017 	ldw	r2,0(r2)
  182388:	e0bffd15 	stw	r2,-12(fp)
  /*
   * Read the status register in order to determine the cause of the
   * interrupt.
   */

  status = IORD_ALTERA_AVALON_UART_STATUS(base);
  18238c:	e0bffd17 	ldw	r2,-12(fp)
  182390:	10800204 	addi	r2,r2,8
  182394:	10800037 	ldwio	r2,0(r2)
  182398:	e0bffe15 	stw	r2,-8(fp)

  /* Clear any error flags set at the device */
  IOWR_ALTERA_AVALON_UART_STATUS(base, 0);
  18239c:	e0bffd17 	ldw	r2,-12(fp)
  1823a0:	10800204 	addi	r2,r2,8
  1823a4:	0007883a 	mov	r3,zero
  1823a8:	10c00035 	stwio	r3,0(r2)

  /* Dummy read to ensure IRQ is negated before ISR returns */
  IORD_ALTERA_AVALON_UART_STATUS(base);
  1823ac:	e0bffd17 	ldw	r2,-12(fp)
  1823b0:	10800204 	addi	r2,r2,8
  1823b4:	10800037 	ldwio	r2,0(r2)
  
  /* process a read irq */
  if (status & ALTERA_AVALON_UART_STATUS_RRDY_MSK)
  1823b8:	e0bffe17 	ldw	r2,-8(fp)
  1823bc:	1080200c 	andi	r2,r2,128
  1823c0:	10000326 	beq	r2,zero,1823d0 <altera_avalon_uart_irq+0x6c>
  {
    altera_avalon_uart_rxirq(sp, status);
  1823c4:	e13ffc17 	ldw	r4,-16(fp)
  1823c8:	e17ffe17 	ldw	r5,-8(fp)
  1823cc:	01823fc0 	call	1823fc <altera_avalon_uart_rxirq>
  }

  /* process a write irq */
  if (status & (ALTERA_AVALON_UART_STATUS_TRDY_MSK | 
  1823d0:	e0bffe17 	ldw	r2,-8(fp)
  1823d4:	1081100c 	andi	r2,r2,1088
  1823d8:	10000326 	beq	r2,zero,1823e8 <altera_avalon_uart_irq+0x84>
                  ALTERA_AVALON_UART_STATUS_DCTS_MSK))
  {
    altera_avalon_uart_txirq(sp, status);
  1823dc:	e13ffc17 	ldw	r4,-16(fp)
  1823e0:	e17ffe17 	ldw	r5,-8(fp)
  1823e4:	01824d40 	call	1824d4 <altera_avalon_uart_txirq>
  }
  

}
  1823e8:	e037883a 	mov	sp,fp
  1823ec:	dfc00117 	ldw	ra,4(sp)
  1823f0:	df000017 	ldw	fp,0(sp)
  1823f4:	dec00204 	addi	sp,sp,8
  1823f8:	f800283a 	ret

001823fc <altera_avalon_uart_rxirq>:
 * the receive circular buffer, and sets the apropriate flags to indicate 
 * that there is data ready to be processed.
 */
static void 
altera_avalon_uart_rxirq(altera_avalon_uart_state* sp, alt_u32 status)
{
  1823fc:	defffc04 	addi	sp,sp,-16
  182400:	df000315 	stw	fp,12(sp)
  182404:	df000304 	addi	fp,sp,12
  182408:	e13ffe15 	stw	r4,-8(fp)
  18240c:	e17fff15 	stw	r5,-4(fp)
  alt_u32 next;
  
  /* If there was an error, discard the data */

  if (status & (ALTERA_AVALON_UART_STATUS_PE_MSK | 
  182410:	e0bfff17 	ldw	r2,-4(fp)
  182414:	108000cc 	andi	r2,r2,3
  182418:	1000291e 	bne	r2,zero,1824c0 <altera_avalon_uart_rxirq+0xc4>
   * In a multi-threaded environment, set the read event flag to indicate
   * that there is data ready. This is only done if the circular buffer was
   * previously empty.
   */

  if (sp->rx_end == sp->rx_start)
  18241c:	e0bffe17 	ldw	r2,-8(fp)
  182420:	10800317 	ldw	r2,12(r2)
    ALT_FLAG_POST (sp->events, ALT_UART_READ_RDY, OS_FLAG_SET);
  }

  /* Determine which slot to use next in the circular buffer */

  next = (sp->rx_end + 1) & ALT_AVALON_UART_BUF_MSK;
  182424:	e0bffe17 	ldw	r2,-8(fp)
  182428:	10800317 	ldw	r2,12(r2)
  18242c:	10800044 	addi	r2,r2,1
  182430:	10800fcc 	andi	r2,r2,63
  182434:	e0bffd15 	stw	r2,-12(fp)

  /* Transfer data from the device to the circular buffer */

  sp->rx_buf[sp->rx_end] = IORD_ALTERA_AVALON_UART_RXDATA(sp->base);
  182438:	e0bffe17 	ldw	r2,-8(fp)
  18243c:	10800317 	ldw	r2,12(r2)
  182440:	e0fffe17 	ldw	r3,-8(fp)
  182444:	18c00017 	ldw	r3,0(r3)
  182448:	18c00037 	ldwio	r3,0(r3)
  18244c:	e13ffe17 	ldw	r4,-8(fp)
  182450:	2085883a 	add	r2,r4,r2
  182454:	10800704 	addi	r2,r2,28
  182458:	10c00005 	stb	r3,0(r2)

  sp->rx_end = next;
  18245c:	e0bffe17 	ldw	r2,-8(fp)
  182460:	e0fffd17 	ldw	r3,-12(fp)
  182464:	10c00315 	stw	r3,12(r2)

  next = (sp->rx_end + 1) & ALT_AVALON_UART_BUF_MSK;
  182468:	e0bffe17 	ldw	r2,-8(fp)
  18246c:	10800317 	ldw	r2,12(r2)
  182470:	10800044 	addi	r2,r2,1
  182474:	10800fcc 	andi	r2,r2,63
  182478:	e0bffd15 	stw	r2,-12(fp)
  /*
   * If the cicular buffer was full, disable interrupts. Interrupts will be
   * re-enabled when data is removed from the buffer.
   */

  if (next == sp->rx_start)
  18247c:	e0bffe17 	ldw	r2,-8(fp)
  182480:	10c00217 	ldw	r3,8(r2)
  182484:	e0bffd17 	ldw	r2,-12(fp)
  182488:	18800e1e 	bne	r3,r2,1824c4 <altera_avalon_uart_rxirq+0xc8>
  {
    sp->ctrl &= ~ALTERA_AVALON_UART_CONTROL_RRDY_MSK;
  18248c:	e0bffe17 	ldw	r2,-8(fp)
  182490:	10c00117 	ldw	r3,4(r2)
  182494:	00bfdfc4 	movi	r2,-129
  182498:	1886703a 	and	r3,r3,r2
  18249c:	e0bffe17 	ldw	r2,-8(fp)
  1824a0:	10c00115 	stw	r3,4(r2)
    IOWR_ALTERA_AVALON_UART_CONTROL(sp->base, sp->ctrl); 
  1824a4:	e0bffe17 	ldw	r2,-8(fp)
  1824a8:	10800017 	ldw	r2,0(r2)
  1824ac:	10800304 	addi	r2,r2,12
  1824b0:	e0fffe17 	ldw	r3,-8(fp)
  1824b4:	18c00117 	ldw	r3,4(r3)
  1824b8:	10c00035 	stwio	r3,0(r2)
  1824bc:	00000106 	br	1824c4 <altera_avalon_uart_rxirq+0xc8>
  /* If there was an error, discard the data */

  if (status & (ALTERA_AVALON_UART_STATUS_PE_MSK | 
                  ALTERA_AVALON_UART_STATUS_FE_MSK))
  {
    return;
  1824c0:	0001883a 	nop
  if (next == sp->rx_start)
  {
    sp->ctrl &= ~ALTERA_AVALON_UART_CONTROL_RRDY_MSK;
    IOWR_ALTERA_AVALON_UART_CONTROL(sp->base, sp->ctrl); 
  }   
}
  1824c4:	e037883a 	mov	sp,fp
  1824c8:	df000017 	ldw	fp,0(sp)
  1824cc:	dec00104 	addi	sp,sp,4
  1824d0:	f800283a 	ret

001824d4 <altera_avalon_uart_txirq>:
 * buffer to the device, and sets the apropriate flags to indicate that 
 * there is data ready to be processed.
 */
static void 
altera_avalon_uart_txirq(altera_avalon_uart_state* sp, alt_u32 status)
{
  1824d4:	defffd04 	addi	sp,sp,-12
  1824d8:	df000215 	stw	fp,8(sp)
  1824dc:	df000204 	addi	fp,sp,8
  1824e0:	e13ffe15 	stw	r4,-8(fp)
  1824e4:	e17fff15 	stw	r5,-4(fp)
  /* Transfer data if there is some ready to be transfered */

  if (sp->tx_start != sp->tx_end)
  1824e8:	e0bffe17 	ldw	r2,-8(fp)
  1824ec:	10c00417 	ldw	r3,16(r2)
  1824f0:	e0bffe17 	ldw	r2,-8(fp)
  1824f4:	10800517 	ldw	r2,20(r2)
  1824f8:	18803026 	beq	r3,r2,1825bc <altera_avalon_uart_txirq+0xe8>
    /* 
     * If the device is using flow control (i.e. RTS/CTS), then the
     * transmitter is required to throttle if CTS is high.
     */

    if (!(sp->flags & ALT_AVALON_UART_FC) ||
  1824fc:	e0bffe17 	ldw	r2,-8(fp)
  182500:	10800617 	ldw	r2,24(r2)
  182504:	1080008c 	andi	r2,r2,2
  182508:	10000326 	beq	r2,zero,182518 <altera_avalon_uart_txirq+0x44>
      (status & ALTERA_AVALON_UART_STATUS_CTS_MSK))
  18250c:	e0bfff17 	ldw	r2,-4(fp)
  182510:	1082000c 	andi	r2,r2,2048
    /* 
     * If the device is using flow control (i.e. RTS/CTS), then the
     * transmitter is required to throttle if CTS is high.
     */

    if (!(sp->flags & ALT_AVALON_UART_FC) ||
  182514:	10001b26 	beq	r2,zero,182584 <altera_avalon_uart_txirq+0xb0>
       * In a multi-threaded environment, set the write event flag to indicate
       * that there is space in the circular buffer. This is only done if the
       * buffer was previously empty.
       */

      if (sp->tx_start == ((sp->tx_end + 1) & ALT_AVALON_UART_BUF_MSK))
  182518:	e0bffe17 	ldw	r2,-8(fp)
  18251c:	10800417 	ldw	r2,16(r2)
                       OS_FLAG_SET);
      }

      /* Write the data to the device */

      IOWR_ALTERA_AVALON_UART_TXDATA(sp->base, sp->tx_buf[sp->tx_start]);
  182520:	e0bffe17 	ldw	r2,-8(fp)
  182524:	10800017 	ldw	r2,0(r2)
  182528:	10800104 	addi	r2,r2,4
  18252c:	e0fffe17 	ldw	r3,-8(fp)
  182530:	18c00417 	ldw	r3,16(r3)
  182534:	e13ffe17 	ldw	r4,-8(fp)
  182538:	20c7883a 	add	r3,r4,r3
  18253c:	18c01704 	addi	r3,r3,92
  182540:	18c00003 	ldbu	r3,0(r3)
  182544:	18c03fcc 	andi	r3,r3,255
  182548:	10c00035 	stwio	r3,0(r2)

      sp->tx_start = (++sp->tx_start) & ALT_AVALON_UART_BUF_MSK;
  18254c:	e0bffe17 	ldw	r2,-8(fp)
  182550:	10800417 	ldw	r2,16(r2)
  182554:	10800044 	addi	r2,r2,1
  182558:	e0fffe17 	ldw	r3,-8(fp)
  18255c:	18800415 	stw	r2,16(r3)
  182560:	10c00fcc 	andi	r3,r2,63
  182564:	e0bffe17 	ldw	r2,-8(fp)
  182568:	10c00415 	stw	r3,16(r2)
      /*
       * In case the tranmit interrupt had previously been disabled by 
       * detecting a low value on CTS, it is reenabled here.
       */ 

      sp->ctrl |= ALTERA_AVALON_UART_CONTROL_TRDY_MSK;
  18256c:	e0bffe17 	ldw	r2,-8(fp)
  182570:	10800117 	ldw	r2,4(r2)
  182574:	10c01014 	ori	r3,r2,64
  182578:	e0bffe17 	ldw	r2,-8(fp)
  18257c:	10c00115 	stw	r3,4(r2)
  182580:	00000e06 	br	1825bc <altera_avalon_uart_txirq+0xe8>
       * the last write to the status register. To avoid this resulting in
       * deadlock, it's necessary to re-check the status register here
       * before throttling.
       */
 
      status = IORD_ALTERA_AVALON_UART_STATUS(sp->base); 
  182584:	e0bffe17 	ldw	r2,-8(fp)
  182588:	10800017 	ldw	r2,0(r2)
  18258c:	10800204 	addi	r2,r2,8
  182590:	10800037 	ldwio	r2,0(r2)
  182594:	e0bfff15 	stw	r2,-4(fp)

      if (!(status & ALTERA_AVALON_UART_STATUS_CTS_MSK))
  182598:	e0bfff17 	ldw	r2,-4(fp)
  18259c:	1082000c 	andi	r2,r2,2048
  1825a0:	1000061e 	bne	r2,zero,1825bc <altera_avalon_uart_txirq+0xe8>
      {
        sp->ctrl &= ~ALTERA_AVALON_UART_CONTROL_TRDY_MSK;
  1825a4:	e0bffe17 	ldw	r2,-8(fp)
  1825a8:	10c00117 	ldw	r3,4(r2)
  1825ac:	00bfefc4 	movi	r2,-65
  1825b0:	1886703a 	and	r3,r3,r2
  1825b4:	e0bffe17 	ldw	r2,-8(fp)
  1825b8:	10c00115 	stw	r3,4(r2)
  /*
   * If the circular buffer is empty, disable the interrupt. This will be
   * re-enabled when new data is placed in the buffer.
   */

  if (sp->tx_start == sp->tx_end)
  1825bc:	e0bffe17 	ldw	r2,-8(fp)
  1825c0:	10c00417 	ldw	r3,16(r2)
  1825c4:	e0bffe17 	ldw	r2,-8(fp)
  1825c8:	10800517 	ldw	r2,20(r2)
  1825cc:	1880061e 	bne	r3,r2,1825e8 <altera_avalon_uart_txirq+0x114>
  {
    sp->ctrl &= ~(ALTERA_AVALON_UART_CONTROL_TRDY_MSK |
  1825d0:	e0bffe17 	ldw	r2,-8(fp)
  1825d4:	10c00117 	ldw	r3,4(r2)
  1825d8:	00beefc4 	movi	r2,-1089
  1825dc:	1886703a 	and	r3,r3,r2
  1825e0:	e0bffe17 	ldw	r2,-8(fp)
  1825e4:	10c00115 	stw	r3,4(r2)
                    ALTERA_AVALON_UART_CONTROL_DCTS_MSK);
  }

  IOWR_ALTERA_AVALON_UART_CONTROL(sp->base, sp->ctrl);
  1825e8:	e0bffe17 	ldw	r2,-8(fp)
  1825ec:	10800017 	ldw	r2,0(r2)
  1825f0:	10800304 	addi	r2,r2,12
  1825f4:	e0fffe17 	ldw	r3,-8(fp)
  1825f8:	18c00117 	ldw	r3,4(r3)
  1825fc:	10c00035 	stwio	r3,0(r2)
}
  182600:	e037883a 	mov	sp,fp
  182604:	df000017 	ldw	fp,0(sp)
  182608:	dec00104 	addi	sp,sp,4
  18260c:	f800283a 	ret

00182610 <altera_avalon_uart_close>:
 * The close routine is not implemented for the small driver; instead it will
 * map to null. This is because the small driver simply waits while characters
 * are transmitted; there is no interrupt-serviced buffer to empty 
 */
int altera_avalon_uart_close(altera_avalon_uart_state* sp, int flags)
{
  182610:	defffd04 	addi	sp,sp,-12
  182614:	df000215 	stw	fp,8(sp)
  182618:	df000204 	addi	fp,sp,8
  18261c:	e13ffe15 	stw	r4,-8(fp)
  182620:	e17fff15 	stw	r5,-4(fp)
  /* 
   * Wait for all transmit data to be emptied by the UART ISR.
   */
  while (sp->tx_start != sp->tx_end) {
  182624:	00000506 	br	18263c <altera_avalon_uart_close+0x2c>
    if (flags & O_NONBLOCK) {
  182628:	e0bfff17 	ldw	r2,-4(fp)
  18262c:	1090000c 	andi	r2,r2,16384
  182630:	10000226 	beq	r2,zero,18263c <altera_avalon_uart_close+0x2c>
      return -EWOULDBLOCK; 
  182634:	00bffd44 	movi	r2,-11
  182638:	00000606 	br	182654 <altera_avalon_uart_close+0x44>
int altera_avalon_uart_close(altera_avalon_uart_state* sp, int flags)
{
  /* 
   * Wait for all transmit data to be emptied by the UART ISR.
   */
  while (sp->tx_start != sp->tx_end) {
  18263c:	e0bffe17 	ldw	r2,-8(fp)
  182640:	10c00417 	ldw	r3,16(r2)
  182644:	e0bffe17 	ldw	r2,-8(fp)
  182648:	10800517 	ldw	r2,20(r2)
  18264c:	18bff61e 	bne	r3,r2,182628 <altera_avalon_uart_close+0x18>
    if (flags & O_NONBLOCK) {
      return -EWOULDBLOCK; 
    }
  }

  return 0;
  182650:	0005883a 	mov	r2,zero
}
  182654:	e037883a 	mov	sp,fp
  182658:	df000017 	ldw	fp,0(sp)
  18265c:	dec00104 	addi	sp,sp,4
  182660:	f800283a 	ret

00182664 <alt_get_errno>:
#undef errno

extern int errno;

static ALT_INLINE int* alt_get_errno(void)
{
  182664:	defffe04 	addi	sp,sp,-8
  182668:	dfc00115 	stw	ra,4(sp)
  18266c:	df000015 	stw	fp,0(sp)
  182670:	d839883a 	mov	fp,sp
  return ((alt_errno) ? alt_errno() : &errno);
  182674:	00800674 	movhi	r2,25
  182678:	10aa8504 	addi	r2,r2,-21996
  18267c:	10800017 	ldw	r2,0(r2)
  182680:	10000526 	beq	r2,zero,182698 <alt_get_errno+0x34>
  182684:	00800674 	movhi	r2,25
  182688:	10aa8504 	addi	r2,r2,-21996
  18268c:	10800017 	ldw	r2,0(r2)
  182690:	103ee83a 	callr	r2
  182694:	00000206 	br	1826a0 <alt_get_errno+0x3c>
  182698:	00800674 	movhi	r2,25
  18269c:	10b15a04 	addi	r2,r2,-15000
}
  1826a0:	e037883a 	mov	sp,fp
  1826a4:	dfc00117 	ldw	ra,4(sp)
  1826a8:	df000017 	ldw	fp,0(sp)
  1826ac:	dec00204 	addi	sp,sp,8
  1826b0:	f800283a 	ret

001826b4 <altera_avalon_uart_read>:
 */

int 
altera_avalon_uart_read(altera_avalon_uart_state* sp, char* ptr, int len,
  int flags)
{
  1826b4:	defff104 	addi	sp,sp,-60
  1826b8:	dfc00e15 	stw	ra,56(sp)
  1826bc:	df000d15 	stw	fp,52(sp)
  1826c0:	df000d04 	addi	fp,sp,52
  1826c4:	e13ffc15 	stw	r4,-16(fp)
  1826c8:	e17ffd15 	stw	r5,-12(fp)
  1826cc:	e1bffe15 	stw	r6,-8(fp)
  1826d0:	e1ffff15 	stw	r7,-4(fp)
  alt_irq_context context;
  int             block;
  alt_u32         next;
  alt_u8          read_would_block = 0;
  1826d4:	e03ff305 	stb	zero,-52(fp)
  int             count = 0;
  1826d8:	e03ff415 	stw	zero,-48(fp)
  /* 
   * Construct a flag to indicate whether the device is being accessed in
   * blocking or non-blocking mode.
   */

  block = !(flags & O_NONBLOCK);
  1826dc:	e0bfff17 	ldw	r2,-4(fp)
  1826e0:	1090000c 	andi	r2,r2,16384
  1826e4:	1005003a 	cmpeq	r2,r2,zero
  1826e8:	10803fcc 	andi	r2,r2,255
  1826ec:	e0bff515 	stw	r2,-44(fp)
  /*
   * Calculate which slot in the circular buffer is the next one to read
   * data from.
   */

  next = (sp->rx_start + 1) & ALT_AVALON_UART_BUF_MSK;
  1826f0:	e0bffc17 	ldw	r2,-16(fp)
  1826f4:	10800217 	ldw	r2,8(r2)
  1826f8:	10800044 	addi	r2,r2,1
  1826fc:	10800fcc 	andi	r2,r2,63
  182700:	e0bff615 	stw	r2,-40(fp)
    /*
     * Read the required amount of data, until the circular buffer runs
     * empty
     */

    while ((count < len) && (sp->rx_start != sp->rx_end))
  182704:	00001906 	br	18276c <altera_avalon_uart_read+0xb8>
    {
      count++;
  182708:	e0bff417 	ldw	r2,-48(fp)
  18270c:	10800044 	addi	r2,r2,1
  182710:	e0bff415 	stw	r2,-48(fp)
      *ptr++ = sp->rx_buf[sp->rx_start];
  182714:	e0bffc17 	ldw	r2,-16(fp)
  182718:	10800217 	ldw	r2,8(r2)
  18271c:	e0fffc17 	ldw	r3,-16(fp)
  182720:	1885883a 	add	r2,r3,r2
  182724:	10800704 	addi	r2,r2,28
  182728:	10800003 	ldbu	r2,0(r2)
  18272c:	1007883a 	mov	r3,r2
  182730:	e0bffd17 	ldw	r2,-12(fp)
  182734:	10c00005 	stb	r3,0(r2)
  182738:	e0bffd17 	ldw	r2,-12(fp)
  18273c:	10800044 	addi	r2,r2,1
  182740:	e0bffd15 	stw	r2,-12(fp)
      
      sp->rx_start = (++sp->rx_start) & ALT_AVALON_UART_BUF_MSK;
  182744:	e0bffc17 	ldw	r2,-16(fp)
  182748:	10800217 	ldw	r2,8(r2)
  18274c:	10c00044 	addi	r3,r2,1
  182750:	e0bffc17 	ldw	r2,-16(fp)
  182754:	10c00215 	stw	r3,8(r2)
  182758:	e0bffc17 	ldw	r2,-16(fp)
  18275c:	10800217 	ldw	r2,8(r2)
  182760:	10c00fcc 	andi	r3,r2,63
  182764:	e0bffc17 	ldw	r2,-16(fp)
  182768:	10c00215 	stw	r3,8(r2)
    /*
     * Read the required amount of data, until the circular buffer runs
     * empty
     */

    while ((count < len) && (sp->rx_start != sp->rx_end))
  18276c:	e0fff417 	ldw	r3,-48(fp)
  182770:	e0bffe17 	ldw	r2,-8(fp)
  182774:	1880050e 	bge	r3,r2,18278c <altera_avalon_uart_read+0xd8>
  182778:	e0bffc17 	ldw	r2,-16(fp)
  18277c:	10c00217 	ldw	r3,8(r2)
  182780:	e0bffc17 	ldw	r2,-16(fp)
  182784:	10800317 	ldw	r2,12(r2)
  182788:	18bfdf1e 	bne	r3,r2,182708 <altera_avalon_uart_read+0x54>
    /*
     * If no data has been transferred, the circular buffer is empty, and
     * this is not a non-blocking access, block waiting for data to arrive.
     */

    if (!count && (sp->rx_start == sp->rx_end))
  18278c:	e0bff417 	ldw	r2,-48(fp)
  182790:	1000241e 	bne	r2,zero,182824 <altera_avalon_uart_read+0x170>
  182794:	e0bffc17 	ldw	r2,-16(fp)
  182798:	10c00217 	ldw	r3,8(r2)
  18279c:	e0bffc17 	ldw	r2,-16(fp)
  1827a0:	10800317 	ldw	r2,12(r2)
  1827a4:	18801f1e 	bne	r3,r2,182824 <altera_avalon_uart_read+0x170>
    {
      if (!block)
  1827a8:	e0bff517 	ldw	r2,-44(fp)
  1827ac:	1000061e 	bne	r2,zero,1827c8 <altera_avalon_uart_read+0x114>
      {
        /* Set errno to indicate the reason we're not returning any data */

        ALT_ERRNO = EWOULDBLOCK;
  1827b0:	01826640 	call	182664 <alt_get_errno>
  1827b4:	00c002c4 	movi	r3,11
  1827b8:	10c00015 	stw	r3,0(r2)
        read_would_block = 1;
  1827bc:	00800044 	movi	r2,1
  1827c0:	e0bff305 	stb	r2,-52(fp)
        break;
  1827c4:	00001b06 	br	182834 <altera_avalon_uart_read+0x180>
static ALT_INLINE alt_irq_context ALT_ALWAYS_INLINE 
       alt_irq_disable_all (void)
{
  alt_irq_context context;

  NIOS2_READ_STATUS (context);
  1827c8:	0005303a 	rdctl	r2,status
  1827cc:	e0bff815 	stw	r2,-32(fp)

  NIOS2_WRITE_STATUS (context & ~NIOS2_STATUS_PIE_MSK);
  1827d0:	e0fff817 	ldw	r3,-32(fp)
  1827d4:	00bfff84 	movi	r2,-2
  1827d8:	1884703a 	and	r2,r3,r2
  1827dc:	1001703a 	wrctl	status,r2
  
  return context;
  1827e0:	e0bff817 	ldw	r2,-32(fp)
      {
       /* Block waiting for some data to arrive */

       /* First, ensure read interrupts are enabled to avoid deadlock */

       context = alt_irq_disable_all ();
  1827e4:	e0bff715 	stw	r2,-36(fp)
       sp->ctrl |= ALTERA_AVALON_UART_CONTROL_RRDY_MSK;
  1827e8:	e0bffc17 	ldw	r2,-16(fp)
  1827ec:	10800117 	ldw	r2,4(r2)
  1827f0:	10c02014 	ori	r3,r2,128
  1827f4:	e0bffc17 	ldw	r2,-16(fp)
  1827f8:	10c00115 	stw	r3,4(r2)
       IOWR_ALTERA_AVALON_UART_CONTROL(sp->base, sp->ctrl);
  1827fc:	e0bffc17 	ldw	r2,-16(fp)
  182800:	10800017 	ldw	r2,0(r2)
  182804:	10800304 	addi	r2,r2,12
  182808:	e0fffc17 	ldw	r3,-16(fp)
  18280c:	18c00117 	ldw	r3,4(r3)
  182810:	10c00035 	stwio	r3,0(r2)
  182814:	e0bff717 	ldw	r2,-36(fp)
  182818:	e0bff915 	stw	r2,-28(fp)
  status &= ~NIOS2_STATUS_PIE_MSK;
  status |= (context & NIOS2_STATUS_PIE_MSK);
  
  NIOS2_WRITE_STATUS (status);
#else
  NIOS2_WRITE_STATUS (context);
  18281c:	e0bff917 	ldw	r2,-28(fp)
  182820:	1001703a 	wrctl	status,r2
                      OS_FLAG_WAIT_SET_ANY + OS_FLAG_CONSUME,
                      0);
      }
    }
  }
  while (!count && len);
  182824:	e0bff417 	ldw	r2,-48(fp)
  182828:	1000021e 	bne	r2,zero,182834 <altera_avalon_uart_read+0x180>
  18282c:	e0bffe17 	ldw	r2,-8(fp)
  182830:	103fce1e 	bne	r2,zero,18276c <altera_avalon_uart_read+0xb8>
static ALT_INLINE alt_irq_context ALT_ALWAYS_INLINE 
       alt_irq_disable_all (void)
{
  alt_irq_context context;

  NIOS2_READ_STATUS (context);
  182834:	0005303a 	rdctl	r2,status
  182838:	e0bffa15 	stw	r2,-24(fp)

  NIOS2_WRITE_STATUS (context & ~NIOS2_STATUS_PIE_MSK);
  18283c:	e0fffa17 	ldw	r3,-24(fp)
  182840:	00bfff84 	movi	r2,-2
  182844:	1884703a 	and	r2,r3,r2
  182848:	1001703a 	wrctl	status,r2
  
  return context;
  18284c:	e0bffa17 	ldw	r2,-24(fp)
  /*
   * Ensure that interrupts are enabled, so that the circular buffer can
   * re-fill.
   */

  context = alt_irq_disable_all ();
  182850:	e0bff715 	stw	r2,-36(fp)
  sp->ctrl |= ALTERA_AVALON_UART_CONTROL_RRDY_MSK;
  182854:	e0bffc17 	ldw	r2,-16(fp)
  182858:	10800117 	ldw	r2,4(r2)
  18285c:	10c02014 	ori	r3,r2,128
  182860:	e0bffc17 	ldw	r2,-16(fp)
  182864:	10c00115 	stw	r3,4(r2)
  IOWR_ALTERA_AVALON_UART_CONTROL(sp->base, sp->ctrl);
  182868:	e0bffc17 	ldw	r2,-16(fp)
  18286c:	10800017 	ldw	r2,0(r2)
  182870:	10800304 	addi	r2,r2,12
  182874:	e0fffc17 	ldw	r3,-16(fp)
  182878:	18c00117 	ldw	r3,4(r3)
  18287c:	10c00035 	stwio	r3,0(r2)
  182880:	e0bff717 	ldw	r2,-36(fp)
  182884:	e0bffb15 	stw	r2,-20(fp)
  status &= ~NIOS2_STATUS_PIE_MSK;
  status |= (context & NIOS2_STATUS_PIE_MSK);
  
  NIOS2_WRITE_STATUS (status);
#else
  NIOS2_WRITE_STATUS (context);
  182888:	e0bffb17 	ldw	r2,-20(fp)
  18288c:	1001703a 	wrctl	status,r2
  alt_irq_enable_all (context);

  /* Return the number of bytes read */
  if(read_would_block) {
  182890:	e0bff303 	ldbu	r2,-52(fp)
  182894:	10000226 	beq	r2,zero,1828a0 <altera_avalon_uart_read+0x1ec>
    return -EWOULDBLOCK;
  182898:	00bffd44 	movi	r2,-11
  18289c:	00000106 	br	1828a4 <altera_avalon_uart_read+0x1f0>
  }
  else {
    return count;
  1828a0:	e0bff417 	ldw	r2,-48(fp)
  }
}
  1828a4:	e037883a 	mov	sp,fp
  1828a8:	dfc00117 	ldw	ra,4(sp)
  1828ac:	df000017 	ldw	fp,0(sp)
  1828b0:	dec00204 	addi	sp,sp,8
  1828b4:	f800283a 	ret

001828b8 <alt_get_errno>:
#undef errno

extern int errno;

static ALT_INLINE int* alt_get_errno(void)
{
  1828b8:	defffe04 	addi	sp,sp,-8
  1828bc:	dfc00115 	stw	ra,4(sp)
  1828c0:	df000015 	stw	fp,0(sp)
  1828c4:	d839883a 	mov	fp,sp
  return ((alt_errno) ? alt_errno() : &errno);
  1828c8:	00800674 	movhi	r2,25
  1828cc:	10aa8504 	addi	r2,r2,-21996
  1828d0:	10800017 	ldw	r2,0(r2)
  1828d4:	10000526 	beq	r2,zero,1828ec <alt_get_errno+0x34>
  1828d8:	00800674 	movhi	r2,25
  1828dc:	10aa8504 	addi	r2,r2,-21996
  1828e0:	10800017 	ldw	r2,0(r2)
  1828e4:	103ee83a 	callr	r2
  1828e8:	00000206 	br	1828f4 <alt_get_errno+0x3c>
  1828ec:	00800674 	movhi	r2,25
  1828f0:	10b15a04 	addi	r2,r2,-15000
}
  1828f4:	e037883a 	mov	sp,fp
  1828f8:	dfc00117 	ldw	ra,4(sp)
  1828fc:	df000017 	ldw	fp,0(sp)
  182900:	dec00204 	addi	sp,sp,8
  182904:	f800283a 	ret

00182908 <altera_avalon_uart_write>:
 */

int
altera_avalon_uart_write(altera_avalon_uart_state* sp, const char* ptr, int len,
  int flags)
{
  182908:	defff204 	addi	sp,sp,-56
  18290c:	dfc00d15 	stw	ra,52(sp)
  182910:	df000c15 	stw	fp,48(sp)
  182914:	df000c04 	addi	fp,sp,48
  182918:	e13ffc15 	stw	r4,-16(fp)
  18291c:	e17ffd15 	stw	r5,-12(fp)
  182920:	e1bffe15 	stw	r6,-8(fp)
  182924:	e1ffff15 	stw	r7,-4(fp)
  alt_irq_context context;
  int             no_block;
  alt_u32         next;
  int             count = len;
  182928:	e0bffe17 	ldw	r2,-8(fp)
  18292c:	e0bff415 	stw	r2,-48(fp)
  /* 
   * Construct a flag to indicate whether the device is being accessed in
   * blocking or non-blocking mode.
   */

  no_block = (flags & O_NONBLOCK);
  182930:	e0bfff17 	ldw	r2,-4(fp)
  182934:	1090000c 	andi	r2,r2,16384
  182938:	e0bff515 	stw	r2,-44(fp)
   * Loop transferring data from the input buffer to the transmit circular
   * buffer. The loop is terminated once all the data has been transferred,
   * or, (if in non-blocking mode) the buffer becomes full.
   */

  while (count)
  18293c:	00003b06 	br	182a2c <altera_avalon_uart_write+0x124>
  {
    /* Determine the next slot in the buffer to access */

    next = (sp->tx_end + 1) & ALT_AVALON_UART_BUF_MSK;
  182940:	e0bffc17 	ldw	r2,-16(fp)
  182944:	10800517 	ldw	r2,20(r2)
  182948:	10800044 	addi	r2,r2,1
  18294c:	10800fcc 	andi	r2,r2,63
  182950:	e0bff615 	stw	r2,-40(fp)

    /* block waiting for space if necessary */

    if (next == sp->tx_start)
  182954:	e0bffc17 	ldw	r2,-16(fp)
  182958:	10c00417 	ldw	r3,16(r2)
  18295c:	e0bff617 	ldw	r2,-40(fp)
  182960:	1880211e 	bne	r3,r2,1829e8 <altera_avalon_uart_write+0xe0>
    {
      if (no_block)
  182964:	e0bff517 	ldw	r2,-44(fp)
  182968:	10000426 	beq	r2,zero,18297c <altera_avalon_uart_write+0x74>
      {
        /* Set errno to indicate why this function returned early */
 
        ALT_ERRNO = EWOULDBLOCK;
  18296c:	01828b80 	call	1828b8 <alt_get_errno>
  182970:	00c002c4 	movi	r3,11
  182974:	10c00015 	stw	r3,0(r2)
        break;
  182978:	00002e06 	br	182a34 <altera_avalon_uart_write+0x12c>
static ALT_INLINE alt_irq_context ALT_ALWAYS_INLINE 
       alt_irq_disable_all (void)
{
  alt_irq_context context;

  NIOS2_READ_STATUS (context);
  18297c:	0005303a 	rdctl	r2,status
  182980:	e0bff815 	stw	r2,-32(fp)

  NIOS2_WRITE_STATUS (context & ~NIOS2_STATUS_PIE_MSK);
  182984:	e0fff817 	ldw	r3,-32(fp)
  182988:	00bfff84 	movi	r2,-2
  18298c:	1884703a 	and	r2,r3,r2
  182990:	1001703a 	wrctl	status,r2
  
  return context;
  182994:	e0bff817 	ldw	r2,-32(fp)
      {
        /* Block waiting for space in the circular buffer */

        /* First, ensure transmit interrupts are enabled to avoid deadlock */

        context = alt_irq_disable_all ();
  182998:	e0bff715 	stw	r2,-36(fp)
        sp->ctrl |= (ALTERA_AVALON_UART_CONTROL_TRDY_MSK |
  18299c:	e0bffc17 	ldw	r2,-16(fp)
  1829a0:	10800117 	ldw	r2,4(r2)
  1829a4:	10c11014 	ori	r3,r2,1088
  1829a8:	e0bffc17 	ldw	r2,-16(fp)
  1829ac:	10c00115 	stw	r3,4(r2)
                        ALTERA_AVALON_UART_CONTROL_DCTS_MSK);
        IOWR_ALTERA_AVALON_UART_CONTROL(sp->base, sp->ctrl);
  1829b0:	e0bffc17 	ldw	r2,-16(fp)
  1829b4:	10800017 	ldw	r2,0(r2)
  1829b8:	10800304 	addi	r2,r2,12
  1829bc:	e0fffc17 	ldw	r3,-16(fp)
  1829c0:	18c00117 	ldw	r3,4(r3)
  1829c4:	10c00035 	stwio	r3,0(r2)
  1829c8:	e0bff717 	ldw	r2,-36(fp)
  1829cc:	e0bff915 	stw	r2,-28(fp)
  status &= ~NIOS2_STATUS_PIE_MSK;
  status |= (context & NIOS2_STATUS_PIE_MSK);
  
  NIOS2_WRITE_STATUS (status);
#else
  NIOS2_WRITE_STATUS (context);
  1829d0:	e0bff917 	ldw	r2,-28(fp)
  1829d4:	1001703a 	wrctl	status,r2
          ALT_FLAG_PEND (sp->events, 
                         ALT_UART_WRITE_RDY,
                         OS_FLAG_WAIT_SET_ANY + OS_FLAG_CONSUME,
                         0);
        }
        while ((next == sp->tx_start));
  1829d8:	e0bffc17 	ldw	r2,-16(fp)
  1829dc:	10c00417 	ldw	r3,16(r2)
  1829e0:	e0bff617 	ldw	r2,-40(fp)
  1829e4:	18bffc26 	beq	r3,r2,1829d8 <altera_avalon_uart_write+0xd0>
      }
    }

    count--;
  1829e8:	e0bff417 	ldw	r2,-48(fp)
  1829ec:	10bfffc4 	addi	r2,r2,-1
  1829f0:	e0bff415 	stw	r2,-48(fp)

    /* Add the next character to the transmit buffer */

    sp->tx_buf[sp->tx_end] = *ptr++;
  1829f4:	e0bffc17 	ldw	r2,-16(fp)
  1829f8:	10800517 	ldw	r2,20(r2)
  1829fc:	e0fffd17 	ldw	r3,-12(fp)
  182a00:	18c00003 	ldbu	r3,0(r3)
  182a04:	e13ffc17 	ldw	r4,-16(fp)
  182a08:	2085883a 	add	r2,r4,r2
  182a0c:	10801704 	addi	r2,r2,92
  182a10:	10c00005 	stb	r3,0(r2)
  182a14:	e0bffd17 	ldw	r2,-12(fp)
  182a18:	10800044 	addi	r2,r2,1
  182a1c:	e0bffd15 	stw	r2,-12(fp)
    sp->tx_end = next;
  182a20:	e0bffc17 	ldw	r2,-16(fp)
  182a24:	e0fff617 	ldw	r3,-40(fp)
  182a28:	10c00515 	stw	r3,20(r2)
   * Loop transferring data from the input buffer to the transmit circular
   * buffer. The loop is terminated once all the data has been transferred,
   * or, (if in non-blocking mode) the buffer becomes full.
   */

  while (count)
  182a2c:	e0bff417 	ldw	r2,-48(fp)
  182a30:	103fc31e 	bne	r2,zero,182940 <altera_avalon_uart_write+0x38>
static ALT_INLINE alt_irq_context ALT_ALWAYS_INLINE 
       alt_irq_disable_all (void)
{
  alt_irq_context context;

  NIOS2_READ_STATUS (context);
  182a34:	0005303a 	rdctl	r2,status
  182a38:	e0bffa15 	stw	r2,-24(fp)

  NIOS2_WRITE_STATUS (context & ~NIOS2_STATUS_PIE_MSK);
  182a3c:	e0fffa17 	ldw	r3,-24(fp)
  182a40:	00bfff84 	movi	r2,-2
  182a44:	1884703a 	and	r2,r3,r2
  182a48:	1001703a 	wrctl	status,r2
  
  return context;
  182a4c:	e0bffa17 	ldw	r2,-24(fp)
  /* 
   * Ensure that interrupts are enabled, so that the circular buffer can 
   * drain.
   */

  context = alt_irq_disable_all ();
  182a50:	e0bff715 	stw	r2,-36(fp)
  sp->ctrl |= ALTERA_AVALON_UART_CONTROL_TRDY_MSK |
  182a54:	e0bffc17 	ldw	r2,-16(fp)
  182a58:	10800117 	ldw	r2,4(r2)
  182a5c:	10c11014 	ori	r3,r2,1088
  182a60:	e0bffc17 	ldw	r2,-16(fp)
  182a64:	10c00115 	stw	r3,4(r2)
                 ALTERA_AVALON_UART_CONTROL_DCTS_MSK;
  IOWR_ALTERA_AVALON_UART_CONTROL(sp->base, sp->ctrl);
  182a68:	e0bffc17 	ldw	r2,-16(fp)
  182a6c:	10800017 	ldw	r2,0(r2)
  182a70:	10800304 	addi	r2,r2,12
  182a74:	e0fffc17 	ldw	r3,-16(fp)
  182a78:	18c00117 	ldw	r3,4(r3)
  182a7c:	10c00035 	stwio	r3,0(r2)
  182a80:	e0bff717 	ldw	r2,-36(fp)
  182a84:	e0bffb15 	stw	r2,-20(fp)
  status &= ~NIOS2_STATUS_PIE_MSK;
  status |= (context & NIOS2_STATUS_PIE_MSK);
  
  NIOS2_WRITE_STATUS (status);
#else
  NIOS2_WRITE_STATUS (context);
  182a88:	e0bffb17 	ldw	r2,-20(fp)
  182a8c:	1001703a 	wrctl	status,r2
  alt_irq_enable_all (context);

  /* return the number of bytes written */

  return (len - count);
  182a90:	e0fffe17 	ldw	r3,-8(fp)
  182a94:	e0bff417 	ldw	r2,-48(fp)
  182a98:	1885c83a 	sub	r2,r3,r2
}
  182a9c:	e037883a 	mov	sp,fp
  182aa0:	dfc00117 	ldw	ra,4(sp)
  182aa4:	df000017 	ldw	fp,0(sp)
  182aa8:	dec00204 	addi	sp,sp,8
  182aac:	f800283a 	ret

00182ab0 <chThdAddRef>:
 * @return              The same thread pointer passed as parameter
 *                      representing the new reference.
 *
 * @api
 */
Thread *chThdAddRef(Thread *tp) {
  182ab0:	defffc04 	addi	sp,sp,-16
  182ab4:	df000315 	stw	fp,12(sp)
  182ab8:	df000304 	addi	fp,sp,12
  182abc:	e13fff15 	stw	r4,-4(fp)
static ALT_INLINE alt_irq_context ALT_ALWAYS_INLINE 
       alt_irq_disable_all (void)
{
  alt_irq_context context;

  NIOS2_READ_STATUS (context);
  182ac0:	0005303a 	rdctl	r2,status
  182ac4:	e0bffd15 	stw	r2,-12(fp)

  NIOS2_WRITE_STATUS (context & ~NIOS2_STATUS_PIE_MSK);
  182ac8:	e0fffd17 	ldw	r3,-12(fp)
  182acc:	00bfff84 	movi	r2,-2
  182ad0:	1884703a 	and	r2,r3,r2
  182ad4:	1001703a 	wrctl	status,r2

  chSysLock();
  chDbgAssert(tp->p_refs < 255, "chThdAddRef(), #1", "too many references");
  tp->p_refs++;
  182ad8:	e0bfff17 	ldw	r2,-4(fp)
  182adc:	10800783 	ldbu	r2,30(r2)
  182ae0:	10800044 	addi	r2,r2,1
  182ae4:	1007883a 	mov	r3,r2
  182ae8:	e0bfff17 	ldw	r2,-4(fp)
  182aec:	10c00785 	stb	r3,30(r2)
  182af0:	00800044 	movi	r2,1
  182af4:	e0bffe15 	stw	r2,-8(fp)
  status &= ~NIOS2_STATUS_PIE_MSK;
  status |= (context & NIOS2_STATUS_PIE_MSK);
  
  NIOS2_WRITE_STATUS (status);
#else
  NIOS2_WRITE_STATUS (context);
  182af8:	e0bffe17 	ldw	r2,-8(fp)
  182afc:	1001703a 	wrctl	status,r2
  chSysUnlock();
  return tp;
  182b00:	e0bfff17 	ldw	r2,-4(fp)
}
  182b04:	e037883a 	mov	sp,fp
  182b08:	df000017 	ldw	fp,0(sp)
  182b0c:	dec00104 	addi	sp,sp,4
  182b10:	f800283a 	ret

00182b14 <chThdRelease>:
 *
 * @param[in] tp        pointer to the thread
 *
 * @api
 */
void chThdRelease(Thread *tp) {
  182b14:	defffa04 	addi	sp,sp,-24
  182b18:	dfc00515 	stw	ra,20(sp)
  182b1c:	df000415 	stw	fp,16(sp)
  182b20:	df000404 	addi	fp,sp,16
  182b24:	e13fff15 	stw	r4,-4(fp)
static ALT_INLINE alt_irq_context ALT_ALWAYS_INLINE 
       alt_irq_disable_all (void)
{
  alt_irq_context context;

  NIOS2_READ_STATUS (context);
  182b28:	0005303a 	rdctl	r2,status
  182b2c:	e0bffd15 	stw	r2,-12(fp)

  NIOS2_WRITE_STATUS (context & ~NIOS2_STATUS_PIE_MSK);
  182b30:	e0fffd17 	ldw	r3,-12(fp)
  182b34:	00bfff84 	movi	r2,-2
  182b38:	1884703a 	and	r2,r3,r2
  182b3c:	1001703a 	wrctl	status,r2
  trefs_t refs;

  chSysLock();
  chDbgAssert(tp->p_refs > 0, "chThdRelease(), #1", "not referenced");
  refs = --tp->p_refs;
  182b40:	e0bfff17 	ldw	r2,-4(fp)
  182b44:	10800783 	ldbu	r2,30(r2)
  182b48:	10bfffc4 	addi	r2,r2,-1
  182b4c:	1007883a 	mov	r3,r2
  182b50:	e0bfff17 	ldw	r2,-4(fp)
  182b54:	10c00785 	stb	r3,30(r2)
  182b58:	e0bfff17 	ldw	r2,-4(fp)
  182b5c:	10800783 	ldbu	r2,30(r2)
  182b60:	e0bffc05 	stb	r2,-16(fp)
  182b64:	00800044 	movi	r2,1
  182b68:	e0bffe15 	stw	r2,-8(fp)
  status &= ~NIOS2_STATUS_PIE_MSK;
  status |= (context & NIOS2_STATUS_PIE_MSK);
  
  NIOS2_WRITE_STATUS (status);
#else
  NIOS2_WRITE_STATUS (context);
  182b6c:	e0bffe17 	ldw	r2,-8(fp)
  182b70:	1001703a 	wrctl	status,r2
  chSysUnlock();

  /* If the references counter reaches zero and the thread is in its
     terminated state then the memory can be returned to the proper
     allocator. Of course static threads are not affected.*/
  if ((refs == 0) && (tp->p_state == THD_STATE_FINAL)) {
  182b74:	e0bffc03 	ldbu	r2,-16(fp)
  182b78:	10002b1e 	bne	r2,zero,182c28 <chThdRelease+0x114>
  182b7c:	e0bfff17 	ldw	r2,-4(fp)
  182b80:	10800703 	ldbu	r2,28(r2)
  182b84:	10803fcc 	andi	r2,r2,255
  182b88:	10800398 	cmpnei	r2,r2,14
  182b8c:	1000261e 	bne	r2,zero,182c28 <chThdRelease+0x114>
    switch (tp->p_flags & THD_MEM_MODE_MASK) {
  182b90:	e0bfff17 	ldw	r2,-4(fp)
  182b94:	10800743 	ldbu	r2,29(r2)
  182b98:	10803fcc 	andi	r2,r2,255
  182b9c:	108000cc 	andi	r2,r2,3
  182ba0:	10c00060 	cmpeqi	r3,r2,1
  182ba4:	1800031e 	bne	r3,zero,182bb4 <chThdRelease+0xa0>
  182ba8:	108000a0 	cmpeqi	r2,r2,2
  182bac:	10000e1e 	bne	r2,zero,182be8 <chThdRelease+0xd4>
  182bb0:	00001d06 	br	182c28 <chThdRelease+0x114>
#if CH_USE_HEAP
    case THD_MEM_MODE_HEAP:
#if CH_USE_REGISTRY
      REG_REMOVE(tp);
  182bb4:	e0bfff17 	ldw	r2,-4(fp)
  182bb8:	10800517 	ldw	r2,20(r2)
  182bbc:	e0ffff17 	ldw	r3,-4(fp)
  182bc0:	18c00417 	ldw	r3,16(r3)
  182bc4:	10c00415 	stw	r3,16(r2)
  182bc8:	e0bfff17 	ldw	r2,-4(fp)
  182bcc:	10800417 	ldw	r2,16(r2)
  182bd0:	e0ffff17 	ldw	r3,-4(fp)
  182bd4:	18c00517 	ldw	r3,20(r3)
  182bd8:	10c00515 	stw	r3,20(r2)
#endif
      chHeapFree(tp);
  182bdc:	e13fff17 	ldw	r4,-4(fp)
  182be0:	01830440 	call	183044 <chHeapFree>
      break;
  182be4:	00001006 	br	182c28 <chThdRelease+0x114>
#endif
#if CH_USE_MEMPOOLS
    case THD_MEM_MODE_MEMPOOL:
#if CH_USE_REGISTRY
      REG_REMOVE(tp);
  182be8:	e0bfff17 	ldw	r2,-4(fp)
  182bec:	10800517 	ldw	r2,20(r2)
  182bf0:	e0ffff17 	ldw	r3,-4(fp)
  182bf4:	18c00417 	ldw	r3,16(r3)
  182bf8:	10c00415 	stw	r3,16(r2)
  182bfc:	e0bfff17 	ldw	r2,-4(fp)
  182c00:	10800417 	ldw	r2,16(r2)
  182c04:	e0ffff17 	ldw	r3,-4(fp)
  182c08:	18c00517 	ldw	r3,20(r3)
  182c0c:	10c00515 	stw	r3,20(r2)
#endif
      chPoolFree(tp->p_mpool, tp);
  182c10:	e0bfff17 	ldw	r2,-4(fp)
  182c14:	10801117 	ldw	r2,68(r2)
  182c18:	1009883a 	mov	r4,r2
  182c1c:	e17fff17 	ldw	r5,-4(fp)
  182c20:	01835600 	call	183560 <chPoolFree>
      break;
  182c24:	0001883a 	nop
#endif
    }
  }
}
  182c28:	e037883a 	mov	sp,fp
  182c2c:	dfc00117 	ldw	ra,4(sp)
  182c30:	df000017 	ldw	fp,0(sp)
  182c34:	dec00204 	addi	sp,sp,8
  182c38:	f800283a 	ret

00182c3c <chThdCreateFromHeap>:
 * @retval NULL         if the memory cannot be allocated.
 *
 * @api
 */
Thread *chThdCreateFromHeap(MemoryHeap *heapp, size_t size,
                            tprio_t prio, tfunc_t pf, void *arg) {
  182c3c:	defff504 	addi	sp,sp,-44
  182c40:	dfc00a15 	stw	ra,40(sp)
  182c44:	df000915 	stw	fp,36(sp)
  182c48:	df000904 	addi	fp,sp,36
  182c4c:	e13ffc15 	stw	r4,-16(fp)
  182c50:	e17ffd15 	stw	r5,-12(fp)
  182c54:	e1bffe15 	stw	r6,-8(fp)
  182c58:	e1ffff15 	stw	r7,-4(fp)
  void *wsp;
  Thread *tp;

  wsp = chHeapAlloc(heapp, size);
  182c5c:	e13ffc17 	ldw	r4,-16(fp)
  182c60:	e17ffd17 	ldw	r5,-12(fp)
  182c64:	0182ea00 	call	182ea0 <chHeapAlloc>
  182c68:	e0bff815 	stw	r2,-32(fp)
  if (wsp == NULL)
  182c6c:	e0bff817 	ldw	r2,-32(fp)
  182c70:	1000021e 	bne	r2,zero,182c7c <chThdCreateFromHeap+0x40>
    return NULL;
  182c74:	0005883a 	mov	r2,zero
  182c78:	00001906 	br	182ce0 <chThdCreateFromHeap+0xa4>
static ALT_INLINE alt_irq_context ALT_ALWAYS_INLINE 
       alt_irq_disable_all (void)
{
  alt_irq_context context;

  NIOS2_READ_STATUS (context);
  182c7c:	0005303a 	rdctl	r2,status
  182c80:	e0bffa15 	stw	r2,-24(fp)

  NIOS2_WRITE_STATUS (context & ~NIOS2_STATUS_PIE_MSK);
  182c84:	e0fffa17 	ldw	r3,-24(fp)
  182c88:	00bfff84 	movi	r2,-2
  182c8c:	1884703a 	and	r2,r3,r2
  182c90:	1001703a 	wrctl	status,r2
                  (uint8_t *)wsp + size,
                  CH_STACK_FILL_VALUE);
#endif
  
  chSysLock();
  tp = chThdCreateI(wsp, size, prio, pf, arg);
  182c94:	e0800217 	ldw	r2,8(fp)
  182c98:	d8800015 	stw	r2,0(sp)
  182c9c:	e13ff817 	ldw	r4,-32(fp)
  182ca0:	e17ffd17 	ldw	r5,-12(fp)
  182ca4:	e1bffe17 	ldw	r6,-8(fp)
  182ca8:	e1ffff17 	ldw	r7,-4(fp)
  182cac:	01807940 	call	180794 <chThdCreateI>
  182cb0:	e0bff915 	stw	r2,-28(fp)
  tp->p_flags = THD_MEM_MODE_HEAP;
  182cb4:	e0bff917 	ldw	r2,-28(fp)
  182cb8:	00c00044 	movi	r3,1
  182cbc:	10c00745 	stb	r3,29(r2)
  chSchWakeupS(tp, RDY_OK);
  182cc0:	e13ff917 	ldw	r4,-28(fp)
  182cc4:	000b883a 	mov	r5,zero
  182cc8:	01840c40 	call	1840c4 <chSchWakeupS>
  182ccc:	00800044 	movi	r2,1
  182cd0:	e0bffb15 	stw	r2,-20(fp)
  status &= ~NIOS2_STATUS_PIE_MSK;
  status |= (context & NIOS2_STATUS_PIE_MSK);
  
  NIOS2_WRITE_STATUS (status);
#else
  NIOS2_WRITE_STATUS (context);
  182cd4:	e0bffb17 	ldw	r2,-20(fp)
  182cd8:	1001703a 	wrctl	status,r2
  chSysUnlock();
  return tp;
  182cdc:	e0bff917 	ldw	r2,-28(fp)
}
  182ce0:	e037883a 	mov	sp,fp
  182ce4:	dfc00117 	ldw	ra,4(sp)
  182ce8:	df000017 	ldw	fp,0(sp)
  182cec:	dec00204 	addi	sp,sp,8
  182cf0:	f800283a 	ret

00182cf4 <chThdCreateFromMemoryPool>:
 * @retval  NULL        if the memory pool is empty.
 *
 * @api
 */
Thread *chThdCreateFromMemoryPool(MemoryPool *mp, tprio_t prio,
                                  tfunc_t pf, void *arg) {
  182cf4:	defff504 	addi	sp,sp,-44
  182cf8:	dfc00a15 	stw	ra,40(sp)
  182cfc:	df000915 	stw	fp,36(sp)
  182d00:	df000904 	addi	fp,sp,36
  182d04:	e13ffc15 	stw	r4,-16(fp)
  182d08:	e17ffd15 	stw	r5,-12(fp)
  182d0c:	e1bffe15 	stw	r6,-8(fp)
  182d10:	e1ffff15 	stw	r7,-4(fp)
  void *wsp;
  Thread *tp;

  chDbgCheck(mp != NULL, "chThdCreateFromMemoryPool");

  wsp = chPoolAlloc(mp);
  182d14:	e13ffc17 	ldw	r4,-16(fp)
  182d18:	01834a80 	call	1834a8 <chPoolAlloc>
  182d1c:	e0bff815 	stw	r2,-32(fp)
  if (wsp == NULL)
  182d20:	e0bff817 	ldw	r2,-32(fp)
  182d24:	1000021e 	bne	r2,zero,182d30 <chThdCreateFromMemoryPool+0x3c>
    return NULL;
  182d28:	0005883a 	mov	r2,zero
  182d2c:	00001e06 	br	182da8 <chThdCreateFromMemoryPool+0xb4>
static ALT_INLINE alt_irq_context ALT_ALWAYS_INLINE 
       alt_irq_disable_all (void)
{
  alt_irq_context context;

  NIOS2_READ_STATUS (context);
  182d30:	0005303a 	rdctl	r2,status
  182d34:	e0bffa15 	stw	r2,-24(fp)

  NIOS2_WRITE_STATUS (context & ~NIOS2_STATUS_PIE_MSK);
  182d38:	e0fffa17 	ldw	r3,-24(fp)
  182d3c:	00bfff84 	movi	r2,-2
  182d40:	1884703a 	and	r2,r3,r2
  182d44:	1001703a 	wrctl	status,r2
                  (uint8_t *)wsp + mp->mp_object_size,
                  CH_STACK_FILL_VALUE);
#endif

  chSysLock();
  tp = chThdCreateI(wsp, mp->mp_object_size, prio, pf, arg);
  182d48:	e0bffc17 	ldw	r2,-16(fp)
  182d4c:	10800117 	ldw	r2,4(r2)
  182d50:	e0ffff17 	ldw	r3,-4(fp)
  182d54:	d8c00015 	stw	r3,0(sp)
  182d58:	e13ff817 	ldw	r4,-32(fp)
  182d5c:	100b883a 	mov	r5,r2
  182d60:	e1bffd17 	ldw	r6,-12(fp)
  182d64:	e1fffe17 	ldw	r7,-8(fp)
  182d68:	01807940 	call	180794 <chThdCreateI>
  182d6c:	e0bff915 	stw	r2,-28(fp)
  tp->p_flags = THD_MEM_MODE_MEMPOOL;
  182d70:	e0bff917 	ldw	r2,-28(fp)
  182d74:	00c00084 	movi	r3,2
  182d78:	10c00745 	stb	r3,29(r2)
  tp->p_mpool = mp;
  182d7c:	e0bff917 	ldw	r2,-28(fp)
  182d80:	e0fffc17 	ldw	r3,-16(fp)
  182d84:	10c01115 	stw	r3,68(r2)
  chSchWakeupS(tp, RDY_OK);
  182d88:	e13ff917 	ldw	r4,-28(fp)
  182d8c:	000b883a 	mov	r5,zero
  182d90:	01840c40 	call	1840c4 <chSchWakeupS>
  182d94:	00800044 	movi	r2,1
  182d98:	e0bffb15 	stw	r2,-20(fp)
  status &= ~NIOS2_STATUS_PIE_MSK;
  status |= (context & NIOS2_STATUS_PIE_MSK);
  
  NIOS2_WRITE_STATUS (status);
#else
  NIOS2_WRITE_STATUS (context);
  182d9c:	e0bffb17 	ldw	r2,-20(fp)
  182da0:	1001703a 	wrctl	status,r2
  chSysUnlock();
  return tp;
  182da4:	e0bff917 	ldw	r2,-28(fp)
}
  182da8:	e037883a 	mov	sp,fp
  182dac:	dfc00117 	ldw	ra,4(sp)
  182db0:	df000017 	ldw	fp,0(sp)
  182db4:	dec00204 	addi	sp,sp,8
  182db8:	f800283a 	ret

00182dbc <_heap_init>:
/**
 * @brief   Initializes the default heap.
 *
 * @notapi
 */
void _heap_init(void) {
  182dbc:	defffe04 	addi	sp,sp,-8
  182dc0:	dfc00115 	stw	ra,4(sp)
  182dc4:	df000015 	stw	fp,0(sp)
  182dc8:	d839883a 	mov	fp,sp
  default_heap.h_provider = chCoreAlloc;
  182dcc:	00800674 	movhi	r2,25
  182dd0:	10b15e04 	addi	r2,r2,-14984
  182dd4:	00c00634 	movhi	r3,24
  182dd8:	18ccb304 	addi	r3,r3,13004
  182ddc:	10c00015 	stw	r3,0(r2)
  default_heap.h_free.h.u.next = (union heap_header *)NULL;
  182de0:	00800674 	movhi	r2,25
  182de4:	10b15e04 	addi	r2,r2,-14984
  182de8:	10000115 	stw	zero,4(r2)
  default_heap.h_free.h.size = 0;
  182dec:	00800674 	movhi	r2,25
  182df0:	10b15e04 	addi	r2,r2,-14984
  182df4:	10000215 	stw	zero,8(r2)
#if CH_USE_MUTEXES || defined(__DOXYGEN__)
  chMtxInit(&default_heap.h_mtx);
  182df8:	01000674 	movhi	r4,25
  182dfc:	21316104 	addi	r4,r4,-14972
  182e00:	01836f00 	call	1836f0 <chMtxInit>
#else
  chSemInit(&default_heap.h_sem, 1);
#endif
}
  182e04:	e037883a 	mov	sp,fp
  182e08:	dfc00117 	ldw	ra,4(sp)
  182e0c:	df000017 	ldw	fp,0(sp)
  182e10:	dec00204 	addi	sp,sp,8
  182e14:	f800283a 	ret

00182e18 <chHeapInit>:
 * @param[in] buf       heap buffer base
 * @param[in] size      heap size
 *
 * @init
 */
void chHeapInit(MemoryHeap *heapp, void *buf, size_t size) {
  182e18:	defffa04 	addi	sp,sp,-24
  182e1c:	dfc00515 	stw	ra,20(sp)
  182e20:	df000415 	stw	fp,16(sp)
  182e24:	df000404 	addi	fp,sp,16
  182e28:	e13ffd15 	stw	r4,-12(fp)
  182e2c:	e17ffe15 	stw	r5,-8(fp)
  182e30:	e1bfff15 	stw	r6,-4(fp)
  union heap_header *hp;

  chDbgCheck(MEM_IS_ALIGNED(buf) && MEM_IS_ALIGNED(size), "chHeapInit");
  182e34:	e0bffe17 	ldw	r2,-8(fp)
  182e38:	108000cc 	andi	r2,r2,3
  182e3c:	1000001e 	bne	r2,zero,182e40 <chHeapInit+0x28>

  heapp->h_provider = (memgetfunc_t)NULL;
  182e40:	e0bffd17 	ldw	r2,-12(fp)
  182e44:	10000015 	stw	zero,0(r2)
  heapp->h_free.h.u.next = hp = buf;
  182e48:	e0bffe17 	ldw	r2,-8(fp)
  182e4c:	e0bffc15 	stw	r2,-16(fp)
  182e50:	e0bffd17 	ldw	r2,-12(fp)
  182e54:	e0fffc17 	ldw	r3,-16(fp)
  182e58:	10c00115 	stw	r3,4(r2)
  heapp->h_free.h.size = 0;
  182e5c:	e0bffd17 	ldw	r2,-12(fp)
  182e60:	10000215 	stw	zero,8(r2)
  hp->h.u.next = NULL;
  182e64:	e0bffc17 	ldw	r2,-16(fp)
  182e68:	10000015 	stw	zero,0(r2)
  hp->h.size = size - sizeof(union heap_header);
  182e6c:	e0bfff17 	ldw	r2,-4(fp)
  182e70:	10fffe04 	addi	r3,r2,-8
  182e74:	e0bffc17 	ldw	r2,-16(fp)
  182e78:	10c00115 	stw	r3,4(r2)
#if CH_USE_MUTEXES || defined(__DOXYGEN__)
  chMtxInit(&heapp->h_mtx);
  182e7c:	e0bffd17 	ldw	r2,-12(fp)
  182e80:	10800304 	addi	r2,r2,12
  182e84:	1009883a 	mov	r4,r2
  182e88:	01836f00 	call	1836f0 <chMtxInit>
#else
  chSemInit(&heapp->h_sem, 1);
#endif
}
  182e8c:	e037883a 	mov	sp,fp
  182e90:	dfc00117 	ldw	ra,4(sp)
  182e94:	df000017 	ldw	fp,0(sp)
  182e98:	dec00204 	addi	sp,sp,8
  182e9c:	f800283a 	ret

00182ea0 <chHeapAlloc>:
 * @return              A pointer to the allocated block.
 * @retval NULL         if the block cannot be allocated.
 *
 * @api
 */
void *chHeapAlloc(MemoryHeap *heapp, size_t size) {
  182ea0:	defff904 	addi	sp,sp,-28
  182ea4:	dfc00615 	stw	ra,24(sp)
  182ea8:	df000515 	stw	fp,20(sp)
  182eac:	df000504 	addi	fp,sp,20
  182eb0:	e13ffe15 	stw	r4,-8(fp)
  182eb4:	e17fff15 	stw	r5,-4(fp)
  union heap_header *qp, *hp, *fp;

  if (heapp == NULL)
  182eb8:	e0bffe17 	ldw	r2,-8(fp)
  182ebc:	1000031e 	bne	r2,zero,182ecc <chHeapAlloc+0x2c>
    heapp = &default_heap;
  182ec0:	00800674 	movhi	r2,25
  182ec4:	10b15e04 	addi	r2,r2,-14984
  182ec8:	e0bffe15 	stw	r2,-8(fp)

  size = MEM_ALIGN_NEXT(size);
  182ecc:	e0bfff17 	ldw	r2,-4(fp)
  182ed0:	10c000c4 	addi	r3,r2,3
  182ed4:	00bfff04 	movi	r2,-4
  182ed8:	1884703a 	and	r2,r3,r2
  182edc:	e0bfff15 	stw	r2,-4(fp)
  qp = &heapp->h_free;
  182ee0:	e0bffe17 	ldw	r2,-8(fp)
  182ee4:	10800104 	addi	r2,r2,4
  182ee8:	e0bffb15 	stw	r2,-20(fp)
  H_LOCK(heapp);
  182eec:	e0bffe17 	ldw	r2,-8(fp)
  182ef0:	10800304 	addi	r2,r2,12
  182ef4:	1009883a 	mov	r4,r2
  182ef8:	01837340 	call	183734 <chMtxLock>

  while (qp->h.u.next != NULL) {
  182efc:	00003006 	br	182fc0 <chHeapAlloc+0x120>
    hp = qp->h.u.next;
  182f00:	e0bffb17 	ldw	r2,-20(fp)
  182f04:	10800017 	ldw	r2,0(r2)
  182f08:	e0bffc15 	stw	r2,-16(fp)
    if (hp->h.size >= size) {
  182f0c:	e0bffc17 	ldw	r2,-16(fp)
  182f10:	10c00117 	ldw	r3,4(r2)
  182f14:	e0bfff17 	ldw	r2,-4(fp)
  182f18:	18802736 	bltu	r3,r2,182fb8 <chHeapAlloc+0x118>
      if (hp->h.size < size + sizeof(union heap_header)) {
  182f1c:	e0bffc17 	ldw	r2,-16(fp)
  182f20:	10c00117 	ldw	r3,4(r2)
  182f24:	e0bfff17 	ldw	r2,-4(fp)
  182f28:	10800204 	addi	r2,r2,8
  182f2c:	1880052e 	bgeu	r3,r2,182f44 <chHeapAlloc+0xa4>
        /* Gets the whole block even if it is slightly bigger than the
           requested size because the fragment would be too small to be
           useful.*/
        qp->h.u.next = hp->h.u.next;
  182f30:	e0bffc17 	ldw	r2,-16(fp)
  182f34:	10c00017 	ldw	r3,0(r2)
  182f38:	e0bffb17 	ldw	r2,-20(fp)
  182f3c:	10c00015 	stw	r3,0(r2)
  182f40:	00001606 	br	182f9c <chHeapAlloc+0xfc>
      }
      else {
        /* Block bigger enough, must split it.*/
        fp = (void *)((uint8_t *)(hp) + sizeof(union heap_header) + size);
  182f44:	e0bfff17 	ldw	r2,-4(fp)
  182f48:	10800204 	addi	r2,r2,8
  182f4c:	e0fffc17 	ldw	r3,-16(fp)
  182f50:	1885883a 	add	r2,r3,r2
  182f54:	e0bffd15 	stw	r2,-12(fp)
        fp->h.u.next = hp->h.u.next;
  182f58:	e0bffc17 	ldw	r2,-16(fp)
  182f5c:	10c00017 	ldw	r3,0(r2)
  182f60:	e0bffd17 	ldw	r2,-12(fp)
  182f64:	10c00015 	stw	r3,0(r2)
        fp->h.size = hp->h.size - sizeof(union heap_header) - size;
  182f68:	e0bffc17 	ldw	r2,-16(fp)
  182f6c:	10c00117 	ldw	r3,4(r2)
  182f70:	e0bfff17 	ldw	r2,-4(fp)
  182f74:	1885c83a 	sub	r2,r3,r2
  182f78:	10fffe04 	addi	r3,r2,-8
  182f7c:	e0bffd17 	ldw	r2,-12(fp)
  182f80:	10c00115 	stw	r3,4(r2)
        qp->h.u.next = fp;
  182f84:	e0bffb17 	ldw	r2,-20(fp)
  182f88:	e0fffd17 	ldw	r3,-12(fp)
  182f8c:	10c00015 	stw	r3,0(r2)
        hp->h.size = size;
  182f90:	e0bffc17 	ldw	r2,-16(fp)
  182f94:	e0ffff17 	ldw	r3,-4(fp)
  182f98:	10c00115 	stw	r3,4(r2)
      }
      hp->h.u.heap = heapp;
  182f9c:	e0bffc17 	ldw	r2,-16(fp)
  182fa0:	e0fffe17 	ldw	r3,-8(fp)
  182fa4:	10c00015 	stw	r3,0(r2)

      H_UNLOCK(heapp);
  182fa8:	01839c00 	call	1839c0 <chMtxUnlock>
      return (void *)(hp + 1);
  182fac:	e0bffc17 	ldw	r2,-16(fp)
  182fb0:	10800204 	addi	r2,r2,8
  182fb4:	00001e06 	br	183030 <chHeapAlloc+0x190>
    }
    qp = hp;
  182fb8:	e0bffc17 	ldw	r2,-16(fp)
  182fbc:	e0bffb15 	stw	r2,-20(fp)

  size = MEM_ALIGN_NEXT(size);
  qp = &heapp->h_free;
  H_LOCK(heapp);

  while (qp->h.u.next != NULL) {
  182fc0:	e0bffb17 	ldw	r2,-20(fp)
  182fc4:	10800017 	ldw	r2,0(r2)
  182fc8:	103fcd1e 	bne	r2,zero,182f00 <chHeapAlloc+0x60>
      return (void *)(hp + 1);
    }
    qp = hp;
  }

  H_UNLOCK(heapp);
  182fcc:	01839c00 	call	1839c0 <chMtxUnlock>

  /* More memory is required, tries to get it from the associated provider
     else fails.*/
  if (heapp->h_provider) {
  182fd0:	e0bffe17 	ldw	r2,-8(fp)
  182fd4:	10800017 	ldw	r2,0(r2)
  182fd8:	10001426 	beq	r2,zero,18302c <chHeapAlloc+0x18c>
    hp = heapp->h_provider(size + sizeof(union heap_header));
  182fdc:	e0bffe17 	ldw	r2,-8(fp)
  182fe0:	10c00017 	ldw	r3,0(r2)
  182fe4:	e0bfff17 	ldw	r2,-4(fp)
  182fe8:	10800204 	addi	r2,r2,8
  182fec:	1009883a 	mov	r4,r2
  182ff0:	183ee83a 	callr	r3
  182ff4:	e0bffc15 	stw	r2,-16(fp)
    if (hp != NULL) {
  182ff8:	e0bffc17 	ldw	r2,-16(fp)
  182ffc:	10000b26 	beq	r2,zero,18302c <chHeapAlloc+0x18c>
      hp->h.u.heap = heapp;
  183000:	e0bffc17 	ldw	r2,-16(fp)
  183004:	e0fffe17 	ldw	r3,-8(fp)
  183008:	10c00015 	stw	r3,0(r2)
      hp->h.size = size;
  18300c:	e0bffc17 	ldw	r2,-16(fp)
  183010:	e0ffff17 	ldw	r3,-4(fp)
  183014:	10c00115 	stw	r3,4(r2)
      hp++;
  183018:	e0bffc17 	ldw	r2,-16(fp)
  18301c:	10800204 	addi	r2,r2,8
  183020:	e0bffc15 	stw	r2,-16(fp)
      return (void *)hp;
  183024:	e0bffc17 	ldw	r2,-16(fp)
  183028:	00000106 	br	183030 <chHeapAlloc+0x190>
    }
  }
  return NULL;
  18302c:	0005883a 	mov	r2,zero
}
  183030:	e037883a 	mov	sp,fp
  183034:	dfc00117 	ldw	ra,4(sp)
  183038:	df000017 	ldw	fp,0(sp)
  18303c:	dec00204 	addi	sp,sp,8
  183040:	f800283a 	ret

00183044 <chHeapFree>:
 *
 * @param[in] p         pointer to the memory block to be freed
 *
 * @api
 */
void chHeapFree(void *p) {
  183044:	defffa04 	addi	sp,sp,-24
  183048:	dfc00515 	stw	ra,20(sp)
  18304c:	df000415 	stw	fp,16(sp)
  183050:	df000404 	addi	fp,sp,16
  183054:	e13fff15 	stw	r4,-4(fp)
  union heap_header *qp, *hp;
  MemoryHeap *heapp;

  chDbgCheck(p != NULL, "chHeapFree");

  hp = (union heap_header *)p - 1;
  183058:	e0bfff17 	ldw	r2,-4(fp)
  18305c:	10bffe04 	addi	r2,r2,-8
  183060:	e0bffd15 	stw	r2,-12(fp)
  heapp = hp->h.u.heap;
  183064:	e0bffd17 	ldw	r2,-12(fp)
  183068:	10800017 	ldw	r2,0(r2)
  18306c:	e0bffe15 	stw	r2,-8(fp)
  qp = &heapp->h_free;
  183070:	e0bffe17 	ldw	r2,-8(fp)
  183074:	10800104 	addi	r2,r2,4
  183078:	e0bffc15 	stw	r2,-16(fp)
  H_LOCK(heapp);
  18307c:	e0bffe17 	ldw	r2,-8(fp)
  183080:	10800304 	addi	r2,r2,12
  183084:	1009883a 	mov	r4,r2
  183088:	01837340 	call	183734 <chMtxLock>

  while (TRUE) {
    chDbgAssert((hp < qp) || (hp >= LIMIT(qp)),
  18308c:	e0fffd17 	ldw	r3,-12(fp)
  183090:	e0bffc17 	ldw	r2,-16(fp)
  183094:	18800036 	bltu	r3,r2,183098 <chHeapFree+0x54>
                "chHeapFree(), #1",
                "within free block");

    if (((qp == &heapp->h_free) || (hp > qp)) &&
  183098:	e0bffe17 	ldw	r2,-8(fp)
  18309c:	10c00104 	addi	r3,r2,4
  1830a0:	e0bffc17 	ldw	r2,-16(fp)
  1830a4:	18800326 	beq	r3,r2,1830b4 <chHeapFree+0x70>
  1830a8:	e0bffd17 	ldw	r2,-12(fp)
  1830ac:	e0fffc17 	ldw	r3,-16(fp)
  1830b0:	1880382e 	bgeu	r3,r2,183194 <chHeapFree+0x150>
        ((qp->h.u.next == NULL) || (hp < qp->h.u.next))) {
  1830b4:	e0bffc17 	ldw	r2,-16(fp)
  1830b8:	10800017 	ldw	r2,0(r2)
  while (TRUE) {
    chDbgAssert((hp < qp) || (hp >= LIMIT(qp)),
                "chHeapFree(), #1",
                "within free block");

    if (((qp == &heapp->h_free) || (hp > qp)) &&
  1830bc:	10000426 	beq	r2,zero,1830d0 <chHeapFree+0x8c>
        ((qp->h.u.next == NULL) || (hp < qp->h.u.next))) {
  1830c0:	e0bffc17 	ldw	r2,-16(fp)
  1830c4:	10800017 	ldw	r2,0(r2)
  1830c8:	e0fffd17 	ldw	r3,-12(fp)
  1830cc:	1880312e 	bgeu	r3,r2,183194 <chHeapFree+0x150>
      /* Insertion after qp.*/
      hp->h.u.next = qp->h.u.next;
  1830d0:	e0bffc17 	ldw	r2,-16(fp)
  1830d4:	10c00017 	ldw	r3,0(r2)
  1830d8:	e0bffd17 	ldw	r2,-12(fp)
  1830dc:	10c00015 	stw	r3,0(r2)
      qp->h.u.next = hp;
  1830e0:	e0bffc17 	ldw	r2,-16(fp)
  1830e4:	e0fffd17 	ldw	r3,-12(fp)
  1830e8:	10c00015 	stw	r3,0(r2)
      /* Verifies if the newly inserted block should be merged.*/
      if (LIMIT(hp) == hp->h.u.next) {
  1830ec:	e0bffd17 	ldw	r2,-12(fp)
  1830f0:	10800117 	ldw	r2,4(r2)
  1830f4:	10800204 	addi	r2,r2,8
  1830f8:	e0fffd17 	ldw	r3,-12(fp)
  1830fc:	1887883a 	add	r3,r3,r2
  183100:	e0bffd17 	ldw	r2,-12(fp)
  183104:	10800017 	ldw	r2,0(r2)
  183108:	18800e1e 	bne	r3,r2,183144 <chHeapFree+0x100>
        /* Merge with the next block.*/
        hp->h.size += hp->h.u.next->h.size + sizeof(union heap_header);
  18310c:	e0bffd17 	ldw	r2,-12(fp)
  183110:	10c00117 	ldw	r3,4(r2)
  183114:	e0bffd17 	ldw	r2,-12(fp)
  183118:	10800017 	ldw	r2,0(r2)
  18311c:	10800117 	ldw	r2,4(r2)
  183120:	1885883a 	add	r2,r3,r2
  183124:	10c00204 	addi	r3,r2,8
  183128:	e0bffd17 	ldw	r2,-12(fp)
  18312c:	10c00115 	stw	r3,4(r2)
        hp->h.u.next = hp->h.u.next->h.u.next;
  183130:	e0bffd17 	ldw	r2,-12(fp)
  183134:	10800017 	ldw	r2,0(r2)
  183138:	10c00017 	ldw	r3,0(r2)
  18313c:	e0bffd17 	ldw	r2,-12(fp)
  183140:	10c00015 	stw	r3,0(r2)
      }
      if ((LIMIT(qp) == hp)) {
  183144:	e0bffc17 	ldw	r2,-16(fp)
  183148:	10800117 	ldw	r2,4(r2)
  18314c:	10800204 	addi	r2,r2,8
  183150:	e0fffc17 	ldw	r3,-16(fp)
  183154:	1887883a 	add	r3,r3,r2
  183158:	e0bffd17 	ldw	r2,-12(fp)
  18315c:	1880111e 	bne	r3,r2,1831a4 <chHeapFree+0x160>
        /* Merge with the previous block.*/
        qp->h.size += hp->h.size + sizeof(union heap_header);
  183160:	e0bffc17 	ldw	r2,-16(fp)
  183164:	10c00117 	ldw	r3,4(r2)
  183168:	e0bffd17 	ldw	r2,-12(fp)
  18316c:	10800117 	ldw	r2,4(r2)
  183170:	1885883a 	add	r2,r3,r2
  183174:	10c00204 	addi	r3,r2,8
  183178:	e0bffc17 	ldw	r2,-16(fp)
  18317c:	10c00115 	stw	r3,4(r2)
        qp->h.u.next = hp->h.u.next;
  183180:	e0bffd17 	ldw	r2,-12(fp)
  183184:	10c00017 	ldw	r3,0(r2)
  183188:	e0bffc17 	ldw	r2,-16(fp)
  18318c:	10c00015 	stw	r3,0(r2)
      }
      break;
  183190:	00000406 	br	1831a4 <chHeapFree+0x160>
    }
    qp = qp->h.u.next;
  183194:	e0bffc17 	ldw	r2,-16(fp)
  183198:	10800017 	ldw	r2,0(r2)
  18319c:	e0bffc15 	stw	r2,-16(fp)
  }
  1831a0:	003fba06 	br	18308c <chHeapFree+0x48>
      if ((LIMIT(qp) == hp)) {
        /* Merge with the previous block.*/
        qp->h.size += hp->h.size + sizeof(union heap_header);
        qp->h.u.next = hp->h.u.next;
      }
      break;
  1831a4:	0001883a 	nop
    }
    qp = qp->h.u.next;
  }

  H_UNLOCK(heapp);
  1831a8:	01839c00 	call	1839c0 <chMtxUnlock>
  return;
  1831ac:	0001883a 	nop
}
  1831b0:	e037883a 	mov	sp,fp
  1831b4:	dfc00117 	ldw	ra,4(sp)
  1831b8:	df000017 	ldw	fp,0(sp)
  1831bc:	dec00204 	addi	sp,sp,8
  1831c0:	f800283a 	ret

001831c4 <chHeapStatus>:
 *                      fragmented free space
 * @return              The number of fragments in the heap.
 *
 * @api
 */
size_t chHeapStatus(MemoryHeap *heapp, size_t *sizep) {
  1831c4:	defff904 	addi	sp,sp,-28
  1831c8:	dfc00615 	stw	ra,24(sp)
  1831cc:	df000515 	stw	fp,20(sp)
  1831d0:	df000504 	addi	fp,sp,20
  1831d4:	e13ffe15 	stw	r4,-8(fp)
  1831d8:	e17fff15 	stw	r5,-4(fp)
  union heap_header *qp;
  size_t n, sz;

  if (heapp == NULL)
  1831dc:	e0bffe17 	ldw	r2,-8(fp)
  1831e0:	1000031e 	bne	r2,zero,1831f0 <chHeapStatus+0x2c>
    heapp = &default_heap;
  1831e4:	00800674 	movhi	r2,25
  1831e8:	10b15e04 	addi	r2,r2,-14984
  1831ec:	e0bffe15 	stw	r2,-8(fp)

  H_LOCK(heapp);
  1831f0:	e0bffe17 	ldw	r2,-8(fp)
  1831f4:	10800304 	addi	r2,r2,12
  1831f8:	1009883a 	mov	r4,r2
  1831fc:	01837340 	call	183734 <chMtxLock>

  sz = 0;
  183200:	e03ffd15 	stw	zero,-12(fp)
  for (n = 0, qp = &heapp->h_free; qp->h.u.next; n++, qp = qp->h.u.next)
  183204:	e03ffc15 	stw	zero,-16(fp)
  183208:	e0bffe17 	ldw	r2,-8(fp)
  18320c:	10800104 	addi	r2,r2,4
  183210:	e0bffb15 	stw	r2,-20(fp)
  183214:	00000c06 	br	183248 <chHeapStatus+0x84>
    sz += qp->h.u.next->h.size;
  183218:	e0bffb17 	ldw	r2,-20(fp)
  18321c:	10800017 	ldw	r2,0(r2)
  183220:	10800117 	ldw	r2,4(r2)
  183224:	e0fffd17 	ldw	r3,-12(fp)
  183228:	1885883a 	add	r2,r3,r2
  18322c:	e0bffd15 	stw	r2,-12(fp)
    heapp = &default_heap;

  H_LOCK(heapp);

  sz = 0;
  for (n = 0, qp = &heapp->h_free; qp->h.u.next; n++, qp = qp->h.u.next)
  183230:	e0bffc17 	ldw	r2,-16(fp)
  183234:	10800044 	addi	r2,r2,1
  183238:	e0bffc15 	stw	r2,-16(fp)
  18323c:	e0bffb17 	ldw	r2,-20(fp)
  183240:	10800017 	ldw	r2,0(r2)
  183244:	e0bffb15 	stw	r2,-20(fp)
  183248:	e0bffb17 	ldw	r2,-20(fp)
  18324c:	10800017 	ldw	r2,0(r2)
  183250:	103ff11e 	bne	r2,zero,183218 <chHeapStatus+0x54>
    sz += qp->h.u.next->h.size;
  if (sizep)
  183254:	e0bfff17 	ldw	r2,-4(fp)
  183258:	10000326 	beq	r2,zero,183268 <chHeapStatus+0xa4>
    *sizep = sz;
  18325c:	e0bfff17 	ldw	r2,-4(fp)
  183260:	e0fffd17 	ldw	r3,-12(fp)
  183264:	10c00015 	stw	r3,0(r2)

  H_UNLOCK(heapp);
  183268:	01839c00 	call	1839c0 <chMtxUnlock>
  return n;
  18326c:	e0bffc17 	ldw	r2,-16(fp)
}
  183270:	e037883a 	mov	sp,fp
  183274:	dfc00117 	ldw	ra,4(sp)
  183278:	df000017 	ldw	fp,0(sp)
  18327c:	dec00204 	addi	sp,sp,8
  183280:	f800283a 	ret

00183284 <_core_init>:
/**
 * @brief   Low level memory manager initialization.
 *
 * @notapi
 */
void _core_init(void) {
  183284:	deffff04 	addi	sp,sp,-4
  183288:	df000015 	stw	fp,0(sp)
  18328c:	d839883a 	mov	fp,sp
#if CH_MEMCORE_SIZE == 0
  extern uint8_t __heap_base__[];
  extern uint8_t __heap_end__[];
  nextmem = (uint8_t *)MEM_ALIGN_NEXT(__heap_base__);
  183290:	00800674 	movhi	r2,25
  183294:	10b2a504 	addi	r2,r2,-13676
  183298:	10c000c4 	addi	r3,r2,3
  18329c:	00bfff04 	movi	r2,-4
  1832a0:	1884703a 	and	r2,r3,r2
  1832a4:	d0a6d515 	stw	r2,-25772(gp)
  endmem = (uint8_t *)MEM_ALIGN_PREV(__heap_end__);
  1832a8:	00c00834 	movhi	r3,32
  1832ac:	18c00004 	addi	r3,r3,0
  1832b0:	00bfff04 	movi	r2,-4
  1832b4:	1884703a 	and	r2,r3,r2
  1832b8:	d0a6d615 	stw	r2,-25768(gp)
#else
  static stkalign_t buffer[MEM_ALIGN_NEXT(CH_MEMCORE_SIZE)/MEM_ALIGN_SIZE];
  nextmem = (uint8_t *)&buffer[0];
  endmem = (uint8_t *)&buffer[MEM_ALIGN_NEXT(CH_MEMCORE_SIZE)/MEM_ALIGN_SIZE];
#endif
}
  1832bc:	e037883a 	mov	sp,fp
  1832c0:	df000017 	ldw	fp,0(sp)
  1832c4:	dec00104 	addi	sp,sp,4
  1832c8:	f800283a 	ret

001832cc <chCoreAlloc>:
 * @return              A pointer to the allocated memory block.
 * @retval NULL         allocation failed, core memory exhausted.
 *
 * @api
 */
void *chCoreAlloc(size_t size) {
  1832cc:	defffa04 	addi	sp,sp,-24
  1832d0:	dfc00515 	stw	ra,20(sp)
  1832d4:	df000415 	stw	fp,16(sp)
  1832d8:	df000404 	addi	fp,sp,16
  1832dc:	e13fff15 	stw	r4,-4(fp)
static ALT_INLINE alt_irq_context ALT_ALWAYS_INLINE 
       alt_irq_disable_all (void)
{
  alt_irq_context context;

  NIOS2_READ_STATUS (context);
  1832e0:	0005303a 	rdctl	r2,status
  1832e4:	e0bffd15 	stw	r2,-12(fp)

  NIOS2_WRITE_STATUS (context & ~NIOS2_STATUS_PIE_MSK);
  1832e8:	e0fffd17 	ldw	r3,-12(fp)
  1832ec:	00bfff84 	movi	r2,-2
  1832f0:	1884703a 	and	r2,r3,r2
  1832f4:	1001703a 	wrctl	status,r2
  void *p;

  chSysLock();
  p = chCoreAllocI(size);
  1832f8:	e13fff17 	ldw	r4,-4(fp)
  1832fc:	018332c0 	call	18332c <chCoreAllocI>
  183300:	e0bffc15 	stw	r2,-16(fp)
  183304:	00800044 	movi	r2,1
  183308:	e0bffe15 	stw	r2,-8(fp)
  status &= ~NIOS2_STATUS_PIE_MSK;
  status |= (context & NIOS2_STATUS_PIE_MSK);
  
  NIOS2_WRITE_STATUS (status);
#else
  NIOS2_WRITE_STATUS (context);
  18330c:	e0bffe17 	ldw	r2,-8(fp)
  183310:	1001703a 	wrctl	status,r2
  chSysUnlock();
  return p;
  183314:	e0bffc17 	ldw	r2,-16(fp)
}
  183318:	e037883a 	mov	sp,fp
  18331c:	dfc00117 	ldw	ra,4(sp)
  183320:	df000017 	ldw	fp,0(sp)
  183324:	dec00204 	addi	sp,sp,8
  183328:	f800283a 	ret

0018332c <chCoreAllocI>:
 * @return              A pointer to the allocated memory block.
 * @retval NULL         allocation failed, core memory exhausted.
 *
 * @iclass
 */
void *chCoreAllocI(size_t size) {
  18332c:	defffd04 	addi	sp,sp,-12
  183330:	df000215 	stw	fp,8(sp)
  183334:	df000204 	addi	fp,sp,8
  183338:	e13fff15 	stw	r4,-4(fp)
  void *p;

  chDbgCheckClassI();

  size = MEM_ALIGN_NEXT(size);
  18333c:	e0bfff17 	ldw	r2,-4(fp)
  183340:	10c000c4 	addi	r3,r2,3
  183344:	00bfff04 	movi	r2,-4
  183348:	1884703a 	and	r2,r3,r2
  18334c:	e0bfff15 	stw	r2,-4(fp)
  if ((size_t)(endmem - nextmem) < size)
  183350:	d0a6d617 	ldw	r2,-25768(gp)
  183354:	1007883a 	mov	r3,r2
  183358:	d0a6d517 	ldw	r2,-25772(gp)
  18335c:	1885c83a 	sub	r2,r3,r2
  183360:	1007883a 	mov	r3,r2
  183364:	e0bfff17 	ldw	r2,-4(fp)
  183368:	1880022e 	bgeu	r3,r2,183374 <chCoreAllocI+0x48>
    return NULL;
  18336c:	0005883a 	mov	r2,zero
  183370:	00000706 	br	183390 <chCoreAllocI+0x64>
  p = nextmem;
  183374:	d0a6d517 	ldw	r2,-25772(gp)
  183378:	e0bffe15 	stw	r2,-8(fp)
  nextmem += size;
  18337c:	d0e6d517 	ldw	r3,-25772(gp)
  183380:	e0bfff17 	ldw	r2,-4(fp)
  183384:	1885883a 	add	r2,r3,r2
  183388:	d0a6d515 	stw	r2,-25772(gp)
  return p;
  18338c:	e0bffe17 	ldw	r2,-8(fp)
}
  183390:	e037883a 	mov	sp,fp
  183394:	df000017 	ldw	fp,0(sp)
  183398:	dec00104 	addi	sp,sp,4
  18339c:	f800283a 	ret

001833a0 <chCoreStatus>:
 *
 * @return              The size, in bytes, of the free core memory.
 *
 * @api
 */
size_t chCoreStatus(void) {
  1833a0:	deffff04 	addi	sp,sp,-4
  1833a4:	df000015 	stw	fp,0(sp)
  1833a8:	d839883a 	mov	fp,sp

  return (size_t)(endmem - nextmem);
  1833ac:	d0a6d617 	ldw	r2,-25768(gp)
  1833b0:	1007883a 	mov	r3,r2
  1833b4:	d0a6d517 	ldw	r2,-25772(gp)
  1833b8:	1885c83a 	sub	r2,r3,r2
}
  1833bc:	e037883a 	mov	sp,fp
  1833c0:	df000017 	ldw	fp,0(sp)
  1833c4:	dec00104 	addi	sp,sp,4
  1833c8:	f800283a 	ret

001833cc <chPoolInit>:
 *                      @p NULL if the pool is not allowed to grow
 *                      automatically
 *
 * @init
 */
void chPoolInit(MemoryPool *mp, size_t size, memgetfunc_t provider) {
  1833cc:	defffc04 	addi	sp,sp,-16
  1833d0:	df000315 	stw	fp,12(sp)
  1833d4:	df000304 	addi	fp,sp,12
  1833d8:	e13ffd15 	stw	r4,-12(fp)
  1833dc:	e17ffe15 	stw	r5,-8(fp)
  1833e0:	e1bfff15 	stw	r6,-4(fp)

  chDbgCheck((mp != NULL) && (size >= sizeof(void *)), "chPoolInit");
  1833e4:	e0bffd17 	ldw	r2,-12(fp)
  1833e8:	10000026 	beq	r2,zero,1833ec <chPoolInit+0x20>

  mp->mp_next = NULL;
  1833ec:	e0bffd17 	ldw	r2,-12(fp)
  1833f0:	10000015 	stw	zero,0(r2)
  mp->mp_object_size = MEM_ALIGN_NEXT(size);
  1833f4:	e0bffe17 	ldw	r2,-8(fp)
  1833f8:	10c000c4 	addi	r3,r2,3
  1833fc:	00bfff04 	movi	r2,-4
  183400:	1886703a 	and	r3,r3,r2
  183404:	e0bffd17 	ldw	r2,-12(fp)
  183408:	10c00115 	stw	r3,4(r2)
  mp->mp_provider = provider;
  18340c:	e0bffd17 	ldw	r2,-12(fp)
  183410:	e0ffff17 	ldw	r3,-4(fp)
  183414:	10c00215 	stw	r3,8(r2)
}
  183418:	e037883a 	mov	sp,fp
  18341c:	df000017 	ldw	fp,0(sp)
  183420:	dec00104 	addi	sp,sp,4
  183424:	f800283a 	ret

00183428 <chPoolAllocI>:
 * @return              The pointer to the allocated object.
 * @retval NULL         if pool is empty.
 *
 * @iclass
 */
void *chPoolAllocI(MemoryPool *mp) {
  183428:	defffc04 	addi	sp,sp,-16
  18342c:	dfc00315 	stw	ra,12(sp)
  183430:	df000215 	stw	fp,8(sp)
  183434:	df000204 	addi	fp,sp,8
  183438:	e13fff15 	stw	r4,-4(fp)
  void *objp;

  chDbgCheckClassI();
  chDbgCheck(mp != NULL, "chPoolAllocI");

  if ((objp = mp->mp_next) != NULL)
  18343c:	e0bfff17 	ldw	r2,-4(fp)
  183440:	10800017 	ldw	r2,0(r2)
  183444:	e0bffe15 	stw	r2,-8(fp)
  183448:	e0bffe17 	ldw	r2,-8(fp)
  18344c:	10000626 	beq	r2,zero,183468 <chPoolAllocI+0x40>
    mp->mp_next = mp->mp_next->ph_next;
  183450:	e0bfff17 	ldw	r2,-4(fp)
  183454:	10800017 	ldw	r2,0(r2)
  183458:	10c00017 	ldw	r3,0(r2)
  18345c:	e0bfff17 	ldw	r2,-4(fp)
  183460:	10c00015 	stw	r3,0(r2)
  183464:	00000a06 	br	183490 <chPoolAllocI+0x68>
  else if (mp->mp_provider != NULL)
  183468:	e0bfff17 	ldw	r2,-4(fp)
  18346c:	10800217 	ldw	r2,8(r2)
  183470:	10000726 	beq	r2,zero,183490 <chPoolAllocI+0x68>
    objp = mp->mp_provider(mp->mp_object_size);
  183474:	e0bfff17 	ldw	r2,-4(fp)
  183478:	10c00217 	ldw	r3,8(r2)
  18347c:	e0bfff17 	ldw	r2,-4(fp)
  183480:	10800117 	ldw	r2,4(r2)
  183484:	1009883a 	mov	r4,r2
  183488:	183ee83a 	callr	r3
  18348c:	e0bffe15 	stw	r2,-8(fp)
  return objp;
  183490:	e0bffe17 	ldw	r2,-8(fp)
}
  183494:	e037883a 	mov	sp,fp
  183498:	dfc00117 	ldw	ra,4(sp)
  18349c:	df000017 	ldw	fp,0(sp)
  1834a0:	dec00204 	addi	sp,sp,8
  1834a4:	f800283a 	ret

001834a8 <chPoolAlloc>:
 * @return              The pointer to the allocated object.
 * @retval NULL         if pool is empty.
 *
 * @api
 */
void *chPoolAlloc(MemoryPool *mp) {
  1834a8:	defffa04 	addi	sp,sp,-24
  1834ac:	dfc00515 	stw	ra,20(sp)
  1834b0:	df000415 	stw	fp,16(sp)
  1834b4:	df000404 	addi	fp,sp,16
  1834b8:	e13fff15 	stw	r4,-4(fp)
static ALT_INLINE alt_irq_context ALT_ALWAYS_INLINE 
       alt_irq_disable_all (void)
{
  alt_irq_context context;

  NIOS2_READ_STATUS (context);
  1834bc:	0005303a 	rdctl	r2,status
  1834c0:	e0bffd15 	stw	r2,-12(fp)

  NIOS2_WRITE_STATUS (context & ~NIOS2_STATUS_PIE_MSK);
  1834c4:	e0fffd17 	ldw	r3,-12(fp)
  1834c8:	00bfff84 	movi	r2,-2
  1834cc:	1884703a 	and	r2,r3,r2
  1834d0:	1001703a 	wrctl	status,r2
  void *objp;

  chSysLock();
  objp = chPoolAllocI(mp);
  1834d4:	e13fff17 	ldw	r4,-4(fp)
  1834d8:	01834280 	call	183428 <chPoolAllocI>
  1834dc:	e0bffc15 	stw	r2,-16(fp)
  1834e0:	00800044 	movi	r2,1
  1834e4:	e0bffe15 	stw	r2,-8(fp)
  status &= ~NIOS2_STATUS_PIE_MSK;
  status |= (context & NIOS2_STATUS_PIE_MSK);
  
  NIOS2_WRITE_STATUS (status);
#else
  NIOS2_WRITE_STATUS (context);
  1834e8:	e0bffe17 	ldw	r2,-8(fp)
  1834ec:	1001703a 	wrctl	status,r2
  chSysUnlock();
  return objp;
  1834f0:	e0bffc17 	ldw	r2,-16(fp)
}
  1834f4:	e037883a 	mov	sp,fp
  1834f8:	dfc00117 	ldw	ra,4(sp)
  1834fc:	df000017 	ldw	fp,0(sp)
  183500:	dec00204 	addi	sp,sp,8
  183504:	f800283a 	ret

00183508 <chPoolFreeI>:
 * @param[in] mp        pointer to a @p MemoryPool structure
 * @param[in] objp      the pointer to the object to be released or added
 *
 * @iclass
 */
void chPoolFreeI(MemoryPool *mp, void *objp) {
  183508:	defffc04 	addi	sp,sp,-16
  18350c:	df000315 	stw	fp,12(sp)
  183510:	df000304 	addi	fp,sp,12
  183514:	e13ffe15 	stw	r4,-8(fp)
  183518:	e17fff15 	stw	r5,-4(fp)
  struct pool_header *php = objp;
  18351c:	e0bfff17 	ldw	r2,-4(fp)
  183520:	e0bffd15 	stw	r2,-12(fp)

  chDbgCheckClassI();
  chDbgCheck((mp != NULL) && (objp != NULL) && MEM_IS_ALIGNED(objp),
  183524:	e0bffe17 	ldw	r2,-8(fp)
  183528:	10000226 	beq	r2,zero,183534 <chPoolFreeI+0x2c>
  18352c:	e0bfff17 	ldw	r2,-4(fp)
  183530:	10000026 	beq	r2,zero,183534 <chPoolFreeI+0x2c>
             "chPoolFreeI");

  php->ph_next = mp->mp_next;
  183534:	e0bffe17 	ldw	r2,-8(fp)
  183538:	10c00017 	ldw	r3,0(r2)
  18353c:	e0bffd17 	ldw	r2,-12(fp)
  183540:	10c00015 	stw	r3,0(r2)
  mp->mp_next = php;
  183544:	e0bffe17 	ldw	r2,-8(fp)
  183548:	e0fffd17 	ldw	r3,-12(fp)
  18354c:	10c00015 	stw	r3,0(r2)
}
  183550:	e037883a 	mov	sp,fp
  183554:	df000017 	ldw	fp,0(sp)
  183558:	dec00104 	addi	sp,sp,4
  18355c:	f800283a 	ret

00183560 <chPoolFree>:
 * @param[in] mp        pointer to a @p MemoryPool structure
 * @param[in] objp      the pointer to the object to be released or added
 *
 * @api
 */
void chPoolFree(MemoryPool *mp, void *objp) {
  183560:	defffa04 	addi	sp,sp,-24
  183564:	dfc00515 	stw	ra,20(sp)
  183568:	df000415 	stw	fp,16(sp)
  18356c:	df000404 	addi	fp,sp,16
  183570:	e13ffe15 	stw	r4,-8(fp)
  183574:	e17fff15 	stw	r5,-4(fp)
static ALT_INLINE alt_irq_context ALT_ALWAYS_INLINE 
       alt_irq_disable_all (void)
{
  alt_irq_context context;

  NIOS2_READ_STATUS (context);
  183578:	0005303a 	rdctl	r2,status
  18357c:	e0bffc15 	stw	r2,-16(fp)

  NIOS2_WRITE_STATUS (context & ~NIOS2_STATUS_PIE_MSK);
  183580:	e0fffc17 	ldw	r3,-16(fp)
  183584:	00bfff84 	movi	r2,-2
  183588:	1884703a 	and	r2,r3,r2
  18358c:	1001703a 	wrctl	status,r2

  chSysLock();
  chPoolFreeI(mp, objp);
  183590:	e13ffe17 	ldw	r4,-8(fp)
  183594:	e17fff17 	ldw	r5,-4(fp)
  183598:	01835080 	call	183508 <chPoolFreeI>
  18359c:	00800044 	movi	r2,1
  1835a0:	e0bffd15 	stw	r2,-12(fp)
  status &= ~NIOS2_STATUS_PIE_MSK;
  status |= (context & NIOS2_STATUS_PIE_MSK);
  
  NIOS2_WRITE_STATUS (status);
#else
  NIOS2_WRITE_STATUS (context);
  1835a4:	e0bffd17 	ldw	r2,-12(fp)
  1835a8:	1001703a 	wrctl	status,r2
  chSysUnlock();
}
  1835ac:	e037883a 	mov	sp,fp
  1835b0:	dfc00117 	ldw	ra,4(sp)
  1835b4:	df000017 	ldw	fp,0(sp)
  1835b8:	dec00204 	addi	sp,sp,8
  1835bc:	f800283a 	ret

001835c0 <prio_insert>:
#define _CHINLINE_H_

/* If the performance code path has been chosen then all the following
   functions are inlined into the various kernel modules.*/
#if CH_OPTIMIZE_SPEED
static INLINE void prio_insert(Thread *tp, ThreadsQueue *tqp) {
  1835c0:	defffc04 	addi	sp,sp,-16
  1835c4:	df000315 	stw	fp,12(sp)
  1835c8:	df000304 	addi	fp,sp,12
  1835cc:	e13ffe15 	stw	r4,-8(fp)
  1835d0:	e17fff15 	stw	r5,-4(fp)

  Thread *cp = (Thread *)tqp;
  1835d4:	e0bfff17 	ldw	r2,-4(fp)
  1835d8:	e0bffd15 	stw	r2,-12(fp)
  do {
    cp = cp->p_next;
  1835dc:	e0bffd17 	ldw	r2,-12(fp)
  1835e0:	10800017 	ldw	r2,0(r2)
  1835e4:	e0bffd15 	stw	r2,-12(fp)
  } while ((cp != (Thread *)tqp) && (cp->p_prio >= tp->p_prio));
  1835e8:	e0fffd17 	ldw	r3,-12(fp)
  1835ec:	e0bfff17 	ldw	r2,-4(fp)
  1835f0:	18800526 	beq	r3,r2,183608 <prio_insert+0x48>
  1835f4:	e0bffd17 	ldw	r2,-12(fp)
  1835f8:	10c00217 	ldw	r3,8(r2)
  1835fc:	e0bffe17 	ldw	r2,-8(fp)
  183600:	10800217 	ldw	r2,8(r2)
  183604:	18bff52e 	bgeu	r3,r2,1835dc <prio_insert+0x1c>
  tp->p_next = cp;
  183608:	e0bffe17 	ldw	r2,-8(fp)
  18360c:	e0fffd17 	ldw	r3,-12(fp)
  183610:	10c00015 	stw	r3,0(r2)
  tp->p_prev = cp->p_prev;
  183614:	e0bffd17 	ldw	r2,-12(fp)
  183618:	10c00117 	ldw	r3,4(r2)
  18361c:	e0bffe17 	ldw	r2,-8(fp)
  183620:	10c00115 	stw	r3,4(r2)
  tp->p_prev->p_next = cp->p_prev = tp;
  183624:	e0bffe17 	ldw	r2,-8(fp)
  183628:	10800117 	ldw	r2,4(r2)
  18362c:	e0fffd17 	ldw	r3,-12(fp)
  183630:	e13ffe17 	ldw	r4,-8(fp)
  183634:	19000115 	stw	r4,4(r3)
  183638:	e0fffd17 	ldw	r3,-12(fp)
  18363c:	18c00117 	ldw	r3,4(r3)
  183640:	10c00015 	stw	r3,0(r2)
}
  183644:	e037883a 	mov	sp,fp
  183648:	df000017 	ldw	fp,0(sp)
  18364c:	dec00104 	addi	sp,sp,4
  183650:	f800283a 	ret

00183654 <fifo_remove>:
  tp->p_next = (Thread *)tqp;
  tp->p_prev = tqp->p_prev;
  tp->p_prev->p_next = tqp->p_prev = tp;
}

static INLINE Thread *fifo_remove(ThreadsQueue *tqp) {
  183654:	defffd04 	addi	sp,sp,-12
  183658:	df000215 	stw	fp,8(sp)
  18365c:	df000204 	addi	fp,sp,8
  183660:	e13fff15 	stw	r4,-4(fp)
  Thread *tp = tqp->p_next;
  183664:	e0bfff17 	ldw	r2,-4(fp)
  183668:	10800017 	ldw	r2,0(r2)
  18366c:	e0bffe15 	stw	r2,-8(fp)

  (tqp->p_next = tp->p_next)->p_prev = (Thread *)tqp;
  183670:	e0bffe17 	ldw	r2,-8(fp)
  183674:	10c00017 	ldw	r3,0(r2)
  183678:	e0bfff17 	ldw	r2,-4(fp)
  18367c:	10c00015 	stw	r3,0(r2)
  183680:	e0bfff17 	ldw	r2,-4(fp)
  183684:	10800017 	ldw	r2,0(r2)
  183688:	e0ffff17 	ldw	r3,-4(fp)
  18368c:	10c00115 	stw	r3,4(r2)
  return tp;
  183690:	e0bffe17 	ldw	r2,-8(fp)
}
  183694:	e037883a 	mov	sp,fp
  183698:	df000017 	ldw	fp,0(sp)
  18369c:	dec00104 	addi	sp,sp,4
  1836a0:	f800283a 	ret

001836a4 <dequeue>:

  (tqp->p_prev = tp->p_prev)->p_next = (Thread *)tqp;
  return tp;
}

static INLINE Thread *dequeue(Thread *tp) {
  1836a4:	defffe04 	addi	sp,sp,-8
  1836a8:	df000115 	stw	fp,4(sp)
  1836ac:	df000104 	addi	fp,sp,4
  1836b0:	e13fff15 	stw	r4,-4(fp)

  tp->p_prev->p_next = tp->p_next;
  1836b4:	e0bfff17 	ldw	r2,-4(fp)
  1836b8:	10800117 	ldw	r2,4(r2)
  1836bc:	e0ffff17 	ldw	r3,-4(fp)
  1836c0:	18c00017 	ldw	r3,0(r3)
  1836c4:	10c00015 	stw	r3,0(r2)
  tp->p_next->p_prev = tp->p_prev;
  1836c8:	e0bfff17 	ldw	r2,-4(fp)
  1836cc:	10800017 	ldw	r2,0(r2)
  1836d0:	e0ffff17 	ldw	r3,-4(fp)
  1836d4:	18c00117 	ldw	r3,4(r3)
  1836d8:	10c00115 	stw	r3,4(r2)
  return tp;
  1836dc:	e0bfff17 	ldw	r2,-4(fp)
}
  1836e0:	e037883a 	mov	sp,fp
  1836e4:	df000017 	ldw	fp,0(sp)
  1836e8:	dec00104 	addi	sp,sp,4
  1836ec:	f800283a 	ret

001836f0 <chMtxInit>:
 *
 * @param[out] mp       pointer to a @p Mutex structure
 *
 * @init
 */
void chMtxInit(Mutex *mp) {
  1836f0:	defffe04 	addi	sp,sp,-8
  1836f4:	df000115 	stw	fp,4(sp)
  1836f8:	df000104 	addi	fp,sp,4
  1836fc:	e13fff15 	stw	r4,-4(fp)

  chDbgCheck(mp != NULL, "chMtxInit");

  queue_init(&mp->m_queue);
  183700:	e0ffff17 	ldw	r3,-4(fp)
  183704:	e0bfff17 	ldw	r2,-4(fp)
  183708:	10c00115 	stw	r3,4(r2)
  18370c:	e0bfff17 	ldw	r2,-4(fp)
  183710:	10c00117 	ldw	r3,4(r2)
  183714:	e0bfff17 	ldw	r2,-4(fp)
  183718:	10c00015 	stw	r3,0(r2)
  mp->m_owner = NULL;
  18371c:	e0bfff17 	ldw	r2,-4(fp)
  183720:	10000215 	stw	zero,8(r2)
}
  183724:	e037883a 	mov	sp,fp
  183728:	df000017 	ldw	fp,0(sp)
  18372c:	dec00104 	addi	sp,sp,4
  183730:	f800283a 	ret

00183734 <chMtxLock>:
 *
 * @param[in] mp        pointer to the @p Mutex structure
 *
 * @api
 */
void chMtxLock(Mutex *mp) {
  183734:	defffb04 	addi	sp,sp,-20
  183738:	dfc00415 	stw	ra,16(sp)
  18373c:	df000315 	stw	fp,12(sp)
  183740:	df000304 	addi	fp,sp,12
  183744:	e13fff15 	stw	r4,-4(fp)
static ALT_INLINE alt_irq_context ALT_ALWAYS_INLINE 
       alt_irq_disable_all (void)
{
  alt_irq_context context;

  NIOS2_READ_STATUS (context);
  183748:	0005303a 	rdctl	r2,status
  18374c:	e0bffd15 	stw	r2,-12(fp)

  NIOS2_WRITE_STATUS (context & ~NIOS2_STATUS_PIE_MSK);
  183750:	e0fffd17 	ldw	r3,-12(fp)
  183754:	00bfff84 	movi	r2,-2
  183758:	1884703a 	and	r2,r3,r2
  18375c:	1001703a 	wrctl	status,r2

  chSysLock();

  chMtxLockS(mp);
  183760:	e13fff17 	ldw	r4,-4(fp)
  183764:	018378c0 	call	18378c <chMtxLockS>
  183768:	00800044 	movi	r2,1
  18376c:	e0bffe15 	stw	r2,-8(fp)
  status &= ~NIOS2_STATUS_PIE_MSK;
  status |= (context & NIOS2_STATUS_PIE_MSK);
  
  NIOS2_WRITE_STATUS (status);
#else
  NIOS2_WRITE_STATUS (context);
  183770:	e0bffe17 	ldw	r2,-8(fp)
  183774:	1001703a 	wrctl	status,r2

  chSysUnlock();
}
  183778:	e037883a 	mov	sp,fp
  18377c:	dfc00117 	ldw	ra,4(sp)
  183780:	df000017 	ldw	fp,0(sp)
  183784:	dec00204 	addi	sp,sp,8
  183788:	f800283a 	ret

0018378c <chMtxLockS>:
 *
 * @param[in] mp        pointer to the @p Mutex structure
 *
 * @sclass
 */
void chMtxLockS(Mutex *mp) {
  18378c:	defffb04 	addi	sp,sp,-20
  183790:	dfc00415 	stw	ra,16(sp)
  183794:	df000315 	stw	fp,12(sp)
  183798:	df000304 	addi	fp,sp,12
  18379c:	e13fff15 	stw	r4,-4(fp)
  Thread *ctp = currp;
  1837a0:	00800674 	movhi	r2,25
  1837a4:	10b18704 	addi	r2,r2,-14820
  1837a8:	10800717 	ldw	r2,28(r2)
  1837ac:	e0bffe15 	stw	r2,-8(fp)

  chDbgCheckClassS();
  chDbgCheck(mp != NULL, "chMtxLockS");

  /* Is the mutex already locked? */
  if (mp->m_owner != NULL) {
  1837b0:	e0bfff17 	ldw	r2,-4(fp)
  1837b4:	10800217 	ldw	r2,8(r2)
  1837b8:	10003c26 	beq	r2,zero,1838ac <chMtxLockS+0x120>
    /* Priority inheritance protocol; explores the thread-mutex dependencies
       boosting the priority of all the affected threads to equal the priority
       of the running thread requesting the mutex.*/
    Thread *tp = mp->m_owner;
  1837bc:	e0bfff17 	ldw	r2,-4(fp)
  1837c0:	10800217 	ldw	r2,8(r2)
  1837c4:	e0bffd15 	stw	r2,-12(fp)
    /* Does the running thread have higher priority than the mutex
       owning thread? */
    while (tp->p_prio < ctp->p_prio) {
  1837c8:	00002906 	br	183870 <chMtxLockS+0xe4>
      /* Make priority of thread tp match the running thread's priority.*/
      tp->p_prio = ctp->p_prio;
  1837cc:	e0bffe17 	ldw	r2,-8(fp)
  1837d0:	10c00217 	ldw	r3,8(r2)
  1837d4:	e0bffd17 	ldw	r2,-12(fp)
  1837d8:	10c00215 	stw	r3,8(r2)
      /* The following states need priority queues reordering.*/
      switch (tp->p_state) {
  1837dc:	e0bffd17 	ldw	r2,-12(fp)
  1837e0:	10800703 	ldbu	r2,28(r2)
  1837e4:	10803fcc 	andi	r2,r2,255
  1837e8:	10c00120 	cmpeqi	r3,r2,4
  1837ec:	1800041e 	bne	r3,zero,183800 <chMtxLockS+0x74>
  1837f0:	10c00160 	cmpeqi	r3,r2,5
  1837f4:	18000f1e 	bne	r3,zero,183834 <chMtxLockS+0xa8>
  1837f8:	10001726 	beq	r2,zero,183858 <chMtxLockS+0xcc>
  1837fc:	00001b06 	br	18386c <chMtxLockS+0xe0>
      case THD_STATE_WTMTX:
        /* Re-enqueues the mutex owner with its new priority.*/
        prio_insert(dequeue(tp), (ThreadsQueue *)tp->p_u.wtobjp);
  183800:	e13ffd17 	ldw	r4,-12(fp)
  183804:	01836a40 	call	1836a4 <dequeue>
  183808:	1007883a 	mov	r3,r2
  18380c:	e0bffd17 	ldw	r2,-12(fp)
  183810:	10800917 	ldw	r2,36(r2)
  183814:	1809883a 	mov	r4,r3
  183818:	100b883a 	mov	r5,r2
  18381c:	01835c00 	call	1835c0 <prio_insert>
        tp = ((Mutex *)tp->p_u.wtobjp)->m_owner;
  183820:	e0bffd17 	ldw	r2,-12(fp)
  183824:	10800917 	ldw	r2,36(r2)
  183828:	10800217 	ldw	r2,8(r2)
  18382c:	e0bffd15 	stw	r2,-12(fp)
        continue;
  183830:	00000f06 	br	183870 <chMtxLockS+0xe4>
#endif
#if CH_USE_MESSAGES && CH_USE_MESSAGES_PRIORITY
      case THD_STATE_SNDMSGQ:
#endif
        /* Re-enqueues tp with its new priority on the queue.*/
        prio_insert(dequeue(tp), (ThreadsQueue *)tp->p_u.wtobjp);
  183834:	e13ffd17 	ldw	r4,-12(fp)
  183838:	01836a40 	call	1836a4 <dequeue>
  18383c:	1007883a 	mov	r3,r2
  183840:	e0bffd17 	ldw	r2,-12(fp)
  183844:	10800917 	ldw	r2,36(r2)
  183848:	1809883a 	mov	r4,r3
  18384c:	100b883a 	mov	r5,r2
  183850:	01835c00 	call	1835c0 <prio_insert>
        break;
  183854:	00000506 	br	18386c <chMtxLockS+0xe0>
#if CH_DBG_ENABLE_ASSERTS
        /* Prevents an assertion in chSchReadyI().*/
        tp->p_state = THD_STATE_CURRENT;
#endif
        /* Re-enqueues tp with its new priority on the ready list.*/
        chSchReadyI(dequeue(tp));
  183858:	e13ffd17 	ldw	r4,-12(fp)
  18385c:	01836a40 	call	1836a4 <dequeue>
  183860:	1009883a 	mov	r4,r2
  183864:	0183e580 	call	183e58 <chSchReadyI>
        break;
  183868:	0001883a 	nop
      }
      break;
  18386c:	00000506 	br	183884 <chMtxLockS+0xf8>
       boosting the priority of all the affected threads to equal the priority
       of the running thread requesting the mutex.*/
    Thread *tp = mp->m_owner;
    /* Does the running thread have higher priority than the mutex
       owning thread? */
    while (tp->p_prio < ctp->p_prio) {
  183870:	e0bffd17 	ldw	r2,-12(fp)
  183874:	10c00217 	ldw	r3,8(r2)
  183878:	e0bffe17 	ldw	r2,-8(fp)
  18387c:	10800217 	ldw	r2,8(r2)
  183880:	18bfd236 	bltu	r3,r2,1837cc <chMtxLockS+0x40>
        break;
      }
      break;
    }
    /* Sleep on the mutex.*/
    prio_insert(ctp, &mp->m_queue);
  183884:	e0bfff17 	ldw	r2,-4(fp)
  183888:	e13ffe17 	ldw	r4,-8(fp)
  18388c:	100b883a 	mov	r5,r2
  183890:	01835c00 	call	1835c0 <prio_insert>
    ctp->p_u.wtobjp = mp;
  183894:	e0bffe17 	ldw	r2,-8(fp)
  183898:	e0ffff17 	ldw	r3,-4(fp)
  18389c:	10c00915 	stw	r3,36(r2)
    chSchGoSleepS(THD_STATE_WTMTX);
  1838a0:	01000104 	movi	r4,4
  1838a4:	0183eec0 	call	183eec <chSchGoSleepS>
  1838a8:	00000a06 	br	1838d4 <chMtxLockS+0x148>
    chDbgAssert(mp->m_owner == ctp, "chMtxLockS(), #1", "not owner");
    chDbgAssert(ctp->p_mtxlist == mp, "chMtxLockS(), #2", "not owned");
  }
  else {
    /* It was not owned, inserted in the owned mutexes list.*/
    mp->m_owner = ctp;
  1838ac:	e0bfff17 	ldw	r2,-4(fp)
  1838b0:	e0fffe17 	ldw	r3,-8(fp)
  1838b4:	10c00215 	stw	r3,8(r2)
    mp->m_next = ctp->p_mtxlist;
  1838b8:	e0bffe17 	ldw	r2,-8(fp)
  1838bc:	10c00f17 	ldw	r3,60(r2)
  1838c0:	e0bfff17 	ldw	r2,-4(fp)
  1838c4:	10c00315 	stw	r3,12(r2)
    ctp->p_mtxlist = mp;
  1838c8:	e0bffe17 	ldw	r2,-8(fp)
  1838cc:	e0ffff17 	ldw	r3,-4(fp)
  1838d0:	10c00f15 	stw	r3,60(r2)
  }
}
  1838d4:	e037883a 	mov	sp,fp
  1838d8:	dfc00117 	ldw	ra,4(sp)
  1838dc:	df000017 	ldw	fp,0(sp)
  1838e0:	dec00204 	addi	sp,sp,8
  1838e4:	f800283a 	ret

001838e8 <chMtxTryLock>:
 * @retval TRUE         if the mutex has been successfully acquired
 * @retval FALSE        if the lock attempt failed.
 *
 * @api
 */
bool_t chMtxTryLock(Mutex *mp) {
  1838e8:	defffa04 	addi	sp,sp,-24
  1838ec:	dfc00515 	stw	ra,20(sp)
  1838f0:	df000415 	stw	fp,16(sp)
  1838f4:	df000404 	addi	fp,sp,16
  1838f8:	e13fff15 	stw	r4,-4(fp)
static ALT_INLINE alt_irq_context ALT_ALWAYS_INLINE 
       alt_irq_disable_all (void)
{
  alt_irq_context context;

  NIOS2_READ_STATUS (context);
  1838fc:	0005303a 	rdctl	r2,status
  183900:	e0bffd15 	stw	r2,-12(fp)

  NIOS2_WRITE_STATUS (context & ~NIOS2_STATUS_PIE_MSK);
  183904:	e0fffd17 	ldw	r3,-12(fp)
  183908:	00bfff84 	movi	r2,-2
  18390c:	1884703a 	and	r2,r3,r2
  183910:	1001703a 	wrctl	status,r2
  bool_t b;

  chSysLock();

  b = chMtxTryLockS(mp);
  183914:	e13fff17 	ldw	r4,-4(fp)
  183918:	01839480 	call	183948 <chMtxTryLockS>
  18391c:	e0bffc15 	stw	r2,-16(fp)
  183920:	00800044 	movi	r2,1
  183924:	e0bffe15 	stw	r2,-8(fp)
  status &= ~NIOS2_STATUS_PIE_MSK;
  status |= (context & NIOS2_STATUS_PIE_MSK);
  
  NIOS2_WRITE_STATUS (status);
#else
  NIOS2_WRITE_STATUS (context);
  183928:	e0bffe17 	ldw	r2,-8(fp)
  18392c:	1001703a 	wrctl	status,r2

  chSysUnlock();
  return b;
  183930:	e0bffc17 	ldw	r2,-16(fp)
}
  183934:	e037883a 	mov	sp,fp
  183938:	dfc00117 	ldw	ra,4(sp)
  18393c:	df000017 	ldw	fp,0(sp)
  183940:	dec00204 	addi	sp,sp,8
  183944:	f800283a 	ret

00183948 <chMtxTryLockS>:
 * @retval TRUE         if the mutex has been successfully acquired
 * @retval FALSE        if the lock attempt failed.
 *
 * @sclass
 */
bool_t chMtxTryLockS(Mutex *mp) {
  183948:	defffe04 	addi	sp,sp,-8
  18394c:	df000115 	stw	fp,4(sp)
  183950:	df000104 	addi	fp,sp,4
  183954:	e13fff15 	stw	r4,-4(fp)

  chDbgCheckClassS();
  chDbgCheck(mp != NULL, "chMtxTryLockS");

  if (mp->m_owner != NULL)
  183958:	e0bfff17 	ldw	r2,-4(fp)
  18395c:	10800217 	ldw	r2,8(r2)
  183960:	10000226 	beq	r2,zero,18396c <chMtxTryLockS+0x24>
    return FALSE;
  183964:	0005883a 	mov	r2,zero
  183968:	00001106 	br	1839b0 <chMtxTryLockS+0x68>
  mp->m_owner = currp;
  18396c:	00800674 	movhi	r2,25
  183970:	10b18704 	addi	r2,r2,-14820
  183974:	10c00717 	ldw	r3,28(r2)
  183978:	e0bfff17 	ldw	r2,-4(fp)
  18397c:	10c00215 	stw	r3,8(r2)
  mp->m_next = currp->p_mtxlist;
  183980:	00800674 	movhi	r2,25
  183984:	10b18704 	addi	r2,r2,-14820
  183988:	10800717 	ldw	r2,28(r2)
  18398c:	10c00f17 	ldw	r3,60(r2)
  183990:	e0bfff17 	ldw	r2,-4(fp)
  183994:	10c00315 	stw	r3,12(r2)
  currp->p_mtxlist = mp;
  183998:	00800674 	movhi	r2,25
  18399c:	10b18704 	addi	r2,r2,-14820
  1839a0:	10800717 	ldw	r2,28(r2)
  1839a4:	e0ffff17 	ldw	r3,-4(fp)
  1839a8:	10c00f15 	stw	r3,60(r2)
  return TRUE;
  1839ac:	00800044 	movi	r2,1
}
  1839b0:	e037883a 	mov	sp,fp
  1839b4:	df000017 	ldw	fp,0(sp)
  1839b8:	dec00104 	addi	sp,sp,4
  1839bc:	f800283a 	ret

001839c0 <chMtxUnlock>:
 *
 * @return              A pointer to the unlocked mutex.
 *
 * @api
 */
Mutex *chMtxUnlock(void) {
  1839c0:	defff704 	addi	sp,sp,-36
  1839c4:	dfc00815 	stw	ra,32(sp)
  1839c8:	df000715 	stw	fp,28(sp)
  1839cc:	df000704 	addi	fp,sp,28
  Thread *ctp = currp;
  1839d0:	00800674 	movhi	r2,25
  1839d4:	10b18704 	addi	r2,r2,-14820
  1839d8:	10800717 	ldw	r2,28(r2)
  1839dc:	e0bffb15 	stw	r2,-20(fp)
static ALT_INLINE alt_irq_context ALT_ALWAYS_INLINE 
       alt_irq_disable_all (void)
{
  alt_irq_context context;

  NIOS2_READ_STATUS (context);
  1839e0:	0005303a 	rdctl	r2,status
  1839e4:	e0bffe15 	stw	r2,-8(fp)

  NIOS2_WRITE_STATUS (context & ~NIOS2_STATUS_PIE_MSK);
  1839e8:	e0fffe17 	ldw	r3,-8(fp)
  1839ec:	00bfff84 	movi	r2,-2
  1839f0:	1884703a 	and	r2,r3,r2
  1839f4:	1001703a 	wrctl	status,r2
  chDbgAssert(ctp->p_mtxlist->m_owner == ctp,
              "chMtxUnlock(), #2",
              "ownership failure");
  /* Removes the top Mutex from the Thread's owned mutexes list and mark it
     as not owned.*/
  ump = ctp->p_mtxlist;
  1839f8:	e0bffb17 	ldw	r2,-20(fp)
  1839fc:	10800f17 	ldw	r2,60(r2)
  183a00:	e0bffc15 	stw	r2,-16(fp)
  ctp->p_mtxlist = ump->m_next;
  183a04:	e0bffc17 	ldw	r2,-16(fp)
  183a08:	10c00317 	ldw	r3,12(r2)
  183a0c:	e0bffb17 	ldw	r2,-20(fp)
  183a10:	10c00f15 	stw	r3,60(r2)
  /* If a thread is waiting on the mutex then the fun part begins.*/
  if (chMtxQueueNotEmptyS(ump)) {
  183a14:	e0bffc17 	ldw	r2,-16(fp)
  183a18:	10c00017 	ldw	r3,0(r2)
  183a1c:	e0bffc17 	ldw	r2,-16(fp)
  183a20:	18802e26 	beq	r3,r2,183adc <chMtxUnlock+0x11c>
    Thread *tp;

    /* Recalculates the optimal thread priority by scanning the owned
       mutexes list.*/
    tprio_t newprio = ctp->p_realprio;
  183a24:	e0bffb17 	ldw	r2,-20(fp)
  183a28:	10801017 	ldw	r2,64(r2)
  183a2c:	e0bffa15 	stw	r2,-24(fp)
    mp = ctp->p_mtxlist;
  183a30:	e0bffb17 	ldw	r2,-20(fp)
  183a34:	10800f17 	ldw	r2,60(r2)
  183a38:	e0bff915 	stw	r2,-28(fp)
    while (mp != NULL) {
  183a3c:	00001006 	br	183a80 <chMtxUnlock+0xc0>
      /* If the highest priority thread waiting in the mutexes list has a
         greater priority than the current thread base priority then the final
         priority will have at least that priority.*/
      if (chMtxQueueNotEmptyS(mp) && (mp->m_queue.p_next->p_prio > newprio))
  183a40:	e0bff917 	ldw	r2,-28(fp)
  183a44:	10c00017 	ldw	r3,0(r2)
  183a48:	e0bff917 	ldw	r2,-28(fp)
  183a4c:	18800926 	beq	r3,r2,183a74 <chMtxUnlock+0xb4>
  183a50:	e0bff917 	ldw	r2,-28(fp)
  183a54:	10800017 	ldw	r2,0(r2)
  183a58:	10800217 	ldw	r2,8(r2)
  183a5c:	e0fffa17 	ldw	r3,-24(fp)
  183a60:	1880042e 	bgeu	r3,r2,183a74 <chMtxUnlock+0xb4>
        newprio = mp->m_queue.p_next->p_prio;
  183a64:	e0bff917 	ldw	r2,-28(fp)
  183a68:	10800017 	ldw	r2,0(r2)
  183a6c:	10800217 	ldw	r2,8(r2)
  183a70:	e0bffa15 	stw	r2,-24(fp)
      mp = mp->m_next;
  183a74:	e0bff917 	ldw	r2,-28(fp)
  183a78:	10800317 	ldw	r2,12(r2)
  183a7c:	e0bff915 	stw	r2,-28(fp)

    /* Recalculates the optimal thread priority by scanning the owned
       mutexes list.*/
    tprio_t newprio = ctp->p_realprio;
    mp = ctp->p_mtxlist;
    while (mp != NULL) {
  183a80:	e0bff917 	ldw	r2,-28(fp)
  183a84:	103fee1e 	bne	r2,zero,183a40 <chMtxUnlock+0x80>
        newprio = mp->m_queue.p_next->p_prio;
      mp = mp->m_next;
    }
    /* Assigns to the current thread the highest priority among all the
       waiting threads.*/
    ctp->p_prio = newprio;
  183a88:	e0bffb17 	ldw	r2,-20(fp)
  183a8c:	e0fffa17 	ldw	r3,-24(fp)
  183a90:	10c00215 	stw	r3,8(r2)
    /* Awakens the highest priority thread waiting for the unlocked mutex and
       assigns the mutex to it.*/
    tp = fifo_remove(&ump->m_queue);
  183a94:	e0bffc17 	ldw	r2,-16(fp)
  183a98:	1009883a 	mov	r4,r2
  183a9c:	01836540 	call	183654 <fifo_remove>
  183aa0:	e0bffd15 	stw	r2,-12(fp)
    ump->m_owner = tp;
  183aa4:	e0bffc17 	ldw	r2,-16(fp)
  183aa8:	e0fffd17 	ldw	r3,-12(fp)
  183aac:	10c00215 	stw	r3,8(r2)
    ump->m_next = tp->p_mtxlist;
  183ab0:	e0bffd17 	ldw	r2,-12(fp)
  183ab4:	10c00f17 	ldw	r3,60(r2)
  183ab8:	e0bffc17 	ldw	r2,-16(fp)
  183abc:	10c00315 	stw	r3,12(r2)
    tp->p_mtxlist = ump;
  183ac0:	e0bffd17 	ldw	r2,-12(fp)
  183ac4:	e0fffc17 	ldw	r3,-16(fp)
  183ac8:	10c00f15 	stw	r3,60(r2)
    chSchWakeupS(tp, RDY_OK);
  183acc:	e13ffd17 	ldw	r4,-12(fp)
  183ad0:	000b883a 	mov	r5,zero
  183ad4:	01840c40 	call	1840c4 <chSchWakeupS>
  183ad8:	00000206 	br	183ae4 <chMtxUnlock+0x124>
  }
  else
    ump->m_owner = NULL;
  183adc:	e0bffc17 	ldw	r2,-16(fp)
  183ae0:	10000215 	stw	zero,8(r2)
  183ae4:	00800044 	movi	r2,1
  183ae8:	e0bfff15 	stw	r2,-4(fp)
  status &= ~NIOS2_STATUS_PIE_MSK;
  status |= (context & NIOS2_STATUS_PIE_MSK);
  
  NIOS2_WRITE_STATUS (status);
#else
  NIOS2_WRITE_STATUS (context);
  183aec:	e0bfff17 	ldw	r2,-4(fp)
  183af0:	1001703a 	wrctl	status,r2
  chSysUnlock();
  return ump;
  183af4:	e0bffc17 	ldw	r2,-16(fp)
}
  183af8:	e037883a 	mov	sp,fp
  183afc:	dfc00117 	ldw	ra,4(sp)
  183b00:	df000017 	ldw	fp,0(sp)
  183b04:	dec00204 	addi	sp,sp,8
