
ledos_main.elf:     file format elf32-littlenios2
ledos_main.elf
architecture: nios2:r1, flags 0x00000112:
EXEC_P, HAS_SYMS, D_PAGED
start address 0x00180238

Program Header:
    LOAD off    0x00001000 vaddr 0x00180000 paddr 0x00180000 align 2**12
         filesz 0x00000020 memsz 0x00000020 flags r-x
    LOAD off    0x00001020 vaddr 0x00180020 paddr 0x00180020 align 2**12
         filesz 0x0001f600 memsz 0x0001f600 flags r-x
    LOAD off    0x00020620 vaddr 0x0019f620 paddr 0x001a11d8 align 2**12
         filesz 0x00001bb8 memsz 0x00001bb8 flags rw-
    LOAD off    0x00022d90 vaddr 0x001a2d90 paddr 0x001a2d90 align 2**12
         filesz 0x00000000 memsz 0x00000540 flags rw-

Sections:
Idx Name          Size      VMA       LMA       File off  Algn
  0 .entry        00000020  00180000  00180000  00001000  2**5
                  CONTENTS, ALLOC, LOAD, READONLY, CODE
  1 .exceptions   00000218  00180020  00180020  00001020  2**2
                  CONTENTS, ALLOC, LOAD, READONLY, CODE
  2 .text         0001b1d8  00180238  00180238  00001238  2**2
                  CONTENTS, ALLOC, LOAD, READONLY, CODE
  3 .rodata       00004210  0019b410  0019b410  0001c410  2**2
                  CONTENTS, ALLOC, LOAD, READONLY, DATA
  4 .rwdata       00001bb8  0019f620  001a11d8  00020620  2**2
                  CONTENTS, ALLOC, LOAD, DATA, SMALL_DATA
  5 .bss          00000540  001a2d90  001a2d90  00022d90  2**2
                  ALLOC, SMALL_DATA
  6 .sram         00000000  001a32d0  001a32d0  000221d8  2**0
                  CONTENTS
  7 .comment      00000023  00000000  00000000  000221d8  2**0
                  CONTENTS, READONLY
  8 .debug_aranges 000013d0  00000000  00000000  00022200  2**3
                  CONTENTS, READONLY, DEBUGGING
  9 .debug_info   00034bdf  00000000  00000000  000235d0  2**0
                  CONTENTS, READONLY, DEBUGGING
 10 .debug_abbrev 0000d093  00000000  00000000  000581af  2**0
                  CONTENTS, READONLY, DEBUGGING
 11 .debug_line   0001086b  00000000  00000000  00065242  2**0
                  CONTENTS, READONLY, DEBUGGING
 12 .debug_frame  000039e4  00000000  00000000  00075ab0  2**2
                  CONTENTS, READONLY, DEBUGGING
 13 .debug_str    00006876  00000000  00000000  00079494  2**0
                  CONTENTS, READONLY, DEBUGGING
 14 .debug_loc    0001bb3a  00000000  00000000  0007fd0a  2**0
                  CONTENTS, READONLY, DEBUGGING
 15 .debug_alt_sim_info 00000010  00000000  00000000  0009b844  2**2
                  CONTENTS, READONLY, DEBUGGING
 16 .debug_ranges 00001d00  00000000  00000000  0009b858  2**3
                  CONTENTS, READONLY, DEBUGGING
 17 .thread_model 0000000c  00000000  00000000  000a212f  2**0
                  CONTENTS, READONLY
 18 .cpu          00000003  00000000  00000000  000a213b  2**0
                  CONTENTS, READONLY
 19 .qsys         00000001  00000000  00000000  000a213e  2**0
                  CONTENTS, READONLY
 20 .simulation_enabled 00000001  00000000  00000000  000a213f  2**0
                  CONTENTS, READONLY
 21 .stderr_dev   0000000b  00000000  00000000  000a2140  2**0
                  CONTENTS, READONLY
 22 .stdin_dev    0000000b  00000000  00000000  000a214b  2**0
                  CONTENTS, READONLY
 23 .stdout_dev   0000000b  00000000  00000000  000a2156  2**0
                  CONTENTS, READONLY
 24 .sopc_system_name 00000006  00000000  00000000  000a2161  2**0
                  CONTENTS, READONLY
 25 .quartus_project_dir 0000002d  00000000  00000000  000a2167  2**0
                  CONTENTS, READONLY
 26 .jdi          00003727  00000000  00000000  000a2194  2**0
                  CONTENTS, READONLY
 27 .sopcinfo     00050fd3  00000000  00000000  000a58bb  2**0
                  CONTENTS, READONLY
SYMBOL TABLE:
00180000 l    d  .entry	00000000 .entry
00180020 l    d  .exceptions	00000000 .exceptions
00180238 l    d  .text	00000000 .text
0019b410 l    d  .rodata	00000000 .rodata
0019f620 l    d  .rwdata	00000000 .rwdata
001a2d90 l    d  .bss	00000000 .bss
001a32d0 l    d  .sram	00000000 .sram
00000000 l    d  .comment	00000000 .comment
00000000 l    d  .debug_aranges	00000000 .debug_aranges
00000000 l    d  .debug_info	00000000 .debug_info
00000000 l    d  .debug_abbrev	00000000 .debug_abbrev
00000000 l    d  .debug_line	00000000 .debug_line
00000000 l    d  .debug_frame	00000000 .debug_frame
00000000 l    d  .debug_str	00000000 .debug_str
00000000 l    d  .debug_loc	00000000 .debug_loc
00000000 l    d  .debug_alt_sim_info	00000000 .debug_alt_sim_info
00000000 l    d  .debug_ranges	00000000 .debug_ranges
00000000 l    df *ABS*	00000000 E:/WorK/github/synesthesia_moksha/wxp/dgn/sw/limbus_bsp//obj/HAL/src/crt0.o
00180270 l       .text	00000000 alt_after_alt_main
00000000 l    df *ABS*	00000000 alt_irq_handler.c
00000000 l    df *ABS*	00000000 alt_instruction_exception_entry.c
00000000 l    df *ABS*	00000000 hello_world_small.c
00000000 l    df *ABS*	00000000 adv7513.c
001802ec l     F .text	000000c0 adv7513_video_out_format.constprop.4
0019bc88 l     O .rodata	000000f0 vic_table.3924
00000000 l    df *ABS*	00000000 edid.c
00181470 l     F .text	0000003c eb_establish_timing
0019e75c l     O .rodata	00000040 sad_format.4208
0019e66c l     O .rodata	000000f0 vic_table.4223
001a1190 l     O .rwdata	00000008 header.4319
00000000 l    df *ABS*	00000000 encoder.c
00000000 l    df *ABS*	00000000 aud_codec.c
00000000 l    df *ABS*	00000000 acortex.c
0019ee84 l     O .rodata	00000018 fs2bosr_lookup
0019ee9c l     O .rodata	00000018 fs2sr_lookup
0019eeb4 l     O .rodata	00000018 fs2fs_div_lookup
00000000 l    df *ABS*	00000000 i2c.c
00000000 l    df *ABS*	00000000 pcm_bffr.c
00000000 l    df *ABS*	00000000 ssm2603_drvr.c
00000000 l    df *ABS*	00000000 cortex.c
00000000 l    df *ABS*	00000000 fgyrus.c
00000000 l    df *ABS*	00000000 sys_mem_intf.c
00000000 l    df *ABS*	00000000 ledos.c
00000000 l    df *ABS*	00000000 lib2-divmod.c
00187cac l     F .text	0000006c udivmodsi4
00000000 l    df *ABS*	00000000 lib2-mul.c
00000000 l    df *ABS*	00000000 addsf3.c
00000000 l    df *ABS*	00000000 divsf3.c
00000000 l    df *ABS*	00000000 mulsf3.c
00000000 l    df *ABS*	00000000 floatunsisf.c
00000000 l    df *ABS*	00000000 extendsfdf2.c
00000000 l    df *ABS*	00000000 libgcc2.c
00000000 l    df *ABS*	00000000 libgcc2.c
00000000 l    df *ABS*	00000000 memcmp.c
00000000 l    df *ABS*	00000000 memcpy.c
00000000 l    df *ABS*	00000000 memset.c
00000000 l    df *ABS*	00000000 printf.c
00000000 l    df *ABS*	00000000 putchar.c
00000000 l    df *ABS*	00000000 puts.c
00000000 l    df *ABS*	00000000 strlen.c
00000000 l    df *ABS*	00000000 vfprintf.c
0019f443 l     O .rodata	00000010 zeroes.4255
0018b334 l     F .text	000000bc __sbprintf
0019f453 l     O .rodata	00000010 blanks.4254
00000000 l    df *ABS*	00000000 wsetup.c
00000000 l    df *ABS*	00000000 dtoa.c
0018b544 l     F .text	00000228 quorem
00000000 l    df *ABS*	00000000 fflush.c
00000000 l    df *ABS*	00000000 findfp.c
0018d128 l     F .text	00000008 __fp_lock
0018d130 l     F .text	00000008 __fp_unlock
0018d144 l     F .text	0000019c __sinit.part.1
00000000 l    df *ABS*	00000000 mallocr.c
00000000 l    df *ABS*	00000000 fvwrite.c
00000000 l    df *ABS*	00000000 fwalk.c
00000000 l    df *ABS*	00000000 impure.c
0019f620 l     O .rwdata	00000424 impure_data
00000000 l    df *ABS*	00000000 locale.c
0019fa64 l     O .rwdata	00000020 lc_ctype_charset
0019fa44 l     O .rwdata	00000020 lc_message_charset
0019fa84 l     O .rwdata	00000038 lconv
00000000 l    df *ABS*	00000000 makebuf.c
00000000 l    df *ABS*	00000000 mallocr.c
00000000 l    df *ABS*	00000000 memchr.c
00000000 l    df *ABS*	00000000 memmove.c
00000000 l    df *ABS*	00000000 mprec.c
0019f47c l     O .rodata	0000000c p05.2710
00000000 l    df *ABS*	00000000 putc.c
00000000 l    df *ABS*	00000000 mallocr.c
00000000 l    df *ABS*	00000000 s_fpclassify.c
00000000 l    df *ABS*	00000000 sbrkr.c
00000000 l    df *ABS*	00000000 stdio.c
00000000 l    df *ABS*	00000000 strcmp.c
00000000 l    df *ABS*	00000000 vfprintf.c
0019059c l     F .text	000000fc __sprint_r.part.0
0019f5a0 l     O .rodata	00000010 zeroes.4200
0019f5b0 l     O .rodata	00000010 blanks.4199
001919c4 l     F .text	000000bc __sbprintf
00000000 l    df *ABS*	00000000 wbuf.c
00000000 l    df *ABS*	00000000 writer.c
00000000 l    df *ABS*	00000000 closer.c
00000000 l    df *ABS*	00000000 mallocr.c
00000000 l    df *ABS*	00000000 fclose.c
00000000 l    df *ABS*	00000000 fputwc.c
00000000 l    df *ABS*	00000000 fstatr.c
00000000 l    df *ABS*	00000000 int_errno.c
00000000 l    df *ABS*	00000000 isattyr.c
00000000 l    df *ABS*	00000000 lseekr.c
00000000 l    df *ABS*	00000000 readr.c
00000000 l    df *ABS*	00000000 wcrtomb.c
00000000 l    df *ABS*	00000000 wctomb_r.c
00000000 l    df *ABS*	00000000 libgcc2.c
00000000 l    df *ABS*	00000000 libgcc2.c
00000000 l    df *ABS*	00000000 adddf3.c
00000000 l    df *ABS*	00000000 divdf3.c
00000000 l    df *ABS*	00000000 eqdf2.c
00000000 l    df *ABS*	00000000 gedf2.c
00000000 l    df *ABS*	00000000 ledf2.c
00000000 l    df *ABS*	00000000 muldf3.c
00000000 l    df *ABS*	00000000 subdf3.c
00000000 l    df *ABS*	00000000 fixdfsi.c
00000000 l    df *ABS*	00000000 floatsidf.c
00000000 l    df *ABS*	00000000 floatunsidf.c
00000000 l    df *ABS*	00000000 chthreads.c
00195780 l     F .text	00000040 list_insert
001957c0 l     F .text	00000040 list_remove
00000000 l    df *ABS*	00000000 chvt.c
00000000 l    df *ABS*	00000000 chcoreasm.o
001961a8 l       .text	00000000 _port_thread_start_loop
00000000 l    df *ABS*	00000000 alt_close.c
00196224 l     F .text	00000050 alt_get_errno
00000000 l    df *ABS*	00000000 alt_dev.c
0019634c l     F .text	0000002c alt_dev_null_write
00000000 l    df *ABS*	00000000 alt_errno.c
00000000 l    df *ABS*	00000000 alt_fstat.c
00196378 l     F .text	00000050 alt_get_errno
00000000 l    df *ABS*	00000000 alt_iic.c
00000000 l    df *ABS*	00000000 alt_iic_isr_register.c
00000000 l    df *ABS*	00000000 alt_irq_vars.c
00000000 l    df *ABS*	00000000 alt_isatty.c
00196750 l     F .text	00000050 alt_get_errno
00000000 l    df *ABS*	00000000 alt_load.c
0019684c l     F .text	00000064 alt_load_section
00000000 l    df *ABS*	00000000 alt_lseek.c
00196930 l     F .text	00000050 alt_get_errno
00000000 l    df *ABS*	00000000 alt_main.c
00000000 l    df *ABS*	00000000 alt_malloc_lock.c
00000000 l    df *ABS*	00000000 alt_printf.c
00000000 l    df *ABS*	00000000 alt_putchar.c
00000000 l    df *ABS*	00000000 alt_putstr.c
00000000 l    df *ABS*	00000000 alt_read.c
00196ddc l     F .text	00000050 alt_get_errno
00000000 l    df *ABS*	00000000 alt_release_fd.c
00000000 l    df *ABS*	00000000 alt_sbrk.c
001a11cc l     O .rwdata	00000004 heap_end
00000000 l    df *ABS*	00000000 alt_write.c
00197060 l     F .text	00000050 alt_get_errno
00000000 l    df *ABS*	00000000 alt_sys_init.c
001971b0 l     F .text	00000038 alt_dev_reg
001a006c l     O .rwdata	00001060 jtag_uart_0
001a10cc l     O .rwdata	000000c4 uart
00000000 l    df *ABS*	00000000 altera_avalon_jtag_uart_fd.c
00000000 l    df *ABS*	00000000 altera_avalon_jtag_uart_init.c
001974c0 l     F .text	00000204 altera_avalon_jtag_uart_irq
001976c4 l     F .text	000000a8 altera_avalon_jtag_uart_timeout
00000000 l    df *ABS*	00000000 altera_avalon_jtag_uart_ioctl.c
00000000 l    df *ABS*	00000000 altera_avalon_jtag_uart_read.c
00000000 l    df *ABS*	00000000 altera_avalon_jtag_uart_write.c
00000000 l    df *ABS*	00000000 altera_avalon_timer_sc.c
00197ce4 l     F .text	00000074 alt_avalon_timer_sc_irq
00000000 l    df *ABS*	00000000 altera_avalon_uart_fd.c
00000000 l    df *ABS*	00000000 altera_avalon_uart_init.c
00197f98 l     F .text	00000098 altera_avalon_uart_irq
00198030 l     F .text	000000e0 altera_avalon_uart_rxirq
00198110 l     F .text	00000144 altera_avalon_uart_txirq
00000000 l    df *ABS*	00000000 altera_avalon_uart_read.c
001982a8 l     F .text	00000050 alt_get_errno
00000000 l    df *ABS*	00000000 altera_avalon_uart_write.c
001984d4 l     F .text	00000050 alt_get_errno
00000000 l    df *ABS*	00000000 chdynamic.c
00000000 l    df *ABS*	00000000 chheap.c
001a2dfc l     O .bss	0000001c default_heap
00000000 l    df *ABS*	00000000 chmemcore.c
001a2dc0 l     O .bss	00000004 nextmem
001a2dc4 l     O .bss	00000004 endmem
00000000 l    df *ABS*	00000000 chmempools.c
00000000 l    df *ABS*	00000000 chmtx.c
00199294 l     F .text	00000094 prio_insert
00199328 l     F .text	00000050 fifo_remove
00199378 l     F .text	0000004c dequeue
00000000 l    df *ABS*	00000000 chschd.c
00199a00 l     F .text	00000050 fifo_remove
00199a50 l     F .text	0000004c dequeue
00199c74 l     F .text	000000a0 wakeup
00000000 l    df *ABS*	00000000 chsys.c
001a2e18 l     O .bss	00000050 mainthread.2333
00000000 l    df *ABS*	00000000 alt_alarm_start.c
00000000 l    df *ABS*	00000000 alt_dcache_flush_all.c
00000000 l    df *ABS*	00000000 alt_dev_llist_insert.c
0019a440 l     F .text	00000050 alt_get_errno
00000000 l    df *ABS*	00000000 alt_do_ctors.c
00000000 l    df *ABS*	00000000 alt_do_dtors.c
00000000 l    df *ABS*	00000000 alt_icache_flush_all.c
00000000 l    df *ABS*	00000000 alt_io_redirect.c
0019a6a4 l     F .text	000000e0 alt_open_fd
00000000 l    df *ABS*	00000000 alt_open.c
0019a7fc l     F .text	00000050 alt_get_errno
0019a84c l     F .text	000000f4 alt_file_locked
00000000 l    df *ABS*	00000000 alt_tick.c
00000000 l    df *ABS*	00000000 altera_nios2_gen2_irq.c
00000000 l    df *ABS*	00000000 chregistry.c
00000000 l    df *ABS*	00000000 chcore.c
00000000 l    df *ABS*	00000000 alt_find_dev.c
00000000 l    df *ABS*	00000000 alt_find_file.c
00000000 l    df *ABS*	00000000 alt_get_fd.c
00000000 l    df *ABS*	00000000 atexit.c
00000000 l    df *ABS*	00000000 exit.c
00000000 l    df *ABS*	00000000 fputs.c
00000000 l    df *ABS*	00000000 __atexit.c
00000000 l    df *ABS*	00000000 __call_atexit.c
00000000 l    df *ABS*	00000000 alt_exit.c
001a2dc8 g     O .bss	00000004 alt_instruction_exception_handler
0019901c g     F .text	00000060 chPoolInit
0018914c g     F .text	00000018 putchar
0018faa8 g     F .text	00000074 _mprec_log10
00186798 g     F .text	00000078 aud_codec_read_reg
0018fb94 g     F .text	0000008c __any_on
00192098 g     F .text	00000054 _isatty_r
0019f488 g     O .rodata	00000028 __mprec_tinytens
00196a5c g     F .text	00000090 alt_main
001878c8 g     F .text	00000024 configure_drvr_bps
0019a1bc g     F .text	00000128 chSysTimerHandlerI
00195df0 g     F .text	00000048 chThdExit
00189164 g     F .text	000000a8 _puts_r
00199d14 g     F .text	000000a0 chSchGoSleepTimeoutS
001a2fec g     O .bss	00000100 alt_irq
001920ec g     F .text	0000005c _lseek_r
001a11d8 g       *ABS*	00000000 __flash_rwdata_start
00194204 g     F .text	00000084 .hidden __eqdf2
001875ec g     F .text	0000000c get_i2c_addr
00199460 g     F .text	0000015c chMtxLockS
00180b08 g     F .text	00000244 adv7513_int_handler
00198914 g     F .text	000000c8 chThdCreateFromMemoryPool
00187870 g     F .text	00000018 disable_dac_drvr
001a32d0 g       *ABS*	00000000 __alt_heap_start
00189108 g     F .text	0000003c printf
0019961c g     F .text	00000078 chMtxTryLockS
001921a4 g     F .text	0000009c _wcrtomb_r
001806cc g     F .text	000000c0 adv7513_edid_read
00198c74 g     F .text	000001a0 chHeapFree
00180000 g       *ABS*	00000000 __alt_mem_sram
00190494 g     F .text	0000005c __sseek
0018d488 g     F .text	00000010 __sinit
00191a80 g     F .text	00000138 __swbuf_r
0018df40 g     F .text	0000007c _setlocale_r
001a2d90 g     O .bss	00000002 aud_codec_i2c_bffr
0018d2e0 g     F .text	00000078 __sfmoreglue
00196b0c g     F .text	00000020 __malloc_unlock
001882e0 g     F .text	00000450 .hidden __divsf3
001873b8 g     F .text	000000ec disable_audio_path
0018ea68 g     F .text	0000015c memmove
001874a4 g     F .text	000000f4 pcm_cap
0018d470 g     F .text	00000018 _cleanup
0018ebc4 g     F .text	000000a8 _Balloc
00180420 g     F .text	000000b0 adv7513_hpd_probe
00196d98 g     F .text	00000044 alt_putstr
00199bd8 g     F .text	0000009c chSchGoSleepS
00194288 g     F .text	000000e0 .hidden __gtdf2
0019ac3c g     F .text	00000020 altera_nios2_gen2_irq_init
00000000  w      *UND*	00000000 __errno
001803ac g     F .text	00000074 adv7513_chip_identify
00180000 g     F .entry	0000000c __reset
00187904 g     F .text	00000060 dump_drvr_regs
00180020 g       *ABS*	00000000 __flash_exceptions_start
00192040 g     F .text	00000058 _fstat_r
001a2dac g     O .bss	00000004 errno
00190410 g     F .text	00000008 __seofread
001871ec g     F .text	00000034 init_acortex
00195908 g     F .text	00000180 chThdCreateI
001a2db8 g     O .bss	00000004 alt_argv
001a9190 g       *ABS*	00000000 _gp
00187a1c g     F .text	00000038 dump_fgyrus_win_ram
00199db4 g     F .text	000000a0 chSchWakeupS
00199a9c g     F .text	00000080 _scheduler_init
00199e54 g     F .text	0000004c chSchRescheduleS
00195a88 g     F .text	0000008c chThdCreateStatic
001a2e68 g     O .bss	00000100 adv7513_edid
0019feec g     O .rwdata	00000180 alt_fd_list
00189144 g     F .text	00000008 _putchar_r
001876e0 g     F .text	000000fc i2c_xtn_read
0019adb4 g     F .text	00000090 alt_find_dev
00188e80 g     F .text	00000138 memcpy
00187964 g     F .text	00000014 init_cortex
00180610 g     F .text	00000048 adv7513_power_state
0018d138 g     F .text	0000000c _cleanup_r
001875dc g     F .text	00000010 configure_i2c_addr
0019560c g     F .text	000000d0 .hidden __floatsidf
0019a784 g     F .text	00000078 alt_io_redirect
00194368 g     F .text	000000e0 .hidden __ltdf2
00187818 g     F .text	00000010 update_acache_mode
0019b410 g       *ABS*	00000000 __DTOR_END__
00187888 g     F .text	00000014 enable_dac_drvr
0018920c g     F .text	00000014 puts
0019a608 g     F .text	0000009c alt_exception_cause_generated_bad_addr
00199b1c g     F .text	000000bc chSchReadyI
0019ad64  w    F .text	00000028 port_halt
001902f4 g     F .text	00000074 __fpclassifyd
00195f94 g     F .text	00000064 _vt_init
0018fa04 g     F .text	000000a4 __ratio
00198f7c g     F .text	00000074 chCoreAllocI
001919a0 g     F .text	00000024 __vfiprintf_internal
001978c0 g     F .text	0000020c altera_avalon_jtag_uart_read
00000000  w      *UND*	00000000 malloc
001890dc g     F .text	0000002c _printf_r
00186810 g     F .text	00000038 aud_codec_reset
00187dc8 g     F .text	00000008 .hidden __udivsi3
001967a0 g     F .text	000000ac isatty
001989dc g     F .text	0000005c _heap_init
0019f4d8 g     O .rodata	000000c8 __mprec_tens
00186848 g     F .text	000007b0 aud_codec_dump_regs
0018dfbc g     F .text	0000000c __locale_charset
00187828 g     F .text	00000048 dump_acache_cap_data
00199f18 g     F .text	00000090 chSchDoRescheduleBehind
001879c0 g     F .text	00000010 get_fgyrus_mode
001a2da8 g     O .bss	00000004 __malloc_top_pad
00187598 g     F .text	00000028 get_i2c_status
0019885c g     F .text	000000b8 chThdCreateFromHeap
001a11a0 g     O .rwdata	00000004 __mb_cur_max
0018dfec g     F .text	0000000c _localeconv_r
0018eff8 g     F .text	0000003c __i2b
0018d8ec g     F .text	000004cc __sfvwrite_r
00190368 g     F .text	00000054 _sbrk_r
00192148 g     F .text	0000005c _read_r
00198e14 g     F .text	000000c0 chHeapStatus
001a11c0 g     O .rwdata	00000004 alt_max_fd
00191d5c g     F .text	000000f0 _fclose_r
0018d0f8 g     F .text	00000030 fflush
001a2da4 g     O .bss	00000004 __malloc_max_sbrked_mem
00188c90 g     F .text	00000110 .hidden __extendsfdf2
001805e4 g     F .text	0000002c adv7513_do_hpd_powerdown
00192fe8 g     F .text	0000089c .hidden __adddf3
001870b4 g     F .text	00000014 aud_codec_update_iwl
0018f7ac g     F .text	0000011c __b2d
00195e38 g     F .text	000000b8 chThdExitS
001929cc g     F .text	0000061c .hidden __umoddi3
00196980 g     F .text	000000dc lseek
001a1198 g     O .rwdata	00000004 _global_impure_ptr
0018fd8c g     F .text	00000568 _realloc_r
001a32d0 g       *ABS*	00000000 __bss_end
001879a4 g     F .text	0000001c update_fgyrus_mode
00196660 g     F .text	000000f0 alt_iic_isr_register
0019ab38 g     F .text	00000104 alt_tick
001804d0 g     F .text	000000e8 adv7513_do_hpd_powerup
00183694 g     F .text	00000084 edid_decode_extensions
0019238c g     F .text	00000640 .hidden __udivdi3
00191e60 g     F .text	00000184 _fputwc_r
0019f4b0 g     O .rodata	00000028 __mprec_bigtens
0018eddc g     F .text	00000104 __s2b
001956dc g     F .text	000000a4 .hidden __floatunsidf
0018f554 g     F .text	00000060 __mcmp
00197ef0 g     F .text	000000a8 altera_avalon_uart_init
0018d4a8 g     F .text	00000018 __fp_lock_all
00196614 g     F .text	0000004c alt_ic_irq_enabled
0019aaa0 g     F .text	00000098 alt_alarm_stop
001870c8 g     F .text	00000124 aud_codec_init
001a2db0 g     O .bss	00000004 alt_irq_active
00195ff8 g     F .text	00000118 chVTSetI
001800fc g     F .exceptions	000000dc alt_irq_handler
0019fec4 g     O .rwdata	00000028 alt_dev_null
0019a424 g     F .text	0000001c alt_dcache_flush_all
0018eee0 g     F .text	00000068 __hi0bits
00187ac0 g     F .text	00000074 dump_fgyrus_fft_cache
00195584 g     F .text	00000088 .hidden __fixdfsi
001a11d8 g       *ABS*	00000000 __ram_rwdata_end
001a11b8 g     O .rwdata	00000008 alt_dev_list
001970b0 g     F .text	00000100 write
0018fc20 g     F .text	000000a0 _putc_r
001878f8 g     F .text	0000000c configure_drvr_bclk_div
0019f620 g       *ABS*	00000000 __ram_rodata_end
001963c8 g     F .text	000000b8 fstat
0018789c g     F .text	00000018 disable_adc_drvr
00194368 g     F .text	000000e0 .hidden __ledf2
00199408 g     F .text	00000058 chMtxLock
0018f2c4 g     F .text	00000140 __pow5mult
00198ff0 g     F .text	0000002c chCoreStatus
001906b0 g     F .text	000012f0 ___vfiprintf_internal_r
001a2d9c g     O .bss	00000004 __nlocale_changed
00187dd0 g     F .text	00000008 .hidden __umodsi3
0019a094 g     F .text	00000048 chSchDoReschedule
0019a10c g     F .text	000000b0 chSysInit
00195ca4 g     F .text	0000005c chThdSleep
001a32d0 g       *ABS*	00000000 end
001875f8 g     F .text	000000e8 i2c_xtn_write
00198524 g     F .text	000001ac altera_avalon_uart_write
001973fc g     F .text	000000c4 altera_avalon_jtag_uart_init
00187c08 g     F .text	00000078 configure_sys_mem_intf_part
001801d8 g     F .exceptions	00000060 alt_instruction_exception_entry
0019b410 g       *ABS*	00000000 __CTOR_LIST__
00200000 g       *ABS*	00000000 __alt_stack_pointer
00197d58 g     F .text	00000088 alt_avalon_timer_sc_init
00197e40 g     F .text	00000060 altera_avalon_uart_write_fd
00188da0 g     F .text	00000064 .hidden __clzsi2
00197ea0 g     F .text	00000050 altera_avalon_uart_close_fd
00197acc g     F .text	00000218 altera_avalon_jtag_uart_write
0018d498 g     F .text	00000004 __sfp_lock_acquire
0018e980 g     F .text	000000e8 memchr
001892b8 g     F .text	00002058 ___vfprintf_internal_r
0018d5fc g     F .text	000002f0 _free_r
00196b2c g     F .text	00000228 alt_printf
001990f8 g     F .text	00000080 chPoolAllocI
0018078c g     F .text	000000ac adv7513_regmap_dump
0018dfc8 g     F .text	00000010 __locale_mb_cur_max
0019b244 g     F .text	00000194 __call_exitprocs
001878ec g     F .text	0000000c configure_drvr_fs_div
001a2d98 g     O .bss	00000004 __mlocale_changed
001a11a4 g     O .rwdata	00000004 __malloc_sbrk_base
00180238 g     F .text	0000003c _start
00198ed4 g     F .text	00000048 _core_init
001997e0 g     F .text	00000120 chMtxUnlockS
001a2dcc g     O .bss	00000004 _alt_tick_rate
0019907c g     F .text	0000007c chPoolLoadArray
001879d0 g     F .text	0000004c get_fgyrus_status
0019ad8c g     F .text	00000028 port_time_tick
00195be4 g     F .text	00000060 chThdResume
001995bc g     F .text	00000060 chMtxTryLock
0018135c g     F .text	00000114 adv7513_init
0018f404 g     F .text	00000150 __lshift
001a2dd0 g     O .bss	00000004 _alt_nticks
00196e2c g     F .text	00000104 read
0019721c g     F .text	0000007c alt_sys_init
0019b130 g     F .text	00000114 __register_exitproc
00199900 g     F .text	00000100 chMtxUnlockAll
00199178 g     F .text	00000060 chPoolAlloc
00182414 g     F .text	00001280 edid_print_cea
001864f0 g     F .text	00000088 reg_read
0018f034 g     F .text	00000290 __multiply
0019776c g     F .text	00000068 altera_avalon_jtag_uart_close
00187dd8 g     F .text	00000028 .hidden __mulsi3
0019f620 g       *ABS*	00000000 __ram_rwdata_start
0019b410 g       *ABS*	00000000 __ram_rodata_start
00187a54 g     F .text	00000038 dump_fgyrus_twdl_ram
001a2dd4 g     O .bss	00000028 __malloc_current_mallinfo
0018f8c8 g     F .text	0000013c __d2b
001a2fdc g     O .bss	00000010 vtlist
00197298 g     F .text	00000060 altera_avalon_jtag_uart_read_fd
0019af58 g     F .text	000000d4 alt_get_fd
00198f1c g     F .text	00000060 chCoreAlloc
00191c30 g     F .text	00000054 _close_r
00198ad0 g     F .text	000001a4 chHeapAlloc
001986d0 g     F .text	00000064 chThdAddRef
00188e04 g     F .text	0000007c memcmp
00197358 g     F .text	00000050 altera_avalon_jtag_uart_close_fd
001a32d0 g       *ABS*	00000000 __alt_stack_base
001973a8 g     F .text	00000054 altera_avalon_jtag_uart_ioctl_fd
001961ac g       .text	00000000 port_switch
0018b3f0 g     F .text	00000154 __swsetup_r
00193884 g     F .text	00000980 .hidden __divdf3
0018d358 g     F .text	00000118 __sfp
0018fb1c g     F .text	00000078 __copybits
0019fabc g     O .rwdata	00000408 __malloc_av_
0018d4a4 g     F .text	00000004 __sinit_lock_release
00194448 g     F .text	0000086c .hidden __muldf3
001903bc g     F .text	00000054 __sread
00180658 g     F .text	00000074 adv7513_mode_state
0019ae44 g     F .text	00000114 alt_find_file
0019a490 g     F .text	000000a4 alt_dev_llist_insert
00196aec g     F .text	00000020 __malloc_lock
00196fb0 g     F .text	000000b0 sbrk
0018d09c g     F .text	0000005c _fflush_r
00191c84 g     F .text	000000d8 _calloc_r
001a2d90 g       *ABS*	00000000 __bss_start
00186734 g     F .text	00000064 aud_codec_write_reg
00195d00 g     F .text	0000007c chThdSleepUntil
001a2d92 g     O .bss	00000002 adv7513_i2c_bffr
00188fb8 g     F .text	00000124 memset
001802c0 g     F .text	0000002c main
001a2dbc g     O .bss	00000004 alt_envp
001a2da0 g     O .bss	00000004 __malloc_max_total_mem
001972f8 g     F .text	00000060 altera_avalon_jtag_uart_write_fd
00186ff8 g     F .text	000000bc aud_codec_update_field
001a30ec g     O .bss	0000001c rlist
0019ac5c g     F .text	00000070 chRegFirstThread
00191bb8 g     F .text	0000001c __swbuf
001904f0 g     F .text	00000008 __sclose
00200000 g       *ABS*	00000000 __alt_heap_limit
001875c0 g     F .text	00000010 configure_i2c_clk
00191e4c g     F .text	00000014 fclose
0018b76c g     F .text	00001728 _dtoa_r
0018e1d8 g     F .text	000007a8 _malloc_r
00192300 g     F .text	00000030 __ascii_wctomb
00187c80 g     F .text	0000002c init_ledos
001a11c4 g     O .rwdata	00000004 alt_errno
001865bc g     F .text	0000008c reg_update_bits
0018ddb8 g     F .text	000000c4 _fwalk
001877dc g     F .text	0000003c byte_rev_i2c_arry
001993c4 g     F .text	00000044 chMtxInit
0019a0dc g     F .text	00000030 _idle_thread
0018fcc0 g     F .text	000000cc putc
00187d18 g     F .text	00000054 .hidden __divsi3
0018d4d8 g     F .text	00000124 _malloc_trim_r
0019f608 g     O .rodata	00000016 ch_debug
0019b410 g       *ABS*	00000000 __CTOR_END__
00188730 g     F .text	00000450 .hidden __mulsf3
001866bc g     F .text	00000078 reg_clear_bits
001904f8 g     F .text	000000a4 strcmp
0019b410 g       *ABS*	00000000 __flash_rodata_start
0019b410 g       *ABS*	00000000 __DTOR_LIST__
00196198 g       .text	00000000 _port_thread_start
001991d8 g     F .text	0000005c chPoolFreeI
00194204 g     F .text	00000084 .hidden __nedf2
00199fa8 g     F .text	000000ec chSchDoRescheduleAhead
001971e8 g     F .text	00000034 alt_irq_init
00196f30 g     F .text	00000080 alt_release_fd
0019f304 g     O .rodata	00000100 .hidden __clz_tab
001a2d94 g     O .bss	00000004 _PathLocale
00187220 g     F .text	00000198 enable_audio_path
0019b02c g     F .text	00000014 atexit
00191bd4 g     F .text	0000005c _write_r
0018dff8 g     F .text	0000001c setlocale
001a119c g     O .rwdata	00000004 _impure_ptr
001a2db4 g     O .bss	00000004 alt_argc
0018ce94 g     F .text	00000208 __sflush_r
0019a590 g     F .text	0000005c _do_dtors
00180d4c g     F .text	00000494 adv7513_chip_init_3d
0018dfe4 g     F .text	00000008 __locale_cjk_lang
00198734 g     F .text	00000128 chThdRelease
00187978 g     F .text	00000018 disable_fgyrus
00180020 g       .exceptions	00000000 alt_irq_entry
001875d0 g     F .text	0000000c get_i2c_clk
001a3108 g     O .bss	000001c8 _idle_thread_wa
0018f74c g     F .text	00000060 __ulp
0018d4c0 g     F .text	00000018 __fp_unlock_all
00199234 g     F .text	00000060 chPoolFree
00180274 g     F .text	0000004c test_audio_fft
001a11b0 g     O .rwdata	00000008 alt_fs_list
00187990 g     F .text	00000014 enable_fgyrus
00180020 g       *ABS*	00000000 __ram_exceptions_start
0018e014 g     F .text	0000000c localeconv
00199694 g     F .text	0000014c chMtxUnlock
00196480 g     F .text	00000050 alt_ic_isr_register
001a2f68 g     O .bss	00000074 adv7513_encoder
00183718 g     F .text	0000202c edid_decode_v14
001a11d8 g       *ABS*	00000000 _edata
00197de0 g     F .text	00000060 altera_avalon_uart_read_fd
001a32d0 g       *ABS*	00000000 _end
001811e0 g     F .text	0000017c adv7513_int_setup
00180238 g       *ABS*	00000000 __ram_exceptions_end
00196110 g     F .text	00000088 chVTResetI
001977d4 g     F .text	000000ec altera_avalon_jtag_uart_ioctl
0019b078 g     F .text	0000009c _fputs_r
00196570 g     F .text	000000a4 alt_ic_irq_disable
00186648 g     F .text	00000074 reg_or_bits
00190418 g     F .text	0000007c __swrite
001a11a8 g     O .rwdata	00000004 __malloc_trim_threshold
0018dfd8 g     F .text	0000000c __locale_msgcharset
0019b040 g     F .text	00000038 exit
0018de7c g     F .text	000000c4 _fwalk_reent
00188b80 g     F .text	00000110 .hidden __floatunsisf
0018f5b4 g     F .text	00000198 __mdiff
00186578 g     F .text	00000044 reg_write
00187d6c g     F .text	0000005c .hidden __modsi3
00200000 g       *ABS*	00000000 __alt_data_end
001805b8 g     F .text	0000002c adv7513_kick_up
00180020 g     F .exceptions	00000000 alt_exception
0018d49c g     F .text	00000004 __sfp_lock_release
001878b4 g     F .text	00000014 enable_adc_drvr
00195b14 g     F .text	000000d0 chThdSetPriority
00187b34 g     F .text	000000d4 check_sys_mem_intf_errors
00195ef0 g     F .text	000000a4 chThdWait
00198254 g     F .text	00000054 altera_avalon_uart_close
00199ea0 g     F .text	00000078 chSchIsPreemptionRequired
0019b3d8 g     F .text	00000038 _exit
0019a2e4 g     F .text	00000140 alt_alarm_start
00195800 g     F .text	00000108 _thread_init
0018e020 g     F .text	000001b8 __smakebuf_r
00189220 g     F .text	00000098 strlen
0019a940 g     F .text	00000160 open
00194288 g     F .text	000000e0 .hidden __gedf2
00196d54 g     F .text	00000044 alt_putchar
00195d7c g     F .text	00000074 chThdYield
0019accc g     F .text	00000098 chRegNextThread
001814ac g     F .text	00000f68 edid_decode_cea
00180838 g     F .text	000002d0 adv7513_chip_init
001a11ac g     O .rwdata	00000004 __wctomb
00185744 g     F .text	00000dac edid_print_v14
00190698 g     F .text	00000018 __sprint_r
0019a5ec g     F .text	0000001c alt_icache_flush_all
0019b114 g     F .text	0000001c fputs
001a11c8 g     O .rwdata	00000004 alt_priority_mask
00198a38 g     F .text	00000098 chHeapInit
001964d0 g     F .text	000000a0 alt_ic_irq_enable
0018b310 g     F .text	00000024 __vfprintf_internal
001982f8 g     F .text	000001dc altera_avalon_uart_read
00192330 g     F .text	0000005c _wctomb_r
00194cb4 g     F .text	000008d0 .hidden __subdf3
00187a8c g     F .text	00000034 dump_fgyrus_cordic_ram
0018ef48 g     F .text	000000b0 __lo0bits
001a11d0 g     O .rwdata	00000008 alt_alarm_list
0019a534 g     F .text	0000005c _do_ctors
00192240 g     F .text	000000c0 wcrtomb
00196274 g     F .text	000000d8 close
00195c44 g     F .text	00000060 chThdTerminate
00187e00 g     F .text	000004e0 .hidden __addsf3
001968b0 g     F .text	00000080 alt_load
00191fe4 g     F .text	0000005c fputwc
00000000  w      *UND*	00000000 free
0018d4a0 g     F .text	00000004 __sinit_lock_acquire
0018ec94 g     F .text	00000148 __multadd
0018ec6c g     F .text	00000028 _Bfree



Disassembly of section .entry:

00180000 <__reset>:
 * Jump to the _start entry point in the .text section if reset code
 * is allowed or if optimizing for RTL simulation.
 */
#if defined(ALT_ALLOW_CODE_AT_RESET) || defined(ALT_SIM_OPTIMIZE)
    /* Jump to the _start entry point in the .text section. */
    movhi r1, %hi(_start)
  180000:	00400634 	movhi	at,24
    ori r1, r1, %lo(_start)
  180004:	08408e14 	ori	at,at,568
    jmp r1
  180008:	0800683a 	jmp	at
	...

Disassembly of section .exceptions:

00180020 <alt_exception>:

#else /* ALT_EXCEPTION_STACK disabled */
        /* 
         * Reserve space on normal stack for registers about to be pushed.
         */
        addi  sp, sp, -76
  180020:	deffed04 	addi	sp,sp,-76
         * documentation for details).
         *
         * Leave a gap in the stack frame at 4(sp) for the muldiv handler to
         * store zero into.
         */
        stw   ra,  0(sp)
  180024:	dfc00015 	stw	ra,0(sp)
        stw   r1,   8(sp)
  180028:	d8400215 	stw	at,8(sp)
        stw   r2,  12(sp)
  18002c:	d8800315 	stw	r2,12(sp)
        stw   r3,  16(sp)
  180030:	d8c00415 	stw	r3,16(sp)
        stw   r4,  20(sp)
  180034:	d9000515 	stw	r4,20(sp)
        stw   r5,  24(sp)
  180038:	d9400615 	stw	r5,24(sp)
        stw   r6,  28(sp)
  18003c:	d9800715 	stw	r6,28(sp)
        stw   r7,  32(sp)
  180040:	d9c00815 	stw	r7,32(sp)
        rdctl r5, estatus   /* Read early to avoid usage stall */
  180044:	000b307a 	rdctl	r5,estatus
        stw   r8,  36(sp)
  180048:	da000915 	stw	r8,36(sp)
        stw   r9,  40(sp)
  18004c:	da400a15 	stw	r9,40(sp)
        stw   r10, 44(sp)
  180050:	da800b15 	stw	r10,44(sp)
        stw   r11, 48(sp)
  180054:	dac00c15 	stw	r11,48(sp)
        stw   r12, 52(sp)
  180058:	db000d15 	stw	r12,52(sp)
        stw   r13, 56(sp)
  18005c:	db400e15 	stw	r13,56(sp)
        stw   r14, 60(sp)
  180060:	db800f15 	stw	r14,60(sp)
        stw   r15, 64(sp)
  180064:	dbc01015 	stw	r15,64(sp)
        /*
         * ea-4 contains the address of the instruction being executed
         * when the exception occured. For interrupt exceptions, we will
         * will be re-issue the isntruction. Store it in 72(sp)
         */
        stw   r5,  68(sp)  /* estatus */
  180068:	d9401115 	stw	r5,68(sp)
        addi  r15, ea, -4  /* instruction that caused exception */
  18006c:	ebffff04 	addi	r15,ea,-4
        stw   r15,  72(sp)
  180070:	dbc01215 	stw	r15,72(sp)
#else
        /*
         * Test to see if the exception was a software exception or caused 
         * by an external interrupt, and vector accordingly.
         */
        rdctl r4, ipending
  180074:	0009313a 	rdctl	r4,ipending
        andi  r2, r5, 1
  180078:	2880004c 	andi	r2,r5,1
        beq   r2, zero, .Lnot_irq
  18007c:	10000326 	beq	r2,zero,18008c <alt_exception+0x6c>
        beq   r4, zero, .Lnot_irq
  180080:	20000226 	beq	r4,zero,18008c <alt_exception+0x6c>
        /*
         * Now that all necessary registers have been preserved, call 
         * alt_irq_handler() to process the interrupts.
         */

        call alt_irq_handler
  180084:	01800fc0 	call	1800fc <alt_irq_handler>

        .section .exceptions.irqreturn, "xa"

        br    .Lexception_exit
  180088:	00000706 	br	1800a8 <alt_exception+0x88>
         * upon completion, so we write ea (address of instruction *after*
         * the one where the exception occured) into 72(sp). The actual
         * instruction that caused the exception is written in r2, which these
         * handlers will utilize.
         */
        stw   ea,  72(sp)  /* Don't re-issue */
  18008c:	df401215 	stw	ea,72(sp)
        ldhu.n  r2, 0(r4)
        ldhu.n  r3, 2(r4)
        slli.n  r3, r3, 16
        or.n    r2, r2, r3 /* Instruction that caused exception */
#else
        ldw   r2, -4(ea)   /* Instruction that caused exception */
  180090:	e8bfff17 	ldw	r2,-4(ea)
         * debugger is present) or go into an infinite loop since the
         * handling behavior is undefined; in that case we will not return here.
         */

        /* Load exception-causing address as first argument (r4) */
        addi   r4, ea, -4
  180094:	e93fff04 	addi	r4,ea,-4

        /* Call the instruction-exception entry */
        call   alt_instruction_exception_entry
  180098:	01801d80 	call	1801d8 <alt_instruction_exception_entry>
         * instruction
         *
         * Return code was 0: Skip. The instruction after the exception is
         * already stored in 72(sp).
         */
        bne   r2, r0, .Lexception_exit
  18009c:	1000021e 	bne	r2,zero,1800a8 <alt_exception+0x88>

        /*
         * Otherwise, modify 72(sp) to re-issue the instruction that caused the
         * exception.
         */
        addi  r15, ea, -4  /* instruction that caused exception */
  1800a0:	ebffff04 	addi	r15,ea,-4
        stw   r15,  72(sp)
  1800a4:	dbc01215 	stw	r15,72(sp)
        /* 
         * Restore the saved registers, so that all general purpose registers 
         * have been restored to their state at the time the interrupt occured.
         */

        ldw   r5,  68(sp)
  1800a8:	d9401117 	ldw	r5,68(sp)
        ldw   ea,  72(sp)  /* This becomes the PC once eret is executed */
  1800ac:	df401217 	ldw	ea,72(sp)
        ldw   ra,   0(sp)
  1800b0:	dfc00017 	ldw	ra,0(sp)

        wrctl estatus, r5
  1800b4:	2801707a 	wrctl	estatus,r5

        ldw   r1,   8(sp)
  1800b8:	d8400217 	ldw	at,8(sp)
        ldw   r2,  12(sp)
  1800bc:	d8800317 	ldw	r2,12(sp)
        ldw   r3,  16(sp)
  1800c0:	d8c00417 	ldw	r3,16(sp)
        ldw   r4,  20(sp)
  1800c4:	d9000517 	ldw	r4,20(sp)
        ldw   r5,  24(sp)
  1800c8:	d9400617 	ldw	r5,24(sp)
        ldw   r6,  28(sp)
  1800cc:	d9800717 	ldw	r6,28(sp)
        ldw   r7,  32(sp)
  1800d0:	d9c00817 	ldw	r7,32(sp)

#if defined(ALT_EXCEPTION_STACK) && defined(ALT_STACK_CHECK)
        ldw   et, %gprel(alt_exception_old_stack_limit)(gp)
#endif

        ldw   r8,  36(sp)
  1800d4:	da000917 	ldw	r8,36(sp)
        ldw   r9,  40(sp)
  1800d8:	da400a17 	ldw	r9,40(sp)
        ldw   r10, 44(sp)
  1800dc:	da800b17 	ldw	r10,44(sp)
        ldw   r11, 48(sp)
  1800e0:	dac00c17 	ldw	r11,48(sp)
        ldw   r12, 52(sp)
  1800e4:	db000d17 	ldw	r12,52(sp)
        ldw   r13, 56(sp)
  1800e8:	db400e17 	ldw	r13,56(sp)
        ldw   r14, 60(sp)
  1800ec:	db800f17 	ldw	r14,60(sp)
        ldw   r15, 64(sp)
  1800f0:	dbc01017 	ldw	r15,64(sp)
        stw   et, %gprel(alt_stack_limit_value)(gp)
        stw   zero, %gprel(alt_exception_old_stack_limit)(gp)
#endif /* ALT_STACK_CHECK */
        ldw   sp,  76(sp)
#else /* ALT_EXCEPTION_STACK disabled */
        addi  sp, sp, 76
  1800f4:	dec01304 	addi	sp,sp,76

        /*
         * Return to the interrupted instruction.
         */

        eret
  1800f8:	ef80083a 	eret

001800fc <alt_irq_handler>:
 * instruction is present if the macro ALT_CI_INTERRUPT_VECTOR defined.
 */

void alt_irq_handler (void) __attribute__ ((section (".exceptions")));
void alt_irq_handler (void)
{
  1800fc:	defff904 	addi	sp,sp,-28
  180100:	dfc00615 	stw	ra,24(sp)
  180104:	df000515 	stw	fp,20(sp)
  180108:	df000504 	addi	fp,sp,20
  
  /*
   * Notify the operating system that we are at interrupt level.
   */ 
  
  ALT_OS_INT_ENTER();
  18010c:	0001883a 	nop
#ifndef NIOS2_EIC_PRESENT
static ALT_INLINE alt_u32 ALT_ALWAYS_INLINE alt_irq_pending (void)
{
  alt_u32 active;

  NIOS2_READ_IPENDING (active);
  180110:	0005313a 	rdctl	r2,ipending
  180114:	e0bffe15 	stw	r2,-8(fp)

  return active;
  180118:	e0bffe17 	ldw	r2,-8(fp)
   * Consider the case where the high priority interupt is asserted during
   * the interrupt entry sequence for a lower priority interrupt to see why
   * this is the case.
   */

  active = alt_irq_pending ();
  18011c:	e0bffb15 	stw	r2,-20(fp)

  do
  {
    i = 0;
  180120:	e03ffd15 	stw	zero,-12(fp)
    mask = 1;
  180124:	00800044 	movi	r2,1
  180128:	e0bffc15 	stw	r2,-16(fp)
     * called to clear the interrupt condition.
     */

    do
    {
      if (active & mask)
  18012c:	e0fffb17 	ldw	r3,-20(fp)
  180130:	e0bffc17 	ldw	r2,-16(fp)
  180134:	1884703a 	and	r2,r3,r2
  180138:	10001426 	beq	r2,zero,18018c <alt_irq_handler+0x90>
      { 
#ifdef ALT_ENHANCED_INTERRUPT_API_PRESENT
        alt_irq[i].handler(alt_irq[i].context); 
  18013c:	008006b4 	movhi	r2,26
  180140:	108bfb04 	addi	r2,r2,12268
  180144:	e0fffd17 	ldw	r3,-12(fp)
  180148:	180690fa 	slli	r3,r3,3
  18014c:	10c5883a 	add	r2,r2,r3
  180150:	10c00017 	ldw	r3,0(r2)
  180154:	008006b4 	movhi	r2,26
  180158:	108bfb04 	addi	r2,r2,12268
  18015c:	e13ffd17 	ldw	r4,-12(fp)
  180160:	200890fa 	slli	r4,r4,3
  180164:	21000104 	addi	r4,r4,4
  180168:	1105883a 	add	r2,r2,r4
  18016c:	10800017 	ldw	r2,0(r2)
  180170:	1009883a 	mov	r4,r2
  180174:	183ee83a 	callr	r3
#else
        alt_irq[i].handler(alt_irq[i].context, i); 
#endif
        break;
  180178:	0001883a 	nop
#ifndef NIOS2_EIC_PRESENT
static ALT_INLINE alt_u32 ALT_ALWAYS_INLINE alt_irq_pending (void)
{
  alt_u32 active;

  NIOS2_READ_IPENDING (active);
  18017c:	0005313a 	rdctl	r2,ipending
  180180:	e0bfff15 	stw	r2,-4(fp)

  return active;
  180184:	e0bfff17 	ldw	r2,-4(fp)
  180188:	00000706 	br	1801a8 <alt_irq_handler+0xac>
      }
      mask <<= 1;
  18018c:	e0bffc17 	ldw	r2,-16(fp)
  180190:	1085883a 	add	r2,r2,r2
  180194:	e0bffc15 	stw	r2,-16(fp)
      i++;
  180198:	e0bffd17 	ldw	r2,-12(fp)
  18019c:	10800044 	addi	r2,r2,1
  1801a0:	e0bffd15 	stw	r2,-12(fp)

    } while (1);
  1801a4:	003fe106 	br	18012c <__alt_data_end+0xfff8012c>

    active = alt_irq_pending ();
  1801a8:	e0bffb15 	stw	r2,-20(fp)
    
  } while (active);
  1801ac:	e0bffb17 	ldw	r2,-20(fp)
  1801b0:	103fdb1e 	bne	r2,zero,180120 <__alt_data_end+0xfff80120>

  /*
   * Notify the operating system that interrupt processing is complete.
   */ 

  ALT_OS_INT_EXIT();
  1801b4:	0199ea00 	call	199ea0 <chSchIsPreemptionRequired>
  1801b8:	10803fcc 	andi	r2,r2,255
  1801bc:	10000126 	beq	r2,zero,1801c4 <alt_irq_handler+0xc8>
  1801c0:	019a0940 	call	19a094 <chSchDoReschedule>
}
  1801c4:	e037883a 	mov	sp,fp
  1801c8:	dfc00117 	ldw	ra,4(sp)
  1801cc:	df000017 	ldw	fp,0(sp)
  1801d0:	dec00204 	addi	sp,sp,8
  1801d4:	f800283a 	ret

001801d8 <alt_instruction_exception_entry>:
 * that handler if it has been registered. Absent a handler, it will
 * break break or hang as discussed below.
 */
int 
alt_instruction_exception_entry (alt_u32 exception_pc)
{
  1801d8:	defffb04 	addi	sp,sp,-20
  1801dc:	dfc00415 	stw	ra,16(sp)
  1801e0:	df000315 	stw	fp,12(sp)
  1801e4:	df000304 	addi	fp,sp,12
  1801e8:	e13fff15 	stw	r4,-4(fp)
  cause = ( (cause & NIOS2_EXCEPTION_REG_CAUSE_MASK) >>
              NIOS2_EXCEPTION_REG_CAUSE_OFST );

  NIOS2_READ_BADADDR(badaddr);
#else
  cause = NIOS2_EXCEPTION_CAUSE_NOT_PRESENT;
  1801ec:	00bfffc4 	movi	r2,-1
  1801f0:	e0bffd15 	stw	r2,-12(fp)
  badaddr = 0;
  1801f4:	e03ffe15 	stw	zero,-8(fp)
#endif /* NIOS2_HAS_EXTRA_EXCEPTION_INFO */

  if(alt_instruction_exception_handler) {
  1801f8:	d0a70e17 	ldw	r2,-25544(gp)
  1801fc:	10000726 	beq	r2,zero,18021c <alt_instruction_exception_entry+0x44>
     * Call handler. Its return value indicates whether the exception-causing
     * instruction should be re-issued. The code that called us,
     * alt_eceptions_entry.S, will look at this value and adjust the ea
     * register as necessary
     */
    return alt_instruction_exception_handler(cause, exception_pc, badaddr);
  180200:	d0a70e17 	ldw	r2,-25544(gp)
  180204:	e0fffd17 	ldw	r3,-12(fp)
  180208:	1809883a 	mov	r4,r3
  18020c:	e17fff17 	ldw	r5,-4(fp)
  180210:	e1bffe17 	ldw	r6,-8(fp)
  180214:	103ee83a 	callr	r2
  180218:	00000206 	br	180224 <alt_instruction_exception_entry+0x4c>
   *    (a peripheral which negates its interrupt output before its
   *    interrupt handler has been executed will cause spurious interrupts)
   */
  else {
#ifdef NIOS2_HAS_DEBUG_STUB
    NIOS2_BREAK();
  18021c:	003da03a 	break	0
      ;
#endif /* NIOS2_HAS_DEBUG_STUB */
  }

  /* We should not get here. Remove compiler warning. */
  return NIOS2_EXCEPTION_RETURN_REISSUE_INST;
  180220:	0005883a 	mov	r2,zero
}
  180224:	e037883a 	mov	sp,fp
  180228:	dfc00117 	ldw	ra,4(sp)
  18022c:	df000017 	ldw	fp,0(sp)
  180230:	dec00204 	addi	sp,sp,8
  180234:	f800283a 	ret

Disassembly of section .text:

00180238 <_start>:

    /*
     * Now that the caches are initialized, set up the stack pointer and global pointer.
     * The values provided by the linker are assumed to be correctly aligned.
     */
    movhi sp, %hi(__alt_stack_pointer)
  180238:	06c00834 	movhi	sp,32
    ori sp, sp, %lo(__alt_stack_pointer)
  18023c:	dec00014 	ori	sp,sp,0
    movhi gp, %hi(_gp)
  180240:	068006b4 	movhi	gp,26
    ori gp, gp, %lo(_gp)
  180244:	d6a46414 	ori	gp,gp,37264
 */
#ifndef ALT_SIM_OPTIMIZE
    /* Log that the BSS is about to be cleared. */
    ALT_LOG_PUTS(alt_log_msg_bss)

    movhi r2, %hi(__bss_start)
  180248:	008006b4 	movhi	r2,26
    ori r2, r2, %lo(__bss_start)
  18024c:	108b6414 	ori	r2,r2,11664

    movhi r3, %hi(__bss_end)
  180250:	00c006b4 	movhi	r3,26
    ori r3, r3, %lo(__bss_end)
  180254:	18ccb414 	ori	r3,r3,13008

    beq r2, r3, 1f
  180258:	10c00326 	beq	r2,r3,180268 <_start+0x30>

0:
    stw zero, (r2)
  18025c:	10000015 	stw	zero,0(r2)
    addi r2, r2, 4
  180260:	10800104 	addi	r2,r2,4
    bltu r2, r3, 0b
  180264:	10fffd36 	bltu	r2,r3,18025c <__alt_data_end+0xfff8025c>
     * section aren't defined until alt_load() has been called).
     */
    mov   et, zero
#endif

    call alt_load
  180268:	01968b00 	call	1968b0 <alt_load>

    /* Log that alt_main is about to be called. */
    ALT_LOG_PUTS(alt_log_msg_alt_main)

    /* Call the C entry point. It should never return. */
    call alt_main
  18026c:	0196a5c0 	call	196a5c <alt_main>

00180270 <alt_after_alt_main>:

    /* Wait in infinite loop in case alt_main does return. */
alt_after_alt_main:
    br alt_after_alt_main
  180270:	003fff06 	br	180270 <__alt_data_end+0xfff80270>

00180274 <test_audio_fft>:
	alt_u16 b16[256];
	alt_u32 i;
	alt_u32 lbffr[128];
	alt_u32 rbffr[128];

  alt_putstr("Hello from Nios II!\n");
  180274:	010006b4 	movhi	r4,26
#include "sys/alt_stdio.h"
#include "ledos/ledos.h"
#include "ch.h"

int test_audio_fft()
{ 
  180278:	deffff04 	addi	sp,sp,-4
	alt_u16 b16[256];
	alt_u32 i;
	alt_u32 lbffr[128];
	alt_u32 rbffr[128];

  alt_putstr("Hello from Nios II!\n");
  18027c:	212d0404 	addi	r4,r4,-19440
#include "sys/alt_stdio.h"
#include "ledos/ledos.h"
#include "ch.h"

int test_audio_fft()
{ 
  180280:	dfc00015 	stw	ra,0(sp)
	alt_u16 b16[256];
	alt_u32 i;
	alt_u32 lbffr[128];
	alt_u32 rbffr[128];

  alt_putstr("Hello from Nios II!\n");
  180284:	0196d980 	call	196d98 <alt_putstr>

  enable_fgyrus();
  180288:	01879900 	call	187990 <enable_fgyrus>


  //pcm_cap(FS_32KHZ,BPS_24);

	disable_adc_drvr();
  18028c:	018789c0 	call	18789c <disable_adc_drvr>
	disable_dac_drvr();
  180290:	01878700 	call	187870 <disable_dac_drvr>
	disable_audio_path();
  180294:	01873b80 	call	1873b8 <disable_audio_path>

	update_acache_mode(PCM_BFFR_MODE_NORMAL);
  180298:	0009883a 	mov	r4,zero
  18029c:	01878180 	call	187818 <update_acache_mode>

	enable_audio_path(FS_44KHZ,BPS_24);
  1802a0:	01000084 	movi	r4,2
  1802a4:	200b883a 	mov	r5,r4
  1802a8:	01872200 	call	187220 <enable_audio_path>
	enable_adc_drvr();
  1802ac:	01878b40 	call	1878b4 <enable_adc_drvr>
	enable_dac_drvr();
  1802b0:	01878880 	call	187888 <enable_dac_drvr>
	 for(i=0;i<128;i++) {
		  printf("FFT R[0x%x] - %d\r\n",i,rbffr[i]);
	  }
	  */

  dump_drvr_regs();
  1802b4:	01879040 	call	187904 <dump_drvr_regs>
  aud_codec_dump_regs();
  1802b8:	01868480 	call	186848 <aud_codec_dump_regs>
	  alt_printf("Cordic Ram[0x%x] - 0x%x\r\n",i,b16[i]);
  }
  */

  /* Event loop never exits. */
  while (1);
  1802bc:	003fff06 	br	1802bc <__alt_data_end+0xfff802bc>

001802c0 <main>:
  return 0;
}

int main ()
{
	  alt_putstr("Hello from Nios II!\n");
  1802c0:	010006b4 	movhi	r4,26

  return 0;
}

int main ()
{
  1802c4:	deffff04 	addi	sp,sp,-4
	  alt_putstr("Hello from Nios II!\n");
  1802c8:	212d0404 	addi	r4,r4,-19440

  return 0;
}

int main ()
{
  1802cc:	dfc00015 	stw	ra,0(sp)
	  alt_putstr("Hello from Nios II!\n");
  1802d0:	0196d980 	call	196d98 <alt_putstr>

	  init_ledos(BPS_24);
  1802d4:	01000084 	movi	r4,2
  1802d8:	0187c800 	call	187c80 <init_ledos>

	  //test_audio_fft();

	  return	0;
}
  1802dc:	0005883a 	mov	r2,zero
  1802e0:	dfc00017 	ldw	ra,0(sp)
  1802e4:	dec00104 	addi	sp,sp,4
  1802e8:	f800283a 	ret

001802ec <adv7513_video_out_format.constprop.4>:

// out video format
//
// format   - adv7513_output_format
// dvi		- adv7513_hdmi_dvi
static int adv7513_video_out_format(struct hdmi_encoder *ec, int format, int dvi)
  1802ec:	defffd04 	addi	sp,sp,-12
  1802f0:	dc400115 	stw	r17,4(sp)

	//printf("adv7513_video_out_format()\n");

	// 0x16[7] <- format
	regv = (format & 0x01) << 7;
	if (reg_update_bits(ec, 0x16, 0x80, regv) != 0)
  1802f4:	01802004 	movi	r6,128

// out video format
//
// format   - adv7513_output_format
// dvi		- adv7513_hdmi_dvi
static int adv7513_video_out_format(struct hdmi_encoder *ec, int format, int dvi)
  1802f8:	2823883a 	mov	r17,r5

	//printf("adv7513_video_out_format()\n");

	// 0x16[7] <- format
	regv = (format & 0x01) << 7;
	if (reg_update_bits(ec, 0x16, 0x80, regv) != 0)
  1802fc:	000f883a 	mov	r7,zero
  180300:	01400584 	movi	r5,22

// out video format
//
// format   - adv7513_output_format
// dvi		- adv7513_hdmi_dvi
static int adv7513_video_out_format(struct hdmi_encoder *ec, int format, int dvi)
  180304:	dc000015 	stw	r16,0(sp)
  180308:	dfc00215 	stw	ra,8(sp)
  18030c:	2021883a 	mov	r16,r4

	//printf("adv7513_video_out_format()\n");

	// 0x16[7] <- format
	regv = (format & 0x01) << 7;
	if (reg_update_bits(ec, 0x16, 0x80, regv) != 0)
  180310:	01865bc0 	call	1865bc <reg_update_bits>
  180314:	10000226 	beq	r2,zero,180320 <adv7513_video_out_format.constprop.4+0x34>
		return -1;
  180318:	00bfffc4 	movi	r2,-1
  18031c:	00001e06 	br	180398 <adv7513_video_out_format.constprop.4+0xac>

	// 0x18[7] <- enable
	// 0x18[6:5] <- scaling
	// 0x18[4:0] <- csc_a1[4:0]
	int regv = (enable ? 1 : 0) << 7;
	if (reg_update_bits(ec, 0x18, 0x80, regv) != 0)
  180320:	8009883a 	mov	r4,r16
  180324:	01400604 	movi	r5,24
  180328:	01802004 	movi	r6,128
  18032c:	000f883a 	mov	r7,zero
  180330:	01865bc0 	call	1865bc <reg_update_bits>
  180334:	103ff81e 	bne	r2,zero,180318 <__alt_data_end+0xfff80318>
		return -1;
	}

	// 0xaf[7] <- hdcp (enable/disable)
	// 0xaf[1] <- dvi (section 4.2.2)
	if (reg_update_bits(ec, 0xaf, 0x82, (dvi & 0x01) << 1) != 0)
  180338:	89c0004c 	andi	r7,r17,1
  18033c:	8009883a 	mov	r4,r16
  180340:	01402bc4 	movi	r5,175
  180344:	01802084 	movi	r6,130
  180348:	39cf883a 	add	r7,r7,r7
  18034c:	01865bc0 	call	1865bc <reg_update_bits>
  180350:	103ff11e 	bne	r2,zero,180318 <__alt_data_end+0xfff80318>
		return -1;

	// general control packet
	// 0x40[7] <- gc (section 4.2.3 && 4.3.3)
	if (dvi == ADV7513_MODE_HDMI) {
  180354:	00800044 	movi	r2,1
		if (reg_update_bits(ec, 0x40, 0x80, (1 & 0x01) << 7) != 0)
  180358:	8009883a 	mov	r4,r16
  18035c:	01401004 	movi	r5,64
  180360:	01802004 	movi	r6,128
	if (reg_update_bits(ec, 0xaf, 0x82, (dvi & 0x01) << 1) != 0)
		return -1;

	// general control packet
	// 0x40[7] <- gc (section 4.2.3 && 4.3.3)
	if (dvi == ADV7513_MODE_HDMI) {
  180364:	8880031e 	bne	r17,r2,180374 <adv7513_video_out_format.constprop.4+0x88>
		if (reg_update_bits(ec, 0x40, 0x80, (1 & 0x01) << 7) != 0)
  180368:	300f883a 	mov	r7,r6
  18036c:	01865bc0 	call	1865bc <reg_update_bits>
  180370:	00000106 	br	180378 <adv7513_video_out_format.constprop.4+0x8c>
			return -1;
	} else {
		if (reg_clear_bits(ec, 0x40, 0x80) != 0)
  180374:	01866bc0 	call	1866bc <reg_clear_bits>
  180378:	103fe71e 	bne	r2,zero,180318 <__alt_data_end+0xfff80318>
			return -1;
	}

	// 0x4c[3:0] <- gc_depth (section 4.2.6)
	if (reg_update_bits(ec, 0x4c, 0x0f, 4 & 0x0f) != 0)
  18037c:	8009883a 	mov	r4,r16
  180380:	01401304 	movi	r5,76
  180384:	018003c4 	movi	r6,15
  180388:	01c00104 	movi	r7,4
  18038c:	01865bc0 	call	1865bc <reg_update_bits>
  180390:	1004c03a 	cmpne	r2,r2,zero
  180394:	0085c83a 	sub	r2,zero,r2
	// 0x3c[5:0] <- 0x01 & 0x3f
	//if (reg_update_bits(ec, 0x3c, 0x3f, 0x01) != 0)
	//	return -1;

	return 0;
}
  180398:	dfc00217 	ldw	ra,8(sp)
  18039c:	dc400117 	ldw	r17,4(sp)
  1803a0:	dc000017 	ldw	r16,0(sp)
  1803a4:	dec00304 	addi	sp,sp,12
  1803a8:	f800283a 	ret

001803ac <adv7513_chip_identify>:
	{ 0x55, 0x02 },
};
#endif

int adv7513_chip_identify(struct hdmi_encoder *ec)
{
  1803ac:	defffe04 	addi	sp,sp,-8

	if(reg_read(ec,ADV7513_REG_CHIP_REVISION,&ec->chip_rev[0]) < 0)
  1803b0:	000b883a 	mov	r5,zero
  1803b4:	21800804 	addi	r6,r4,32
	{ 0x55, 0x02 },
};
#endif

int adv7513_chip_identify(struct hdmi_encoder *ec)
{
  1803b8:	dc000015 	stw	r16,0(sp)
  1803bc:	dfc00115 	stw	ra,4(sp)
  1803c0:	2021883a 	mov	r16,r4

	if(reg_read(ec,ADV7513_REG_CHIP_REVISION,&ec->chip_rev[0]) < 0)
  1803c4:	01864f00 	call	1864f0 <reg_read>
  1803c8:	10000c16 	blt	r2,zero,1803fc <adv7513_chip_identify+0x50>
		return -1;

	if(reg_read(ec,ADV7513_REG_CHIP_ID_LOW,&ec->chip_id[0]) < 0)
  1803cc:	8009883a 	mov	r4,r16
  1803d0:	01403d84 	movi	r5,246
  1803d4:	81800704 	addi	r6,r16,28
  1803d8:	01864f00 	call	1864f0 <reg_read>
  1803dc:	10000916 	blt	r2,zero,180404 <adv7513_chip_identify+0x58>
		return -2;

	if(reg_read(ec,ADV7513_REG_CHIP_ID_HIGH,&ec->chip_id[1]) < 0)
  1803e0:	8009883a 	mov	r4,r16
  1803e4:	01403d44 	movi	r5,245
  1803e8:	81800744 	addi	r6,r16,29
  1803ec:	01864f00 	call	1864f0 <reg_read>
  1803f0:	10000616 	blt	r2,zero,18040c <adv7513_chip_identify+0x60>
		return -3;

	return 0;
  1803f4:	0005883a 	mov	r2,zero
  1803f8:	00000506 	br	180410 <adv7513_chip_identify+0x64>

int adv7513_chip_identify(struct hdmi_encoder *ec)
{

	if(reg_read(ec,ADV7513_REG_CHIP_REVISION,&ec->chip_rev[0]) < 0)
		return -1;
  1803fc:	00bfffc4 	movi	r2,-1
  180400:	00000306 	br	180410 <adv7513_chip_identify+0x64>

	if(reg_read(ec,ADV7513_REG_CHIP_ID_LOW,&ec->chip_id[0]) < 0)
		return -2;
  180404:	00bfff84 	movi	r2,-2
  180408:	00000106 	br	180410 <adv7513_chip_identify+0x64>

	if(reg_read(ec,ADV7513_REG_CHIP_ID_HIGH,&ec->chip_id[1]) < 0)
		return -3;
  18040c:	00bfff44 	movi	r2,-3

	return 0;
}
  180410:	dfc00117 	ldw	ra,4(sp)
  180414:	dc000017 	ldw	r16,0(sp)
  180418:	dec00204 	addi	sp,sp,8
  18041c:	f800283a 	ret

00180420 <adv7513_hpd_probe>:
int adv7513_hpd_probe(struct hdmi_encoder *ec)
{
	bool r = 0;
	alt_u8 regv = 0;

	ec->hpd_prev = ec->hpd_latest;
  180420:	20800317 	ldw	r2,12(r4)

	return 0;
}

int adv7513_hpd_probe(struct hdmi_encoder *ec)
{
  180424:	defffd04 	addi	sp,sp,-12
  180428:	dc000115 	stw	r16,4(sp)
  18042c:	dfc00215 	stw	ra,8(sp)
	bool r = 0;
	alt_u8 regv = 0;

	ec->hpd_prev = ec->hpd_latest;
  180430:	20800215 	stw	r2,8(r4)

	r = reg_read(ec, ADV7513_REG_STATUS, &regv);
  180434:	01401084 	movi	r5,66
  180438:	d80d883a 	mov	r6,sp

	return 0;
}

int adv7513_hpd_probe(struct hdmi_encoder *ec)
{
  18043c:	2021883a 	mov	r16,r4
	bool r = 0;
	alt_u8 regv = 0;
  180440:	d8000005 	stb	zero,0(sp)

	ec->hpd_prev = ec->hpd_latest;

	r = reg_read(ec, ADV7513_REG_STATUS, &regv);
  180444:	01864f00 	call	1864f0 <reg_read>
	if (r != 0)
  180448:	10001a1e 	bne	r2,zero,1804b4 <adv7513_hpd_probe+0x94>
		return -1;

	ec->hpd_latest = regv & ((ADV7513_STATUS_HPD) | (ADV7513_STATUS_MONITOR_SENSE));
  18044c:	d8c00003 	ldbu	r3,0(sp)
	ec->hpd_event = ec->hpd_latest ^ ec->hpd_prev;
  180450:	80800217 	ldw	r2,8(r16)

	r = reg_read(ec, ADV7513_REG_STATUS, &regv);
	if (r != 0)
		return -1;

	ec->hpd_latest = regv & ((ADV7513_STATUS_HPD) | (ADV7513_STATUS_MONITOR_SENSE));
  180454:	1900180c 	andi	r4,r3,96
	ec->hpd_event = ec->hpd_latest ^ ec->hpd_prev;
  180458:	2084f03a 	xor	r2,r4,r2

	r = reg_read(ec, ADV7513_REG_STATUS, &regv);
	if (r != 0)
		return -1;

	ec->hpd_latest = regv & ((ADV7513_STATUS_HPD) | (ADV7513_STATUS_MONITOR_SENSE));
  18045c:	81000315 	stw	r4,12(r16)
	ec->hpd_event = ec->hpd_latest ^ ec->hpd_prev;
  180460:	80800415 	stw	r2,16(r16)

	ec->hpd = 0;

	if ((ec->hpd_event != 0) && ((ec->hpd_latest & ((ADV7513_STATUS_HPD) | (ADV7513_STATUS_MONITOR_SENSE))) == ((ADV7513_STATUS_HPD) | (ADV7513_STATUS_MONITOR_SENSE)))) {
  180464:	10000426 	beq	r2,zero,180478 <adv7513_hpd_probe+0x58>
  180468:	01401804 	movi	r5,96
  18046c:	2140021e 	bne	r4,r5,180478 <adv7513_hpd_probe+0x58>
		// if hot-plug state changed and both HPD and monitor-sense are asserted
		ec->hpd = 1;
  180470:	00800044 	movi	r2,1
  180474:	00000d06 	br	1804ac <adv7513_hpd_probe+0x8c>
	} else {
		if ((ec->hpd_event & (ADV7513_STATUS_HPD)) && ((ec->hpd_latest & (ADV7513_STATUS_HPD)) == 0)) {
  180478:	1100100c 	andi	r4,r2,64
  18047c:	2000021e 	bne	r4,zero,180488 <adv7513_hpd_probe+0x68>
		return -1;

	ec->hpd_latest = regv & ((ADV7513_STATUS_HPD) | (ADV7513_STATUS_MONITOR_SENSE));
	ec->hpd_event = ec->hpd_latest ^ ec->hpd_prev;

	ec->hpd = 0;
  180480:	80000515 	stw	zero,20(r16)
  180484:	00000406 	br	180498 <adv7513_hpd_probe+0x78>

	if ((ec->hpd_event != 0) && ((ec->hpd_latest & ((ADV7513_STATUS_HPD) | (ADV7513_STATUS_MONITOR_SENSE))) == ((ADV7513_STATUS_HPD) | (ADV7513_STATUS_MONITOR_SENSE)))) {
		// if hot-plug state changed and both HPD and monitor-sense are asserted
		ec->hpd = 1;
	} else {
		if ((ec->hpd_event & (ADV7513_STATUS_HPD)) && ((ec->hpd_latest & (ADV7513_STATUS_HPD)) == 0)) {
  180488:	1900100c 	andi	r4,r3,64
  18048c:	203ffc1e 	bne	r4,zero,180480 <__alt_data_end+0xfff80480>
			// if HPD state changed and HPD was de-asserted
			ec->hpd = -1;
  180490:	013fffc4 	movi	r4,-1
  180494:	81000515 	stw	r4,20(r16)
		}

		if ((ec->hpd_event & (ADV7513_STATUS_MONITOR_SENSE)) && ((ec->hpd_latest & (ADV7513_STATUS_MONITOR_SENSE)) == 0)) {
  180498:	1080080c 	andi	r2,r2,32
  18049c:	10000826 	beq	r2,zero,1804c0 <adv7513_hpd_probe+0xa0>
  1804a0:	18c0080c 	andi	r3,r3,32
  1804a4:	1800051e 	bne	r3,zero,1804bc <adv7513_hpd_probe+0x9c>
			// if monitor-sense state changed and monitor-sense was de-asserted
			ec->hpd = -1;
  1804a8:	00bfffc4 	movi	r2,-1
  1804ac:	80800515 	stw	r2,20(r16)
  1804b0:	00000206 	br	1804bc <adv7513_hpd_probe+0x9c>

	ec->hpd_prev = ec->hpd_latest;

	r = reg_read(ec, ADV7513_REG_STATUS, &regv);
	if (r != 0)
		return -1;
  1804b4:	00bfffc4 	movi	r2,-1
  1804b8:	00000106 	br	1804c0 <adv7513_hpd_probe+0xa0>
	// 0xd6[7:6] <- (2 << 6) (HPD from HPD only) & 0xc0
	//r = reg_update_bits(ec, 0xd6, 0xc0 ,0x02 << 6);
	//if (r != 0)
	//	return -1;

	return 0;
  1804bc:	0005883a 	mov	r2,zero
}
  1804c0:	dfc00217 	ldw	ra,8(sp)
  1804c4:	dc000117 	ldw	r16,4(sp)
  1804c8:	dec00304 	addi	sp,sp,12
  1804cc:	f800283a 	ret

001804d0 <adv7513_do_hpd_powerup>:

int adv7513_do_hpd_powerup(struct hdmi_encoder *ec)
{
  1804d0:	defffe04 	addi	sp,sp,-8
	//printf("adv7513_do_hpd_powerup()\n");

	// power up the encoder
	if (reg_update_bits(ec, 0x41, 0x40, 0) != 0)
  1804d4:	01401044 	movi	r5,65
  1804d8:	01801004 	movi	r6,64
  1804dc:	000f883a 	mov	r7,zero

	return 0;
}

int adv7513_do_hpd_powerup(struct hdmi_encoder *ec)
{
  1804e0:	dc000015 	stw	r16,0(sp)
  1804e4:	dfc00115 	stw	ra,4(sp)
  1804e8:	2021883a 	mov	r16,r4
	//printf("adv7513_do_hpd_powerup()\n");

	// power up the encoder
	if (reg_update_bits(ec, 0x41, 0x40, 0) != 0)
  1804ec:	01865bc0 	call	1865bc <reg_update_bits>
  1804f0:	10000226 	beq	r2,zero,1804fc <adv7513_do_hpd_powerup+0x2c>
		return -1;
  1804f4:	00bfffc4 	movi	r2,-1
  1804f8:	00002b06 	br	1805a8 <adv7513_do_hpd_powerup+0xd8>

	//usleep(150000);

	// table 14 -- fixed registers must be set after power up
	if (reg_write(ec, 0x98, 0x03) != 0)
  1804fc:	8009883a 	mov	r4,r16
  180500:	01402604 	movi	r5,152
  180504:	018000c4 	movi	r6,3
  180508:	01865780 	call	186578 <reg_write>
  18050c:	103ff91e 	bne	r2,zero,1804f4 <__alt_data_end+0xfff804f4>
		return -1;
	if (reg_update_bits(ec, 0x9a, 0xe0, 0x7 << 5) != 0)
  180510:	01803804 	movi	r6,224
  180514:	8009883a 	mov	r4,r16
  180518:	01402684 	movi	r5,154
  18051c:	300f883a 	mov	r7,r6
  180520:	01865bc0 	call	1865bc <reg_update_bits>
  180524:	103ff31e 	bne	r2,zero,1804f4 <__alt_data_end+0xfff804f4>
		return -1;
	if (reg_write(ec, 0x9c, 0x30) != 0)
  180528:	8009883a 	mov	r4,r16
  18052c:	01402704 	movi	r5,156
  180530:	01800c04 	movi	r6,48
  180534:	01865780 	call	186578 <reg_write>
  180538:	103fee1e 	bne	r2,zero,1804f4 <__alt_data_end+0xfff804f4>
		return -1;
	if (reg_update_bits(ec, 0x9d, 0x03, 0x01) != 0)
  18053c:	8009883a 	mov	r4,r16
  180540:	01402744 	movi	r5,157
  180544:	018000c4 	movi	r6,3
  180548:	01c00044 	movi	r7,1
  18054c:	01865bc0 	call	1865bc <reg_update_bits>
  180550:	103fe81e 	bne	r2,zero,1804f4 <__alt_data_end+0xfff804f4>
		return -1;
	if (reg_write(ec, 0xa2, 0xa4) != 0)
  180554:	8009883a 	mov	r4,r16
  180558:	01402884 	movi	r5,162
  18055c:	01802904 	movi	r6,164
  180560:	01865780 	call	186578 <reg_write>
  180564:	103fe31e 	bne	r2,zero,1804f4 <__alt_data_end+0xfff804f4>
		return -1;
	if (reg_write(ec, 0xa3, 0xa4) != 0)
  180568:	8009883a 	mov	r4,r16
  18056c:	014028c4 	movi	r5,163
  180570:	01802904 	movi	r6,164
  180574:	01865780 	call	186578 <reg_write>
  180578:	103fde1e 	bne	r2,zero,1804f4 <__alt_data_end+0xfff804f4>
		return -1;
	if (reg_write(ec, 0xe0, 0xd0) != 0)
  18057c:	8009883a 	mov	r4,r16
  180580:	01403804 	movi	r5,224
  180584:	01803404 	movi	r6,208
  180588:	01865780 	call	186578 <reg_write>
  18058c:	103fd91e 	bne	r2,zero,1804f4 <__alt_data_end+0xfff804f4>
	//if (reg_write(ec, 0xf9, 0x00) != 0)  // set to a non-conflicting i2c address (suggested addr: 0x00)
	//	return -1;

	// clear hpd interrupts
	// 0x96[7:6] <- 0xc0 & 0xc0
	if (reg_write(ec, 0x96, 0xff) != 0)
  180590:	8009883a 	mov	r4,r16
  180594:	01402584 	movi	r5,150
  180598:	01803fc4 	movi	r6,255
  18059c:	01865780 	call	186578 <reg_write>
  1805a0:	1004c03a 	cmpne	r2,r2,zero
  1805a4:	0085c83a 	sub	r2,zero,r2
		return -1;

	return 0;
}
  1805a8:	dfc00117 	ldw	ra,4(sp)
  1805ac:	dc000017 	ldw	r16,0(sp)
  1805b0:	dec00204 	addi	sp,sp,8
  1805b4:	f800283a 	ret

001805b8 <adv7513_kick_up>:
// interrupt if the monitor is in sleep mode and the cable is connected before downloading
// the program to the fpga board. It is verified that kick-off the encoder chip facilitates
// the encoder to detect monitor-sense signal at the program initialization process
//
extern int adv7513_kick_up(struct hdmi_encoder *ec)
{
  1805b8:	deffff04 	addi	sp,sp,-4
	// power up the encoder
	if (reg_update_bits(ec, 0x41, 0x40, 0) != 0)
  1805bc:	01401044 	movi	r5,65
  1805c0:	01801004 	movi	r6,64
  1805c4:	000f883a 	mov	r7,zero
// interrupt if the monitor is in sleep mode and the cable is connected before downloading
// the program to the fpga board. It is verified that kick-off the encoder chip facilitates
// the encoder to detect monitor-sense signal at the program initialization process
//
extern int adv7513_kick_up(struct hdmi_encoder *ec)
{
  1805c8:	dfc00015 	stw	ra,0(sp)
	// power up the encoder
	if (reg_update_bits(ec, 0x41, 0x40, 0) != 0)
  1805cc:	01865bc0 	call	1865bc <reg_update_bits>
  1805d0:	1004c03a 	cmpne	r2,r2,zero
		return -1;
	return 0;
}
  1805d4:	0085c83a 	sub	r2,zero,r2
  1805d8:	dfc00017 	ldw	ra,0(sp)
  1805dc:	dec00104 	addi	sp,sp,4
  1805e0:	f800283a 	ret

001805e4 <adv7513_do_hpd_powerdown>:

int adv7513_do_hpd_powerdown(struct hdmi_encoder *ec)
{
	// power down the encoder
	if (reg_update_bits(ec, 0x41, 0x40, 0x40) != 0)
  1805e4:	01801004 	movi	r6,64
		return -1;
	return 0;
}

int adv7513_do_hpd_powerdown(struct hdmi_encoder *ec)
{
  1805e8:	deffff04 	addi	sp,sp,-4
	// power down the encoder
	if (reg_update_bits(ec, 0x41, 0x40, 0x40) != 0)
  1805ec:	01401044 	movi	r5,65
  1805f0:	300f883a 	mov	r7,r6
		return -1;
	return 0;
}

int adv7513_do_hpd_powerdown(struct hdmi_encoder *ec)
{
  1805f4:	dfc00015 	stw	ra,0(sp)
	// power down the encoder
	if (reg_update_bits(ec, 0x41, 0x40, 0x40) != 0)
  1805f8:	01865bc0 	call	1865bc <reg_update_bits>
  1805fc:	1004c03a 	cmpne	r2,r2,zero
		return -1;

	return 0;
}
  180600:	0085c83a 	sub	r2,zero,r2
  180604:	dfc00017 	ldw	ra,0(sp)
  180608:	dec00104 	addi	sp,sp,4
  18060c:	f800283a 	ret

00180610 <adv7513_power_state>:

int adv7513_power_state(struct hdmi_encoder *ec, int *state)
{
  180610:	defffd04 	addi	sp,sp,-12
  180614:	dc000115 	stw	r16,4(sp)
	bool r = 0;
	alt_u8 regv = 0;

	r = reg_read(ec, 0x41, &regv);
  180618:	d80d883a 	mov	r6,sp

	return 0;
}

int adv7513_power_state(struct hdmi_encoder *ec, int *state)
{
  18061c:	2821883a 	mov	r16,r5
	bool r = 0;
	alt_u8 regv = 0;

	r = reg_read(ec, 0x41, &regv);
  180620:	01401044 	movi	r5,65

	return 0;
}

int adv7513_power_state(struct hdmi_encoder *ec, int *state)
{
  180624:	dfc00215 	stw	ra,8(sp)
	bool r = 0;
	alt_u8 regv = 0;
  180628:	d8000005 	stb	zero,0(sp)

	r = reg_read(ec, 0x41, &regv);
  18062c:	01864f00 	call	1864f0 <reg_read>
	if (r != 0)
  180630:	1000041e 	bne	r2,zero,180644 <adv7513_power_state+0x34>
		return -1;

	if ((regv & 0x40) == 1)
		*state = 0;
	else
		*state = 1;
  180634:	00800044 	movi	r2,1
  180638:	80800015 	stw	r2,0(r16)

	return 0;
  18063c:	0005883a 	mov	r2,zero
  180640:	00000106 	br	180648 <adv7513_power_state+0x38>
	bool r = 0;
	alt_u8 regv = 0;

	r = reg_read(ec, 0x41, &regv);
	if (r != 0)
		return -1;
  180644:	00bfffc4 	movi	r2,-1
		*state = 0;
	else
		*state = 1;

	return 0;
}
  180648:	dfc00217 	ldw	ra,8(sp)
  18064c:	dc000117 	ldw	r16,4(sp)
  180650:	dec00304 	addi	sp,sp,12
  180654:	f800283a 	ret

00180658 <adv7513_mode_state>:

int adv7513_mode_state(struct hdmi_encoder *ec, int *vic, const char **mode)
{
  180658:	defffc04 	addi	sp,sp,-16
  18065c:	dc400215 	stw	r17,8(sp)
  180660:	dc000115 	stw	r16,4(sp)
  180664:	2823883a 	mov	r17,r5
  180668:	3021883a 	mov	r16,r6
	};

	bool r = 0;
	alt_u8 regv = 0;

	r = reg_read(ec, 0x3d, &regv);
  18066c:	01400f44 	movi	r5,61
  180670:	d80d883a 	mov	r6,sp

	return 0;
}

int adv7513_mode_state(struct hdmi_encoder *ec, int *vic, const char **mode)
{
  180674:	dfc00315 	stw	ra,12(sp)
		"720(1440)x480i @239.76/240 Hz (4:3)",
		"720(1440)x480i @239.76/240 Hz (16:9)",
	};

	bool r = 0;
	alt_u8 regv = 0;
  180678:	d8000005 	stb	zero,0(sp)

	r = reg_read(ec, 0x3d, &regv);
  18067c:	01864f00 	call	1864f0 <reg_read>
	if (r != 0)
  180680:	10000c1e 	bne	r2,zero,1806b4 <adv7513_mode_state+0x5c>
		return -1;

	*vic = regv & 0x1f;
  180684:	d8800003 	ldbu	r2,0(sp)

	if (*vic < 60) {
		*mode = vic_table[*vic];
  180688:	00c006b4 	movhi	r3,26
  18068c:	18ef2204 	addi	r3,r3,-17272

	r = reg_read(ec, 0x3d, &regv);
	if (r != 0)
		return -1;

	*vic = regv & 0x1f;
  180690:	108007cc 	andi	r2,r2,31
  180694:	88800015 	stw	r2,0(r17)

	if (*vic < 60) {
		*mode = vic_table[*vic];
  180698:	1085883a 	add	r2,r2,r2
  18069c:	1085883a 	add	r2,r2,r2
  1806a0:	1885883a 	add	r2,r3,r2
  1806a4:	10800017 	ldw	r2,0(r2)
  1806a8:	80800015 	stw	r2,0(r16)
	} else {
		*mode = vic_table[0];
	}

	return 0;
  1806ac:	0005883a 	mov	r2,zero
  1806b0:	00000106 	br	1806b8 <adv7513_mode_state+0x60>
	bool r = 0;
	alt_u8 regv = 0;

	r = reg_read(ec, 0x3d, &regv);
	if (r != 0)
		return -1;
  1806b4:	00bfffc4 	movi	r2,-1
	} else {
		*mode = vic_table[0];
	}

	return 0;
}
  1806b8:	dfc00317 	ldw	ra,12(sp)
  1806bc:	dc400217 	ldw	r17,8(sp)
  1806c0:	dc000117 	ldw	r16,4(sp)
  1806c4:	dec00404 	addi	sp,sp,16
  1806c8:	f800283a 	ret

001806cc <adv7513_edid_read>:

int adv7513_edid_read(struct hdmi_encoder *ec, void *edid, int segment)
{
  1806cc:	defff804 	addi	sp,sp,-32
  1806d0:	dc400215 	stw	r17,8(sp)
	alt_u8 *regv = (alt_u8 *)edid;
	int i;

	for (i = 0 + segment * 256; i < (segment + 1) * 256; ++i, ++regv) {
  1806d4:	3022923a 	slli	r17,r6,8

	return 0;
}

int adv7513_edid_read(struct hdmi_encoder *ec, void *edid, int segment)
{
  1806d8:	dd400615 	stw	r21,24(sp)
  1806dc:	dd000515 	stw	r20,20(sp)
  1806e0:	dcc00415 	stw	r19,16(sp)
  1806e4:	dc800315 	stw	r18,12(sp)
  1806e8:	dc000115 	stw	r16,4(sp)
  1806ec:	dfc00715 	stw	ra,28(sp)
  1806f0:	2025883a 	mov	r18,r4
  1806f4:	2829883a 	mov	r20,r5
	alt_u8 *regv = (alt_u8 *)edid;
	int i;

	for (i = 0 + segment * 256; i < (segment + 1) * 256; ++i, ++regv) {
  1806f8:	8cc04004 	addi	r19,r17,256
  1806fc:	8821883a 	mov	r16,r17
		adv7513_i2c_bffr.byte_arry[0] = i & 0xff;

		if(i2c_xtn_write(ec->edid_addr,adv7513_i2c_bffr.byte_arry,1,1,0))	{
  180700:	05400044 	movi	r21,1
int adv7513_edid_read(struct hdmi_encoder *ec, void *edid, int segment)
{
	alt_u8 *regv = (alt_u8 *)edid;
	int i;

	for (i = 0 + segment * 256; i < (segment + 1) * 256; ++i, ++regv) {
  180704:	84c0170e 	bge	r16,r19,180764 <adv7513_edid_read+0x98>
		adv7513_i2c_bffr.byte_arry[0] = i & 0xff;

		if(i2c_xtn_write(ec->edid_addr,adv7513_i2c_bffr.byte_arry,1,1,0))	{
  180708:	91000103 	ldbu	r4,4(r18)
  18070c:	01800044 	movi	r6,1
  180710:	d8000015 	stw	zero,0(sp)
  180714:	d1670084 	addi	r5,gp,-25598
  180718:	300f883a 	mov	r7,r6
{
	alt_u8 *regv = (alt_u8 *)edid;
	int i;

	for (i = 0 + segment * 256; i < (segment + 1) * 256; ++i, ++regv) {
		adv7513_i2c_bffr.byte_arry[0] = i & 0xff;
  18071c:	d4270085 	stb	r16,-25598(gp)

		if(i2c_xtn_write(ec->edid_addr,adv7513_i2c_bffr.byte_arry,1,1,0))	{
  180720:	01875f80 	call	1875f8 <i2c_xtn_write>
  180724:	10000226 	beq	r2,zero,180730 <adv7513_edid_read+0x64>
			return -1;
  180728:	00bfffc4 	movi	r2,-1
  18072c:	00000e06 	br	180768 <adv7513_edid_read+0x9c>
		}

		if(i2c_xtn_read(ec->edid_addr,adv7513_i2c_bffr.byte_arry,1,1,1))	{
  180730:	91000103 	ldbu	r4,4(r18)
  180734:	01800044 	movi	r6,1
  180738:	dd400015 	stw	r21,0(sp)
  18073c:	d1670084 	addi	r5,gp,-25598
  180740:	300f883a 	mov	r7,r6
  180744:	01876e00 	call	1876e0 <i2c_xtn_read>
  180748:	103ff71e 	bne	r2,zero,180728 <__alt_data_end+0xfff80728>
			return -1;
		}

		*regv = adv7513_i2c_bffr.byte_arry[0];
  18074c:	d0e70083 	ldbu	r3,-25598(gp)
  180750:	8445c83a 	sub	r2,r16,r17
  180754:	a085883a 	add	r2,r20,r2
  180758:	10c00005 	stb	r3,0(r2)
int adv7513_edid_read(struct hdmi_encoder *ec, void *edid, int segment)
{
	alt_u8 *regv = (alt_u8 *)edid;
	int i;

	for (i = 0 + segment * 256; i < (segment + 1) * 256; ++i, ++regv) {
  18075c:	84000044 	addi	r16,r16,1
  180760:	003fe806 	br	180704 <__alt_data_end+0xfff80704>

		*regv = adv7513_i2c_bffr.byte_arry[0];

	}

	return 0;
  180764:	0005883a 	mov	r2,zero
}
  180768:	dfc00717 	ldw	ra,28(sp)
  18076c:	dd400617 	ldw	r21,24(sp)
  180770:	dd000517 	ldw	r20,20(sp)
  180774:	dcc00417 	ldw	r19,16(sp)
  180778:	dc800317 	ldw	r18,12(sp)
  18077c:	dc400217 	ldw	r17,8(sp)
  180780:	dc000117 	ldw	r16,4(sp)
  180784:	dec00804 	addi	sp,sp,32
  180788:	f800283a 	ret

0018078c <adv7513_regmap_dump>:

int adv7513_regmap_dump(struct hdmi_encoder *ec, void *data, int offset)
{
  18078c:	defff904 	addi	sp,sp,-28
  180790:	dd000515 	stw	r20,20(sp)
  180794:	dcc00415 	stw	r19,16(sp)
  180798:	dc800315 	stw	r18,12(sp)
  18079c:	dc400215 	stw	r17,8(sp)
  1807a0:	dc000115 	stw	r16,4(sp)
  1807a4:	dfc00615 	stw	ra,24(sp)
  1807a8:	2023883a 	mov	r17,r4
  1807ac:	2827883a 	mov	r19,r5
	alt_u8 *regv = (alt_u8 *)data;
	int i;

	for (i = 0; i < 256; ++i, ++regv) {
  1807b0:	0021883a 	mov	r16,zero
		adv7513_i2c_bffr.byte_arry[0] = i & 0xff;

		if(i2c_xtn_write(ec->slave_addr,adv7513_i2c_bffr.byte_arry,1,1,0))	{
  1807b4:	05000044 	movi	r20,1
int adv7513_regmap_dump(struct hdmi_encoder *ec, void *data, int offset)
{
	alt_u8 *regv = (alt_u8 *)data;
	int i;

	for (i = 0; i < 256; ++i, ++regv) {
  1807b8:	04804004 	movi	r18,256
		adv7513_i2c_bffr.byte_arry[0] = i & 0xff;
  1807bc:	d4270085 	stb	r16,-25598(gp)

		if(i2c_xtn_write(ec->slave_addr,adv7513_i2c_bffr.byte_arry,1,1,0))	{
  1807c0:	89000003 	ldbu	r4,0(r17)
  1807c4:	01800044 	movi	r6,1
  1807c8:	d8000015 	stw	zero,0(sp)
  1807cc:	d1670084 	addi	r5,gp,-25598
  1807d0:	300f883a 	mov	r7,r6
  1807d4:	01875f80 	call	1875f8 <i2c_xtn_write>
  1807d8:	10000226 	beq	r2,zero,1807e4 <adv7513_regmap_dump+0x58>
			return -1;
  1807dc:	00bfffc4 	movi	r2,-1
  1807e0:	00000d06 	br	180818 <adv7513_regmap_dump+0x8c>
		}

		if(i2c_xtn_read(ec->slave_addr,adv7513_i2c_bffr.byte_arry,1,1,1))	{
  1807e4:	89000003 	ldbu	r4,0(r17)
  1807e8:	01800044 	movi	r6,1
  1807ec:	dd000015 	stw	r20,0(sp)
  1807f0:	d1670084 	addi	r5,gp,-25598
  1807f4:	300f883a 	mov	r7,r6
  1807f8:	01876e00 	call	1876e0 <i2c_xtn_read>
  1807fc:	103ff71e 	bne	r2,zero,1807dc <__alt_data_end+0xfff807dc>
			return -1;
		}

		*regv = adv7513_i2c_bffr.byte_arry[0];
  180800:	d0e70083 	ldbu	r3,-25598(gp)
  180804:	9c05883a 	add	r2,r19,r16
int adv7513_regmap_dump(struct hdmi_encoder *ec, void *data, int offset)
{
	alt_u8 *regv = (alt_u8 *)data;
	int i;

	for (i = 0; i < 256; ++i, ++regv) {
  180808:	84000044 	addi	r16,r16,1

		if(i2c_xtn_read(ec->slave_addr,adv7513_i2c_bffr.byte_arry,1,1,1))	{
			return -1;
		}

		*regv = adv7513_i2c_bffr.byte_arry[0];
  18080c:	10c00005 	stb	r3,0(r2)
int adv7513_regmap_dump(struct hdmi_encoder *ec, void *data, int offset)
{
	alt_u8 *regv = (alt_u8 *)data;
	int i;

	for (i = 0; i < 256; ++i, ++regv) {
  180810:	84bfea1e 	bne	r16,r18,1807bc <__alt_data_end+0xfff807bc>

		*regv = adv7513_i2c_bffr.byte_arry[0];

	}

	return 0;
  180814:	0005883a 	mov	r2,zero
}
  180818:	dfc00617 	ldw	ra,24(sp)
  18081c:	dd000517 	ldw	r20,20(sp)
  180820:	dcc00417 	ldw	r19,16(sp)
  180824:	dc800317 	ldw	r18,12(sp)
  180828:	dc400217 	ldw	r17,8(sp)
  18082c:	dc000117 	ldw	r16,4(sp)
  180830:	dec00704 	addi	sp,sp,28
  180834:	f800283a 	ret

00180838 <adv7513_chip_init>:
	return 0;
}
#endif

int adv7513_chip_init(struct hdmi_encoder *ec, int dvi)
{
  180838:	defffd04 	addi	sp,sp,-12
  18083c:	dc400115 	stw	r17,4(sp)
	int regv;

	//printf("adv7513_video_in_format()\n");

	// 0x15[3:0] <- id
	if (reg_update_bits(ec, 0x15, 0x0f, id) != 0)
  180840:	018003c4 	movi	r6,15
	return 0;
}
#endif

int adv7513_chip_init(struct hdmi_encoder *ec, int dvi)
{
  180844:	2823883a 	mov	r17,r5
	int regv;

	//printf("adv7513_video_in_format()\n");

	// 0x15[3:0] <- id
	if (reg_update_bits(ec, 0x15, 0x0f, id) != 0)
  180848:	000f883a 	mov	r7,zero
  18084c:	01400544 	movi	r5,21
	return 0;
}
#endif

int adv7513_chip_init(struct hdmi_encoder *ec, int dvi)
{
  180850:	dc000015 	stw	r16,0(sp)
  180854:	dfc00215 	stw	ra,8(sp)
  180858:	2021883a 	mov	r16,r4
	int regv;

	//printf("adv7513_video_in_format()\n");

	// 0x15[3:0] <- id
	if (reg_update_bits(ec, 0x15, 0x0f, id) != 0)
  18085c:	01865bc0 	call	1865bc <reg_update_bits>
  180860:	10002c1e 	bne	r2,zero,180914 <adv7513_chip_init+0xdc>

	// 0x16[5:4] <- depth
	// 0x16[3:2] <- style
	// 0x16[0] <- color_space
	regv = ((depth & 0x03) << 4) | ((style & 0x03) << 2) | (color_space & 0x01);
	if (reg_update_bits(ec, 0x16, 0x3d, regv) != 0)
  180864:	8009883a 	mov	r4,r16
  180868:	01400584 	movi	r5,22
  18086c:	01800f44 	movi	r6,61
  180870:	01c00c04 	movi	r7,48
  180874:	01865bc0 	call	1865bc <reg_update_bits>
  180878:	1000261e 	bne	r2,zero,180914 <adv7513_chip_init+0xdc>
		return -1;

	// 0x17[1] <- aspect
	if (reg_update_bits(ec, 0x17, 0x02, (aspect & 0x01) << 1) != 0)
  18087c:	8009883a 	mov	r4,r16
  180880:	014005c4 	movi	r5,23
  180884:	01800084 	movi	r6,2
  180888:	000f883a 	mov	r7,zero
  18088c:	01865bc0 	call	1865bc <reg_update_bits>
  180890:	1000201e 	bne	r2,zero,180914 <adv7513_chip_init+0xdc>
	// 0x15 0x16 0x17
	if (adv7513_video_in_format(ec, ADV7513_INPUT_ID_24BIT_RGB444_YCBCR444, ADV7513_INPUT_COLOR_DEPTH_8BIT, ADV7513_INPUT_COLOR_SPACE_RGB, ADV7513_INPUT_ASPECT_4V3, ADV7513_INPUT_INVALID) != 0)
		return -1;

	// 0x16 0x18 0xaf 0x40 0x4c 0x3c
	if (dvi != 0) {
  180894:	88002326 	beq	r17,zero,180924 <adv7513_chip_init+0xec>
		if (adv7513_video_out_format(ec, ADV7513_OUTPUT_444, ADV7513_MODE_DVI) != 0)
  180898:	8009883a 	mov	r4,r16
  18089c:	000b883a 	mov	r5,zero
  1808a0:	01802ec0 	call	1802ec <adv7513_video_out_format.constprop.4>
  1808a4:	1000921e 	bne	r2,zero,180af0 <adv7513_chip_init+0x2b8>
	int regv;

	//printf("adv7513_avi_infoframe()\n");

#if 1  // local development defaults
	avi->scan_info = 2;  		// scan
  1808a8:	00800084 	movi	r2,2
  1808ac:	80800915 	stw	r2,36(r16)
	avi->rgb_ycbcr = 0;			// rgb or ycbcr
	//avi->f7 = 0;				// reserved
	avi->active_fmt = 1;		// active format r3r0 valid
	avi->active_fmt_ar = 8;		// active format aspect ratio
  1808b0:	00c00204 	movi	r3,8

#if 1  // local development defaults
	avi->scan_info = 2;  		// scan
	avi->rgb_ycbcr = 0;			// rgb or ycbcr
	//avi->f7 = 0;				// reserved
	avi->active_fmt = 1;		// active format r3r0 valid
  1808b4:	00800044 	movi	r2,1
	//   0x55[6:5]
	//   0x56[5:4]

	// 0x44[4] avi infoframe enable 0)disable 1)enable
	// 0x44[3] audio infoframe enable 0)disable 1)enable
	if (reg_update_bits(ec, 0x44, 0x10, 1 << 4) != 0)
  1808b8:	01800404 	movi	r6,16

	//printf("adv7513_avi_infoframe()\n");

#if 1  // local development defaults
	avi->scan_info = 2;  		// scan
	avi->rgb_ycbcr = 0;			// rgb or ycbcr
  1808bc:	80000c15 	stw	zero,48(r16)
	//avi->f7 = 0;				// reserved
	avi->active_fmt = 1;		// active format r3r0 valid
  1808c0:	80800b15 	stw	r2,44(r16)
	avi->active_fmt_ar = 8;		// active format aspect ratio
  1808c4:	80c00d15 	stw	r3,52(r16)
	avi->pict_ar = 1;			// picture aspect ratio
  1808c8:	80800e15 	stw	r2,56(r16)
	avi->colorimetry = 0;		// colorimetry
  1808cc:	80000f15 	stw	zero,60(r16)
	avi->colorimetry_ext = 0;	// extended colorimetry
  1808d0:	80001215 	stw	zero,72(r16)
	avi->scaling = 0;			// non-uniform scaling
  1808d4:	80001015 	stw	zero,64(r16)
	avi->quant = 0;				// rgb quantization range
  1808d8:	80001115 	stw	zero,68(r16)
	avi->itc = 0;				// it content
  1808dc:	80001315 	stw	zero,76(r16)
	avi->pr = 0;				// pixel repetition factor
  1808e0:	80001515 	stw	zero,84(r16)
	avi->vic = 1;				// video identification code
  1808e4:	80801415 	stw	r2,80(r16)
	avi->yq1yq0 = 0;			// ??
  1808e8:	80001615 	stw	zero,88(r16)

	avi->bar_info = 1;  		// bar fields valid
  1808ec:	80800a15 	stw	r2,40(r16)
	avi->bar.top_e = 0;
  1808f0:	80001715 	stw	zero,92(r16)
	avi->bar.bottom_s = 0;
  1808f4:	80001815 	stw	zero,96(r16)
	avi->bar.left_e = 0;
  1808f8:	80001915 	stw	zero,100(r16)
	avi->bar.right_s = 0;
  1808fc:	80001a15 	stw	zero,104(r16)
	//   0x55[6:5]
	//   0x56[5:4]

	// 0x44[4] avi infoframe enable 0)disable 1)enable
	// 0x44[3] audio infoframe enable 0)disable 1)enable
	if (reg_update_bits(ec, 0x44, 0x10, 1 << 4) != 0)
  180900:	8009883a 	mov	r4,r16
  180904:	01401104 	movi	r5,68
  180908:	300f883a 	mov	r7,r6
  18090c:	01865bc0 	call	1865bc <reg_update_bits>
  180910:	10000726 	beq	r2,zero,180930 <adv7513_chip_init+0xf8>
	//		return -1;
	//}

	// 0x15 0x16 0x17
	if (adv7513_video_in_format(ec, ADV7513_INPUT_ID_24BIT_RGB444_YCBCR444, ADV7513_INPUT_COLOR_DEPTH_8BIT, ADV7513_INPUT_COLOR_SPACE_RGB, ADV7513_INPUT_ASPECT_4V3, ADV7513_INPUT_INVALID) != 0)
		return -1;
  180914:	00bfffc4 	movi	r2,-1
}
#endif

int adv7513_chip_init(struct hdmi_encoder *ec, int dvi)
{
	if (adv7513_video_init(ec, dvi) != 0)
  180918:	1004c03a 	cmpne	r2,r2,zero
  18091c:	0085c83a 	sub	r2,zero,r2
  180920:	00007406 	br	180af4 <adv7513_chip_init+0x2bc>
	// 0x16 0x18 0xaf 0x40 0x4c 0x3c
	if (dvi != 0) {
		if (adv7513_video_out_format(ec, ADV7513_OUTPUT_444, ADV7513_MODE_DVI) != 0)
			return -1;
	} else {
		if (adv7513_video_out_format(ec, ADV7513_OUTPUT_444, ADV7513_MODE_HDMI) != 0)
  180924:	8009883a 	mov	r4,r16
  180928:	01400044 	movi	r5,1
  18092c:	003fdc06 	br	1808a0 <__alt_data_end+0xfff808a0>

	// 0x4a[7] <- auto checksum
	// 0x4a[6] avi infoframe packet update 0)locked-by-packet_buffer 1)locked-by-i2c
	// 0x4a[5] audio infoframe packet update 0)locked-by-packet_buffer 1)locked-by-i2c
	// 0x4a[4] gc packet update 0)locked-by-packet_buffer 1)locked-by-i2c
	if (reg_update_bits(ec, 0x4a, 0xc0, 3 << 6) != 0)
  180930:	01803004 	movi	r6,192
  180934:	8009883a 	mov	r4,r16
  180938:	01401284 	movi	r5,74
  18093c:	300f883a 	mov	r7,r6
  180940:	01865bc0 	call	1865bc <reg_update_bits>
  180944:	103ff31e 	bne	r2,zero,180914 <__alt_data_end+0xfff80914>

	// 0x55[6:5] <- output format 0)rgb 1)ycbcr422 2)ycbcr444
	// 0x55[4]   <- active format indicator 0)no-data 1)valid (bar, scan, colorimetry, non-uniform-scaling, active-aspect-ratio)
	// 0x55[3:2] <- bar 0)invalid-bar 1)vertical 2)horizontal 3)both
	// 0x55[1:0] <- scan 0)no-data 1)tv 2)pc 3)none
	regv = ((avi->rgb_ycbcr & 0x03) << 5) | ((avi->active_fmt & 0x01) << 4) | ((avi->bar_info & 0x03) << 2) | ((avi->scan_info & 0x03) << 0);
  180948:	80800c17 	ldw	r2,48(r16)
	if (reg_update_bits(ec, 0x55, 0x70, regv) != 0)
  18094c:	8009883a 	mov	r4,r16
  180950:	01401544 	movi	r5,85

	// 0x55[6:5] <- output format 0)rgb 1)ycbcr422 2)ycbcr444
	// 0x55[4]   <- active format indicator 0)no-data 1)valid (bar, scan, colorimetry, non-uniform-scaling, active-aspect-ratio)
	// 0x55[3:2] <- bar 0)invalid-bar 1)vertical 2)horizontal 3)both
	// 0x55[1:0] <- scan 0)no-data 1)tv 2)pc 3)none
	regv = ((avi->rgb_ycbcr & 0x03) << 5) | ((avi->active_fmt & 0x01) << 4) | ((avi->bar_info & 0x03) << 2) | ((avi->scan_info & 0x03) << 0);
  180954:	108000cc 	andi	r2,r2,3
  180958:	100e917a 	slli	r7,r2,5
  18095c:	80800b17 	ldw	r2,44(r16)
	if (reg_update_bits(ec, 0x55, 0x70, regv) != 0)
  180960:	01801c04 	movi	r6,112

	// 0x55[6:5] <- output format 0)rgb 1)ycbcr422 2)ycbcr444
	// 0x55[4]   <- active format indicator 0)no-data 1)valid (bar, scan, colorimetry, non-uniform-scaling, active-aspect-ratio)
	// 0x55[3:2] <- bar 0)invalid-bar 1)vertical 2)horizontal 3)both
	// 0x55[1:0] <- scan 0)no-data 1)tv 2)pc 3)none
	regv = ((avi->rgb_ycbcr & 0x03) << 5) | ((avi->active_fmt & 0x01) << 4) | ((avi->bar_info & 0x03) << 2) | ((avi->scan_info & 0x03) << 0);
  180964:	1080004c 	andi	r2,r2,1
  180968:	1004913a 	slli	r2,r2,4
  18096c:	3884b03a 	or	r2,r7,r2
  180970:	81c00917 	ldw	r7,36(r16)
  180974:	39c000cc 	andi	r7,r7,3
  180978:	11ceb03a 	or	r7,r2,r7
  18097c:	80800a17 	ldw	r2,40(r16)
  180980:	108000cc 	andi	r2,r2,3
  180984:	1085883a 	add	r2,r2,r2
  180988:	1085883a 	add	r2,r2,r2
	if (reg_update_bits(ec, 0x55, 0x70, regv) != 0)
  18098c:	388eb03a 	or	r7,r7,r2
  180990:	01865bc0 	call	1865bc <reg_update_bits>
  180994:	103fdf1e 	bne	r2,zero,180914 <__alt_data_end+0xfff80914>
		return -1;

	// 0x56[7:6] <- colorimetry 0)no-data 1)ITU601 2)ITU709 3)extended <- 0x57[6:4]
	// 0x56[5:4] <- picture aspect ratio 0)no-data 1)4:3 2)16:9 3)none
	// 0x56[3:0] <- active aspect ratio 8)same as 0x56[5:4] 9)4:3 10)16:0 11)14:9
	regv = ((avi->colorimetry & 0x03) << 6) | ((avi->pict_ar & 0x03) << 4) | ((avi->active_fmt_ar & 0x0f) << 0);
  180998:	81800f17 	ldw	r6,60(r16)
  18099c:	80800e17 	ldw	r2,56(r16)
	if (reg_write(ec, 0x56, regv) != 0)
  1809a0:	8009883a 	mov	r4,r16
		return -1;

	// 0x56[7:6] <- colorimetry 0)no-data 1)ITU601 2)ITU709 3)extended <- 0x57[6:4]
	// 0x56[5:4] <- picture aspect ratio 0)no-data 1)4:3 2)16:9 3)none
	// 0x56[3:0] <- active aspect ratio 8)same as 0x56[5:4] 9)4:3 10)16:0 11)14:9
	regv = ((avi->colorimetry & 0x03) << 6) | ((avi->pict_ar & 0x03) << 4) | ((avi->active_fmt_ar & 0x0f) << 0);
  1809a4:	300c91ba 	slli	r6,r6,6
  1809a8:	108000cc 	andi	r2,r2,3
  1809ac:	1004913a 	slli	r2,r2,4
  1809b0:	31803fcc 	andi	r6,r6,255
	if (reg_write(ec, 0x56, regv) != 0)
  1809b4:	01401584 	movi	r5,86
		return -1;

	// 0x56[7:6] <- colorimetry 0)no-data 1)ITU601 2)ITU709 3)extended <- 0x57[6:4]
	// 0x56[5:4] <- picture aspect ratio 0)no-data 1)4:3 2)16:9 3)none
	// 0x56[3:0] <- active aspect ratio 8)same as 0x56[5:4] 9)4:3 10)16:0 11)14:9
	regv = ((avi->colorimetry & 0x03) << 6) | ((avi->pict_ar & 0x03) << 4) | ((avi->active_fmt_ar & 0x0f) << 0);
  1809b8:	3084b03a 	or	r2,r6,r2
  1809bc:	81800d17 	ldw	r6,52(r16)
  1809c0:	318003cc 	andi	r6,r6,15
	if (reg_write(ec, 0x56, regv) != 0)
  1809c4:	118cb03a 	or	r6,r2,r6
  1809c8:	01865780 	call	186578 <reg_write>
  1809cc:	103fd11e 	bne	r2,zero,180914 <__alt_data_end+0xfff80914>

	// 0x57[7] <- itc 0)none 1)available in 0x59[5:4]
	// 0x57[6:4] <- extended colorimetry 0)xvYCC601 1)xvYCC701 2)sYCC601 3)AdobeYCC601 4)AdobeRGB
	// 0x57[3:2] <- rgb quantization range 0)default 1)limited 2)full 11)reserved
	// 0x57[1:0] <- non-uniform picture scaling 0)unknown 1)h-scaling 2) v-scaling 3)h/v scaling
	regv = ((avi->itc & 0x01) << 7) | ((avi->colorimetry_ext & 0x07) << 4) | ((avi->quant & 0x03) << 2) | ((avi->scaling & 0x03) << 0);
  1809d0:	80801317 	ldw	r2,76(r16)
	if (reg_write(ec, 0x57, regv) != 0)
  1809d4:	8009883a 	mov	r4,r16
  1809d8:	014015c4 	movi	r5,87

	// 0x57[7] <- itc 0)none 1)available in 0x59[5:4]
	// 0x57[6:4] <- extended colorimetry 0)xvYCC601 1)xvYCC701 2)sYCC601 3)AdobeYCC601 4)AdobeRGB
	// 0x57[3:2] <- rgb quantization range 0)default 1)limited 2)full 11)reserved
	// 0x57[1:0] <- non-uniform picture scaling 0)unknown 1)h-scaling 2) v-scaling 3)h/v scaling
	regv = ((avi->itc & 0x01) << 7) | ((avi->colorimetry_ext & 0x07) << 4) | ((avi->quant & 0x03) << 2) | ((avi->scaling & 0x03) << 0);
  1809dc:	100491fa 	slli	r2,r2,7
  1809e0:	11803fcc 	andi	r6,r2,255
  1809e4:	80801217 	ldw	r2,72(r16)
  1809e8:	108001cc 	andi	r2,r2,7
  1809ec:	1004913a 	slli	r2,r2,4
  1809f0:	3084b03a 	or	r2,r6,r2
  1809f4:	81801017 	ldw	r6,64(r16)
  1809f8:	318000cc 	andi	r6,r6,3
  1809fc:	118cb03a 	or	r6,r2,r6
  180a00:	80801117 	ldw	r2,68(r16)
  180a04:	108000cc 	andi	r2,r2,3
  180a08:	1085883a 	add	r2,r2,r2
  180a0c:	1085883a 	add	r2,r2,r2
	if (reg_write(ec, 0x57, regv) != 0)
  180a10:	308cb03a 	or	r6,r6,r2
  180a14:	01865780 	call	186578 <reg_write>
  180a18:	103fbe1e 	bne	r2,zero,180914 <__alt_data_end+0xfff80914>
		return -1;

	// 0x59[7:4] <- extended colorimetry 0)xvYCC601 1)xvYCC701 2)sYCC601 3)AdobeYCC601 4)AdobeRGB
	regv = ((avi->yq1yq0 & 0x0f) << 4);
  180a1c:	81801617 	ldw	r6,88(r16)
	if (reg_write(ec, 0x59, regv) != 0)
  180a20:	8009883a 	mov	r4,r16
  180a24:	01401644 	movi	r5,89
	regv = ((avi->itc & 0x01) << 7) | ((avi->colorimetry_ext & 0x07) << 4) | ((avi->quant & 0x03) << 2) | ((avi->scaling & 0x03) << 0);
	if (reg_write(ec, 0x57, regv) != 0)
		return -1;

	// 0x59[7:4] <- extended colorimetry 0)xvYCC601 1)xvYCC701 2)sYCC601 3)AdobeYCC601 4)AdobeRGB
	regv = ((avi->yq1yq0 & 0x0f) << 4);
  180a28:	300c913a 	slli	r6,r6,4
	if (reg_write(ec, 0x59, regv) != 0)
  180a2c:	31803c0c 	andi	r6,r6,240
  180a30:	01865780 	call	186578 <reg_write>
  180a34:	103fb71e 	bne	r2,zero,180914 <__alt_data_end+0xfff80914>
		return -1;

	// 0x5a[7:0] <- active line (bar)
	regv = avi->bar.top_e & 0xff;
	if (reg_write(ec, 0x5a, regv) != 0)
  180a38:	81801703 	ldbu	r6,92(r16)
  180a3c:	8009883a 	mov	r4,r16
  180a40:	01401684 	movi	r5,90
  180a44:	01865780 	call	186578 <reg_write>
  180a48:	103fb21e 	bne	r2,zero,180914 <__alt_data_end+0xfff80914>
		return -1;

	// 0x5b[7:0] <- active line (bar)
	regv = (avi->bar.top_e >> 8) & 0xff;
	if (reg_write(ec, 0x5b, regv) != 0)
  180a4c:	81801743 	ldbu	r6,93(r16)
  180a50:	8009883a 	mov	r4,r16
  180a54:	014016c4 	movi	r5,91
  180a58:	01865780 	call	186578 <reg_write>
  180a5c:	103fad1e 	bne	r2,zero,180914 <__alt_data_end+0xfff80914>
		return -1;

	// 0x5c[7:0] <- active line (bar)
	regv = avi->bar.bottom_s & 0xff;
	if (reg_write(ec, 0x5c, regv) != 0)
  180a60:	81801803 	ldbu	r6,96(r16)
  180a64:	8009883a 	mov	r4,r16
  180a68:	01401704 	movi	r5,92
  180a6c:	01865780 	call	186578 <reg_write>
  180a70:	103fa81e 	bne	r2,zero,180914 <__alt_data_end+0xfff80914>
		return -1;

	// 0x5d[7:0] <- active line (bar)
	regv = (avi->bar.bottom_s >> 8) & 0xff;
	if (reg_write(ec, 0x5d, regv) != 0)
  180a74:	81801843 	ldbu	r6,97(r16)
  180a78:	8009883a 	mov	r4,r16
  180a7c:	01401744 	movi	r5,93
  180a80:	01865780 	call	186578 <reg_write>
  180a84:	103fa31e 	bne	r2,zero,180914 <__alt_data_end+0xfff80914>
		return -1;

	// 0x5e[7:0] <- active line (bar)
	regv = avi->bar.left_e & 0xff;
	if (reg_write(ec, 0x5e, regv) != 0)
  180a88:	81801903 	ldbu	r6,100(r16)
  180a8c:	8009883a 	mov	r4,r16
  180a90:	01401784 	movi	r5,94
  180a94:	01865780 	call	186578 <reg_write>
  180a98:	103f9e1e 	bne	r2,zero,180914 <__alt_data_end+0xfff80914>
		return -1;

	// 0x5f[7:0] <- active line (bar)
	regv = (avi->bar.left_e >> 8) & 0xff;
	if (reg_write(ec, 0x5f, regv) != 0)
  180a9c:	81801943 	ldbu	r6,101(r16)
  180aa0:	8009883a 	mov	r4,r16
  180aa4:	014017c4 	movi	r5,95
  180aa8:	01865780 	call	186578 <reg_write>
  180aac:	103f991e 	bne	r2,zero,180914 <__alt_data_end+0xfff80914>
		return -1;

	// 0x60[7:0] <- active line (bar)
	regv = avi->bar.right_s & 0xff;
	if (reg_write(ec, 0x60, regv) != 0)
  180ab0:	81801a03 	ldbu	r6,104(r16)
  180ab4:	8009883a 	mov	r4,r16
  180ab8:	01401804 	movi	r5,96
  180abc:	01865780 	call	186578 <reg_write>
  180ac0:	103f941e 	bne	r2,zero,180914 <__alt_data_end+0xfff80914>
		return -1;

	// 0x61[7:0] <- active line (bar)
	regv = (avi->bar.right_s >> 8) & 0xff;
	if (reg_write(ec, 0x61, regv) != 0)
  180ac4:	81801a43 	ldbu	r6,105(r16)
  180ac8:	8009883a 	mov	r4,r16
  180acc:	01401844 	movi	r5,97
  180ad0:	01865780 	call	186578 <reg_write>
  180ad4:	103f8f1e 	bne	r2,zero,180914 <__alt_data_end+0xfff80914>

	// 0x4a[7] <- auto checksum
	// 0x4a[6] avi infoframe packet update 0)locked-by-packet_buffer 1)locked-by-i2c
	// 0x4a[5] audio infoframe packet update 0)locked-by-packet_buffer 1)locked-by-i2c
	// 0x4a[4] gc packet update 0)locked-by-packet_buffer 1)locked-by-i2c
	if (reg_clear_bits(ec, 0x4a, 0x40) != 0)
  180ad8:	8009883a 	mov	r4,r16
  180adc:	01401284 	movi	r5,74
  180ae0:	01801004 	movi	r6,64
  180ae4:	01866bc0 	call	1866bc <reg_clear_bits>
  180ae8:	103f8b26 	beq	r2,zero,180918 <__alt_data_end+0xfff80918>
  180aec:	003f8906 	br	180914 <__alt_data_end+0xfff80914>
#endif

int adv7513_chip_init(struct hdmi_encoder *ec, int dvi)
{
	if (adv7513_video_init(ec, dvi) != 0)
		return -1;
  180af0:	00bfffc4 	movi	r2,-1

	//if (adv7513_audio_init(ec) != 0)
	//	return -1;

	return 0;
}
  180af4:	dfc00217 	ldw	ra,8(sp)
  180af8:	dc400117 	ldw	r17,4(sp)
  180afc:	dc000017 	ldw	r16,0(sp)
  180b00:	dec00304 	addi	sp,sp,12
  180b04:	f800283a 	ret

00180b08 <adv7513_int_handler>:

// WARNING: for simplicity, we use potentially cpu-blocking codes in this ISR ...
//  - use printf() (normally you should not)
//  - cope with hot-plug tasks (usually it should be deferred to application level rather than in interrupt level)
void adv7513_int_handler(void *context)
{
  180b08:	deffb404 	addi	sp,sp,-304
	struct adv7513_int_mask int_mask;
	struct adv7513_int_status int_status;
	int r;

	// get system irq status
	irq_status = GET_HDMI_IRQ_STATUS;
  180b0c:	00800834 	movhi	r2,32

// WARNING: for simplicity, we use potentially cpu-blocking codes in this ISR ...
//  - use printf() (normally you should not)
//  - cope with hot-plug tasks (usually it should be deferred to application level rather than in interrupt level)
void adv7513_int_handler(void *context)
{
  180b10:	dc004515 	stw	r16,276(sp)
	struct adv7513_int_mask int_mask;
	struct adv7513_int_status int_status;
	int r;

	// get system irq status
	irq_status = GET_HDMI_IRQ_STATUS;
  180b14:	10841304 	addi	r2,r2,4172

// WARNING: for simplicity, we use potentially cpu-blocking codes in this ISR ...
//  - use printf() (normally you should not)
//  - cope with hot-plug tasks (usually it should be deferred to application level rather than in interrupt level)
void adv7513_int_handler(void *context)
{
  180b18:	2021883a 	mov	r16,r4
  180b1c:	dfc04b15 	stw	ra,300(sp)
  180b20:	dd404a15 	stw	r21,296(sp)
  180b24:	dd004915 	stw	r20,292(sp)
  180b28:	dcc04815 	stw	r19,288(sp)
  180b2c:	dc804715 	stw	r18,284(sp)
  180b30:	dc404615 	stw	r17,280(sp)
	struct adv7513_int_mask int_mask;
	struct adv7513_int_status int_status;
	int r;

	// get system irq status
	irq_status = GET_HDMI_IRQ_STATUS;
  180b34:	10c00037 	ldwio	r3,0(r2)
	//if (irq_status == 0)
	//	return;

	// clear system irq flag
	CLEAR_HDMI_IRQ_FLAG;
  180b38:	10000035 	stwio	zero,0(r2)

	// reload adv7513 int mask value
	adv7513_long_to_int_mask(&int_mask, ec->int_mask);

	// get adv7513 int status
	r = reg_read(ec, 0x93, &regv);
  180b3c:	014024c4 	movi	r5,147
  180b40:	d9804404 	addi	r6,sp,272

	// clear system irq flag
	CLEAR_HDMI_IRQ_FLAG;

	// reload adv7513 int mask value
	adv7513_long_to_int_mask(&int_mask, ec->int_mask);
  180b44:	24400617 	ldw	r17,24(r4)

	// get adv7513 int status
	r = reg_read(ec, 0x93, &regv);
  180b48:	01864f00 	call	1864f0 <reg_read>
	if (r != 0)
  180b4c:	1000761e 	bne	r2,zero,180d28 <adv7513_int_handler+0x220>
		return;
	int_status.reg93 = regv;

	r = reg_read(ec, 0x96, &regv);
  180b50:	8009883a 	mov	r4,r16
  180b54:	01402584 	movi	r5,150
  180b58:	d9804404 	addi	r6,sp,272

	// get adv7513 int status
	r = reg_read(ec, 0x93, &regv);
	if (r != 0)
		return;
	int_status.reg93 = regv;
  180b5c:	dd004403 	ldbu	r20,272(sp)

	r = reg_read(ec, 0x96, &regv);
  180b60:	01864f00 	call	1864f0 <reg_read>
	if (r != 0)
  180b64:	1000701e 	bne	r2,zero,180d28 <adv7513_int_handler+0x220>
		return;
	int_status.reg96 = regv;

	r = reg_read(ec, 0x97, &regv);
  180b68:	8009883a 	mov	r4,r16
  180b6c:	014025c4 	movi	r5,151
  180b70:	d9804404 	addi	r6,sp,272
	int_status.reg93 = regv;

	r = reg_read(ec, 0x96, &regv);
	if (r != 0)
		return;
	int_status.reg96 = regv;
  180b74:	dc804403 	ldbu	r18,272(sp)

	r = reg_read(ec, 0x97, &regv);
  180b78:	01864f00 	call	1864f0 <reg_read>
	if (r != 0)
  180b7c:	10006a1e 	bne	r2,zero,180d28 <adv7513_int_handler+0x220>
		return;
	int_status.reg97 = regv;

	// disable adv7513 int
	reg_write(ec, 0x92, 0);
  180b80:	8009883a 	mov	r4,r16
  180b84:	01402484 	movi	r5,146
  180b88:	000d883a 	mov	r6,zero
	int_status.reg96 = regv;

	r = reg_read(ec, 0x97, &regv);
	if (r != 0)
		return;
	int_status.reg97 = regv;
  180b8c:	dcc04403 	ldbu	r19,272(sp)

	// disable adv7513 int
	reg_write(ec, 0x92, 0);
  180b90:	01865780 	call	186578 <reg_write>
	reg_write(ec, 0x94, 0);
  180b94:	8009883a 	mov	r4,r16
  180b98:	01402504 	movi	r5,148
  180b9c:	000d883a 	mov	r6,zero
  180ba0:	01865780 	call	186578 <reg_write>
	reg_write(ec, 0x95, 0);
  180ba4:	8009883a 	mov	r4,r16
  180ba8:	01402544 	movi	r5,149
  180bac:	000d883a 	mov	r6,zero

	// clear adv7513 int status
	if (int_status.reg93 != 0) {
  180bb0:	a5003fcc 	andi	r20,r20,255
	int_status.reg97 = regv;

	// disable adv7513 int
	reg_write(ec, 0x92, 0);
	reg_write(ec, 0x94, 0);
	reg_write(ec, 0x95, 0);
  180bb4:	01865780 	call	186578 <reg_write>

	// clear adv7513 int status
	if (int_status.reg93 != 0) {
  180bb8:	a0000426 	beq	r20,zero,180bcc <adv7513_int_handler+0xc4>
		reg_write(ec, 0x93, 0xff);
  180bbc:	8009883a 	mov	r4,r16
  180bc0:	014024c4 	movi	r5,147
  180bc4:	01803fc4 	movi	r6,255
  180bc8:	01865780 	call	186578 <reg_write>
	int_status.reg93 = regv;

	r = reg_read(ec, 0x96, &regv);
	if (r != 0)
		return;
	int_status.reg96 = regv;
  180bcc:	94803fcc 	andi	r18,r18,255
	// clear adv7513 int status
	if (int_status.reg93 != 0) {
		reg_write(ec, 0x93, 0xff);
	}

	if (int_status.reg96 != 0) {
  180bd0:	90000426 	beq	r18,zero,180be4 <adv7513_int_handler+0xdc>
		reg_write(ec, 0x96, 0xff);
  180bd4:	8009883a 	mov	r4,r16
  180bd8:	01402584 	movi	r5,150
  180bdc:	01803fc4 	movi	r6,255
  180be0:	01865780 	call	186578 <reg_write>
	}

	if (int_status.reg97 != 0) {
  180be4:	9cc03fcc 	andi	r19,r19,255
  180be8:	98000426 	beq	r19,zero,180bfc <adv7513_int_handler+0xf4>
		reg_write(ec, 0x97, 0xff);
  180bec:	8009883a 	mov	r4,r16
  180bf0:	014025c4 	movi	r5,151
  180bf4:	01803fc4 	movi	r6,255
  180bf8:	01865780 	call	186578 <reg_write>
	return ((unsigned int)(mask->reg92 << 16) | (mask->reg94 << 8) | mask->reg95);
}

static inline void adv7513_long_to_int_mask(struct adv7513_int_mask *mask, unsigned int long_val)
{
	mask->reg92 = (long_val >> 16) & 0xff;
  180bfc:	8828d43a 	srli	r20,r17,16
	mask->reg94 = (long_val >> 8) & 0xff;
  180c00:	8826d23a 	srli	r19,r17,8

	// -------------------------------------------------------
	// handle adv7513 interrupt events
	// WARNING: this should be an application level task ...
	//
	if (int_status.reg96_bits.monitor_sense || int_status.reg96_bits.hpd) {
  180c04:	9480300c 	andi	r18,r18,192
	return ((unsigned int)(mask->reg92 << 16) | (mask->reg94 << 8) | mask->reg95);
}

static inline void adv7513_long_to_int_mask(struct adv7513_int_mask *mask, unsigned int long_val)
{
	mask->reg92 = (long_val >> 16) & 0xff;
  180c08:	a5003fcc 	andi	r20,r20,255
	mask->reg94 = (long_val >> 8) & 0xff;
  180c0c:	9cc03fcc 	andi	r19,r19,255
	mask->reg95 = long_val & 0xff;
  180c10:	8c403fcc 	andi	r17,r17,255
  180c14:	90003826 	beq	r18,zero,180cf8 <adv7513_int_handler+0x1f0>

		alt_u8 edid[256];
		int dvi_mode = 0;
		int pwr_state = 0;
  180c18:	d8004315 	stw	zero,268(sp)
		int pwron_retry_count = 200;
		int m_sense_retry_count = 30;

		while (m_sense_retry_count-- > 0) {
  180c1c:	048007c4 	movi	r18,31
			r = reg_read(ec, ADV7513_REG_STATUS, &regv);
			if (r != 0)
				goto __unplugged_iret;

			if ((regv & ((ADV7513_STATUS_HPD) | (ADV7513_STATUS_MONITOR_SENSE))) == ((ADV7513_STATUS_HPD) | (ADV7513_STATUS_MONITOR_SENSE)))
  180c20:	05401804 	movi	r21,96
  180c24:	94bfffc4 	addi	r18,r18,-1
		int dvi_mode = 0;
		int pwr_state = 0;
		int pwron_retry_count = 200;
		int m_sense_retry_count = 30;

		while (m_sense_retry_count-- > 0) {
  180c28:	90000826 	beq	r18,zero,180c4c <adv7513_int_handler+0x144>
			r = reg_read(ec, ADV7513_REG_STATUS, &regv);
  180c2c:	8009883a 	mov	r4,r16
  180c30:	01401084 	movi	r5,66
  180c34:	d9804404 	addi	r6,sp,272
  180c38:	01864f00 	call	1864f0 <reg_read>
			if (r != 0)
  180c3c:	10002e1e 	bne	r2,zero,180cf8 <adv7513_int_handler+0x1f0>
				goto __unplugged_iret;

			if ((regv & ((ADV7513_STATUS_HPD) | (ADV7513_STATUS_MONITOR_SENSE))) == ((ADV7513_STATUS_HPD) | (ADV7513_STATUS_MONITOR_SENSE)))
  180c40:	d8804403 	ldbu	r2,272(sp)
  180c44:	1080180c 	andi	r2,r2,96
  180c48:	157ff61e 	bne	r2,r21,180c24 <__alt_data_end+0xfff80c24>
				break;
		}

		if ((regv & ((ADV7513_STATUS_HPD) | (ADV7513_STATUS_MONITOR_SENSE))) != ((ADV7513_STATUS_HPD) | (ADV7513_STATUS_MONITOR_SENSE)))
  180c4c:	d8804403 	ldbu	r2,272(sp)
  180c50:	00c01804 	movi	r3,96
  180c54:	1080180c 	andi	r2,r2,96
  180c58:	10c0271e 	bne	r2,r3,180cf8 <adv7513_int_handler+0x1f0>
			goto __unplugged_iret;

		// now we have both HPD and monitor-sense signal asserted

		// power up the hdmi-encoder ...
		r = adv7513_do_hpd_powerup(ec);
  180c5c:	8009883a 	mov	r4,r16
  180c60:	01804d00 	call	1804d0 <adv7513_do_hpd_powerup>
		if (r != 0)
  180c64:	1000241e 	bne	r2,zero,180cf8 <adv7513_int_handler+0x1f0>
			goto __unplugged_iret;

		// readback edid data
		r = adv7513_edid_read(ec, edid, 0);
  180c68:	8009883a 	mov	r4,r16
  180c6c:	d80b883a 	mov	r5,sp
  180c70:	000d883a 	mov	r6,zero
  180c74:	01806cc0 	call	1806cc <adv7513_edid_read>
		if (r != 0)
			dvi_mode = 1;

		if (edid[0x7e] == 0)
  180c78:	d8c01f83 	ldbu	r3,126(sp)
  180c7c:	18000226 	beq	r3,zero,180c88 <adv7513_int_handler+0x180>
		if (r != 0)
			goto __unplugged_iret;

		// readback edid data
		r = adv7513_edid_read(ec, edid, 0);
		if (r != 0)
  180c80:	1024c03a 	cmpne	r18,r2,zero
  180c84:	00000106 	br	180c8c <adv7513_int_handler+0x184>
			dvi_mode = 1;

		if (edid[0x7e] == 0)
			dvi_mode = 1;
  180c88:	04800044 	movi	r18,1
  180c8c:	05403204 	movi	r21,200

		// configure the hdmi-encoder ...
		while (pwron_retry_count > 0) {
			r = adv7513_chip_init(ec, dvi_mode);
  180c90:	8009883a 	mov	r4,r16
  180c94:	900b883a 	mov	r5,r18
  180c98:	01808380 	call	180838 <adv7513_chip_init>
			if (r != 0)
  180c9c:	1000161e 	bne	r2,zero,180cf8 <adv7513_int_handler+0x1f0>
				goto __unplugged_iret;

			r = adv7513_power_state(ec, &pwr_state);
  180ca0:	8009883a 	mov	r4,r16
  180ca4:	d9404304 	addi	r5,sp,268
  180ca8:	01806100 	call	180610 <adv7513_power_state>
			if (r != 0)
  180cac:	1000121e 	bne	r2,zero,180cf8 <adv7513_int_handler+0x1f0>
				goto __unplugged_iret;

			if (pwr_state != 0)
  180cb0:	d8804317 	ldw	r2,268(sp)
  180cb4:	1000021e 	bne	r2,zero,180cc0 <adv7513_int_handler+0x1b8>
  180cb8:	ad7fffc4 	addi	r21,r21,-1

		if (edid[0x7e] == 0)
			dvi_mode = 1;

		// configure the hdmi-encoder ...
		while (pwron_retry_count > 0) {
  180cbc:	a83ff41e 	bne	r21,zero,180c90 <__alt_data_end+0xfff80c90>
			if (pwr_state != 0)
				break;
			--pwron_retry_count;
		}

		r = adv7513_power_state(ec, &pwr_state);
  180cc0:	8009883a 	mov	r4,r16
  180cc4:	d9404304 	addi	r5,sp,268
  180cc8:	01806100 	call	180610 <adv7513_power_state>
		if (r != 0)
  180ccc:	10000a1e 	bne	r2,zero,180cf8 <adv7513_int_handler+0x1f0>
			goto __unplugged_iret;

		if (pwr_state == 0)
  180cd0:	d8804317 	ldw	r2,268(sp)
  180cd4:	10000826 	beq	r2,zero,180cf8 <adv7513_int_handler+0x1f0>
	return;

__plugged_iret:

	// enable interrupts
	reg_write(ec, 0x92, int_mask.reg92);
  180cd8:	8009883a 	mov	r4,r16
  180cdc:	01402484 	movi	r5,146
  180ce0:	a00d883a 	mov	r6,r20
  180ce4:	01865780 	call	186578 <reg_write>
	reg_write(ec, 0x94, int_mask.reg94 & 0xbf);  // disable sending monitor-sense interrupt since it is already connected
  180ce8:	8009883a 	mov	r4,r16
  180cec:	01402504 	movi	r5,148
  180cf0:	99802fcc 	andi	r6,r19,191
  180cf4:	00000706 	br	180d14 <adv7513_int_handler+0x20c>
	}

__unplugged_iret:

	// enable interrupts
	reg_write(ec, 0x92, int_mask.reg92);
  180cf8:	8009883a 	mov	r4,r16
  180cfc:	01402484 	movi	r5,146
  180d00:	a00d883a 	mov	r6,r20
  180d04:	01865780 	call	186578 <reg_write>
	reg_write(ec, 0x94, int_mask.reg94);
  180d08:	8009883a 	mov	r4,r16
  180d0c:	01402504 	movi	r5,148
  180d10:	980d883a 	mov	r6,r19
  180d14:	01865780 	call	186578 <reg_write>
	reg_write(ec, 0x95, int_mask.reg95);
  180d18:	8009883a 	mov	r4,r16
  180d1c:	01402544 	movi	r5,149
  180d20:	880d883a 	mov	r6,r17
  180d24:	01865780 	call	186578 <reg_write>
	reg_write(ec, 0x92, int_mask.reg92);
	reg_write(ec, 0x94, int_mask.reg94 & 0xbf);  // disable sending monitor-sense interrupt since it is already connected
	reg_write(ec, 0x95, int_mask.reg95);

	return;
}
  180d28:	dfc04b17 	ldw	ra,300(sp)
  180d2c:	dd404a17 	ldw	r21,296(sp)
  180d30:	dd004917 	ldw	r20,292(sp)
  180d34:	dcc04817 	ldw	r19,288(sp)
  180d38:	dc804717 	ldw	r18,284(sp)
  180d3c:	dc404617 	ldw	r17,280(sp)
  180d40:	dc004517 	ldw	r16,276(sp)
  180d44:	dec04c04 	addi	sp,sp,304
  180d48:	f800283a 	ret

00180d4c <adv7513_chip_init_3d>:

	return 0;
}

int adv7513_chip_init_3d(struct hdmi_encoder *ec, int vic)
{
  180d4c:	defff904 	addi	sp,sp,-28
  180d50:	dcc00315 	stw	r19,12(sp)
	int aspect;

	//printf("adv7513_video_in_format_3d()\n");

	// 0x15[3:0] <- id
	if (reg_update_bits(ec, 0x15, 0x0f, id) != 0)
  180d54:	018003c4 	movi	r6,15

	return 0;
}

int adv7513_chip_init_3d(struct hdmi_encoder *ec, int vic)
{
  180d58:	2827883a 	mov	r19,r5
	int aspect;

	//printf("adv7513_video_in_format_3d()\n");

	// 0x15[3:0] <- id
	if (reg_update_bits(ec, 0x15, 0x0f, id) != 0)
  180d5c:	000f883a 	mov	r7,zero
  180d60:	01400544 	movi	r5,21

	return 0;
}

int adv7513_chip_init_3d(struct hdmi_encoder *ec, int vic)
{
  180d64:	dc000015 	stw	r16,0(sp)
  180d68:	dfc00615 	stw	ra,24(sp)
  180d6c:	dd400515 	stw	r21,20(sp)
  180d70:	dd000415 	stw	r20,16(sp)
  180d74:	dc800215 	stw	r18,8(sp)
  180d78:	dc400115 	stw	r17,4(sp)
  180d7c:	2021883a 	mov	r16,r4
	int aspect;

	//printf("adv7513_video_in_format_3d()\n");

	// 0x15[3:0] <- id
	if (reg_update_bits(ec, 0x15, 0x0f, id) != 0)
  180d80:	01865bc0 	call	1865bc <reg_update_bits>
  180d84:	10003f1e 	bne	r2,zero,180e84 <adv7513_chip_init_3d+0x138>

	// 0x16[5:4] <- depth
	// 0x16[3:2] <- style
	// 0x16[0] <- color_space
	regv = ((depth & 0x03) << 4) | ((style & 0x03) << 2) | (color_space & 0x01);
	if (reg_update_bits(ec, 0x16, 0x3d, regv) != 0)
  180d88:	8009883a 	mov	r4,r16
  180d8c:	01400584 	movi	r5,22
  180d90:	01800f44 	movi	r6,61
  180d94:	01c00c04 	movi	r7,48
  180d98:	01865bc0 	call	1865bc <reg_update_bits>
  180d9c:	1000391e 	bne	r2,zero,180e84 <adv7513_chip_init_3d+0x138>
		return -1;

	switch (vic) {
  180da0:	9c7fffc4 	addi	r17,r19,-1
  180da4:	008005c4 	movi	r2,23
  180da8:	14402136 	bltu	r2,r17,180e30 <adv7513_chip_init_3d+0xe4>
  180dac:	880690ba 	slli	r3,r17,2
  180db0:	00800634 	movhi	r2,24
  180db4:	10837104 	addi	r2,r2,3524
  180db8:	1885883a 	add	r2,r3,r2
  180dbc:	10800017 	ldw	r2,0(r2)
  180dc0:	1000683a 	jmp	r2
  180dc4:	00180e2c 	andhi	zero,zero,24632
  180dc8:	00180e2c 	andhi	zero,zero,24632
  180dcc:	00180e24 	muli	zero,zero,24632
  180dd0:	00180e24 	muli	zero,zero,24632
  180dd4:	00180e24 	muli	zero,zero,24632
  180dd8:	00180e2c 	andhi	zero,zero,24632
  180ddc:	00180e24 	muli	zero,zero,24632
  180de0:	00180e2c 	andhi	zero,zero,24632
  180de4:	00180e24 	muli	zero,zero,24632
  180de8:	00180e2c 	andhi	zero,zero,24632
  180dec:	00180e24 	muli	zero,zero,24632
  180df0:	00180e2c 	andhi	zero,zero,24632
  180df4:	00180e24 	muli	zero,zero,24632
  180df8:	00180e2c 	andhi	zero,zero,24632
  180dfc:	00180e24 	muli	zero,zero,24632
  180e00:	00180e24 	muli	zero,zero,24632
  180e04:	00180e2c 	andhi	zero,zero,24632
  180e08:	00180e24 	muli	zero,zero,24632
  180e0c:	00180e24 	muli	zero,zero,24632
  180e10:	00180e24 	muli	zero,zero,24632
  180e14:	00180e2c 	andhi	zero,zero,24632
  180e18:	00180e24 	muli	zero,zero,24632
  180e1c:	00180e2c 	andhi	zero,zero,24632
  180e20:	00180e24 	muli	zero,zero,24632
	case ADV7513_VIC_576p50_16_9:	// 720x576p 50Hz
	case ADV7513_VIC_720p50_16_9:	// 1280x720p 50Hz
	case ADV7513_VIC_1080i50_16_9:	// 1920x1080i 50Hz
	case ADV7513_VIC_576i50x2_16_9:	// 720(1440)x576i 50Hz
	case ADV7513_VIC_288p50x2_16_9:	// 720(1440)x288p 50Hz
		aspect = ADV7513_INPUT_ASPECT_16V9;
  180e24:	05000044 	movi	r20,1
  180e28:	00000106 	br	180e30 <adv7513_chip_init_3d+0xe4>
	case ADV7513_VIC_240p60x8_4_3:	// (2880)x240p 60Hz
	case ADV7513_VIC_480p60x2_4_3:	// 1440x480p 60Hz
	case ADV7513_VIC_576p50_4_3:	// 720x576p 50Hz
	case ADV7513_VIC_576i50x2_4_3:	// 720(1440)x576i 50Hz
	case ADV7513_VIC_288p50x2_4_3:	// 720(1440)x288p 50Hz
		aspect = ADV7513_INPUT_ASPECT_4V3;
  180e2c:	0029883a 	mov	r20,zero
		aspect = ADV7513_INPUT_ASPECT_16V9;
		break;
	}

	// 0x17[1] <- aspect
	if (reg_update_bits(ec, 0x17, 0x02, (aspect & 0x01) << 1) != 0)
  180e30:	054005c4 	movi	r21,23
  180e34:	04800084 	movi	r18,2
  180e38:	8009883a 	mov	r4,r16
  180e3c:	a80b883a 	mov	r5,r21
  180e40:	900d883a 	mov	r6,r18
  180e44:	a50f883a 	add	r7,r20,r20
  180e48:	01865bc0 	call	1865bc <reg_update_bits>
  180e4c:	10001126 	beq	r2,zero,180e94 <adv7513_chip_init_3d+0x148>
  180e50:	00000c06 	br	180e84 <adv7513_chip_init_3d+0x138>
		return -1;
	}

	// 0xaf[7] <- hdcp (enable/disable)
	// 0xaf[1] <- 0)dvi 1)hdmi (section 4.2.2)
	if (reg_update_bits(ec, 0xaf, 0x82, (1 & 0x01) << 1) != 0)
  180e54:	8009883a 	mov	r4,r16
  180e58:	01402bc4 	movi	r5,175
  180e5c:	01802084 	movi	r6,130
  180e60:	900f883a 	mov	r7,r18
  180e64:	01865bc0 	call	1865bc <reg_update_bits>
  180e68:	1000061e 	bne	r2,zero,180e84 <adv7513_chip_init_3d+0x138>
		return -1;

	// general control packet
	// 0x40[7] <- gc (section 4.2.3 && 4.3.3)
	if (reg_update_bits(ec, 0x40, 0x80, (1 & 0x01) << 7) != 0)
  180e6c:	01802004 	movi	r6,128
  180e70:	8009883a 	mov	r4,r16
  180e74:	01401004 	movi	r5,64
  180e78:	300f883a 	mov	r7,r6
  180e7c:	01865bc0 	call	1865bc <reg_update_bits>
  180e80:	10001226 	beq	r2,zero,180ecc <adv7513_chip_init_3d+0x180>
	//		return -1;
	//}

	// 0x15 0x16 0x17
	if (adv7513_video_in_format_3d(ec, ADV7513_INPUT_ID_24BIT_RGB444_YCBCR444, ADV7513_INPUT_COLOR_DEPTH_8BIT, ADV7513_INPUT_COLOR_SPACE_RGB, ADV7513_INPUT_INVALID, vic) != 0)
		return -1;
  180e84:	00bfffc4 	movi	r2,-1
	return 0;
}

int adv7513_chip_init_3d(struct hdmi_encoder *ec, int vic)
{
	if (adv7513_video_init_3d(ec, vic) != 0)
  180e88:	1004c03a 	cmpne	r2,r2,zero
  180e8c:	0085c83a 	sub	r2,zero,r2
  180e90:	0000ca06 	br	1811bc <adv7513_chip_init_3d+0x470>

	//printf("adv7513_video_out_format_3d()\n");

	// 0x16[7] <- format
	regv = (format & 0x01) << 7;
	if (reg_update_bits(ec, 0x16, 0x80, regv) != 0)
  180e94:	8009883a 	mov	r4,r16
  180e98:	01400584 	movi	r5,22
  180e9c:	01802004 	movi	r6,128
  180ea0:	000f883a 	mov	r7,zero
  180ea4:	01865bc0 	call	1865bc <reg_update_bits>
  180ea8:	103ff61e 	bne	r2,zero,180e84 <__alt_data_end+0xfff80e84>

	// 0x18[7] <- enable
	// 0x18[6:5] <- scaling
	// 0x18[4:0] <- csc_a1[4:0]
	int regv = (enable ? 1 : 0) << 7;
	if (reg_update_bits(ec, 0x18, 0x80, regv) != 0)
  180eac:	8009883a 	mov	r4,r16
  180eb0:	01400604 	movi	r5,24
  180eb4:	01802004 	movi	r6,128
  180eb8:	000f883a 	mov	r7,zero
  180ebc:	01865bc0 	call	1865bc <reg_update_bits>
  180ec0:	103fe426 	beq	r2,zero,180e54 <__alt_data_end+0xfff80e54>
}

int adv7513_chip_init_3d(struct hdmi_encoder *ec, int vic)
{
	if (adv7513_video_init_3d(ec, vic) != 0)
		return -1;
  180ec4:	00bfffc4 	movi	r2,-1
  180ec8:	0000bc06 	br	1811bc <adv7513_chip_init_3d+0x470>
	// 0x40[7] <- gc (section 4.2.3 && 4.3.3)
	if (reg_update_bits(ec, 0x40, 0x80, (1 & 0x01) << 7) != 0)
		return -1;

	// 0x4c[3:0] <- gc_depth (section 4.2.6)
	if (reg_update_bits(ec, 0x4c, 0x0f, 4 & 0x0f) != 0)
  180ecc:	8009883a 	mov	r4,r16
  180ed0:	01401304 	movi	r5,76
  180ed4:	018003c4 	movi	r6,15
  180ed8:	01c00104 	movi	r7,4
  180edc:	01865bc0 	call	1865bc <reg_update_bits>
  180ee0:	103fe81e 	bne	r2,zero,180e84 <__alt_data_end+0xfff80e84>

	// pixel repetition
	// 0x3b[6:5] <- pr mode 0)auto 1)max 2)manual 3)manual
	// 0x3b[4:3] <- pr pll (x input) 0)x1 1)x2 2)x4 3)x4
	// 0x3b[2:1] <- pr pll (sent) 0)x1 1)x2 2)x4 3)x4
	if (reg_update_bits(ec, 0x3b, 0x7e, (2 << 5) | (0 << 3) | (0 << 1)) != 0)
  180ee4:	8009883a 	mov	r4,r16
  180ee8:	01400ec4 	movi	r5,59
  180eec:	01801f84 	movi	r6,126
  180ef0:	01c01004 	movi	r7,64
  180ef4:	01865bc0 	call	1865bc <reg_update_bits>
  180ef8:	103fe21e 	bne	r2,zero,180e84 <__alt_data_end+0xfff80e84>
		return -1;

	// manual VIC
	// 0x3c[5:0] <- 0x01 & 0x3f
	if (reg_update_bits(ec, 0x3c, 0x3f, vic) != 0)
  180efc:	8009883a 	mov	r4,r16
  180f00:	01400f04 	movi	r5,60
  180f04:	01800fc4 	movi	r6,63
  180f08:	980f883a 	mov	r7,r19
  180f0c:	01865bc0 	call	1865bc <reg_update_bits>
  180f10:	103fdc1e 	bne	r2,zero,180e84 <__alt_data_end+0xfff80e84>

#if 1  // local development defaults
	avi->scan_info = 2;  		// scan
	avi->rgb_ycbcr = 0;			// rgb or ycbcr
	//avi->f7 = 0;				// reserved
	avi->active_fmt = 1;		// active format r3r0 valid
  180f14:	00800044 	movi	r2,1
	avi->bar.top_e = 0;
	avi->bar.bottom_s = 0;
	avi->bar.left_e = 0;
	avi->bar.right_s = 0;

	avi->active_fmt_ar = 8;		// active format aspect ratio (same as pict_ar)
  180f18:	00c00204 	movi	r3,8
	int regv;

	//printf("adv7513_avi_infoframe_3d()\n");

#if 1  // local development defaults
	avi->scan_info = 2;  		// scan
  180f1c:	84800915 	stw	r18,36(r16)
	avi->rgb_ycbcr = 0;			// rgb or ycbcr
  180f20:	80000c15 	stw	zero,48(r16)
	//avi->f7 = 0;				// reserved
	avi->active_fmt = 1;		// active format r3r0 valid
  180f24:	80800b15 	stw	r2,44(r16)

	avi->colorimetry = 0;		// colorimetry
  180f28:	80000f15 	stw	zero,60(r16)
	avi->colorimetry_ext = 0;	// extended colorimetry
  180f2c:	80001215 	stw	zero,72(r16)
	avi->scaling = 0;			// non-uniform scaling
  180f30:	80001015 	stw	zero,64(r16)
	avi->quant = 0;				// rgb quantization range
  180f34:	80001115 	stw	zero,68(r16)
	avi->itc = 0;				// it content
  180f38:	80001315 	stw	zero,76(r16)
	avi->pr = 1;				// pixel repetition factor 0)no 1)2x 2)3x 3)4x ...
  180f3c:	80801515 	stw	r2,84(r16)
	avi->vic = vic;				// video identification code
  180f40:	84c01415 	stw	r19,80(r16)
	avi->yq1yq0 = 0;			// ??
  180f44:	80001615 	stw	zero,88(r16)

	avi->bar_info = 0;  		// bar fields valid
  180f48:	80000a15 	stw	zero,40(r16)
	avi->bar.top_e = 0;
  180f4c:	80001715 	stw	zero,92(r16)
	avi->bar.bottom_s = 0;
  180f50:	80001815 	stw	zero,96(r16)
	avi->bar.left_e = 0;
  180f54:	80001915 	stw	zero,100(r16)
	avi->bar.right_s = 0;
  180f58:	80001a15 	stw	zero,104(r16)

	avi->active_fmt_ar = 8;		// active format aspect ratio (same as pict_ar)
  180f5c:	80c00d15 	stw	r3,52(r16)

	switch (vic) {
  180f60:	ac402036 	bltu	r21,r17,180fe4 <adv7513_chip_init_3d+0x298>
  180f64:	882290ba 	slli	r17,r17,2
  180f68:	00c00634 	movhi	r3,24
  180f6c:	18c3df04 	addi	r3,r3,3964
  180f70:	88e3883a 	add	r17,r17,r3
  180f74:	88c00017 	ldw	r3,0(r17)
  180f78:	1800683a 	jmp	r3
  180f7c:	00180fe0 	cmpeqi	zero,zero,24639
  180f80:	00180fe0 	cmpeqi	zero,zero,24639
  180f84:	00180fdc 	xori	zero,zero,24639
  180f88:	00180fdc 	xori	zero,zero,24639
  180f8c:	00180fdc 	xori	zero,zero,24639
  180f90:	00180fe0 	cmpeqi	zero,zero,24639
  180f94:	00180fdc 	xori	zero,zero,24639
  180f98:	00180fe0 	cmpeqi	zero,zero,24639
  180f9c:	00180fdc 	xori	zero,zero,24639
  180fa0:	00180fe0 	cmpeqi	zero,zero,24639
  180fa4:	00180fdc 	xori	zero,zero,24639
  180fa8:	00180fe0 	cmpeqi	zero,zero,24639
  180fac:	00180fdc 	xori	zero,zero,24639
  180fb0:	00180fe0 	cmpeqi	zero,zero,24639
  180fb4:	00180fdc 	xori	zero,zero,24639
  180fb8:	00180fdc 	xori	zero,zero,24639
  180fbc:	00180fe0 	cmpeqi	zero,zero,24639
  180fc0:	00180fdc 	xori	zero,zero,24639
  180fc4:	00180fdc 	xori	zero,zero,24639
  180fc8:	00180fdc 	xori	zero,zero,24639
  180fcc:	00180fe0 	cmpeqi	zero,zero,24639
  180fd0:	00180fdc 	xori	zero,zero,24639
  180fd4:	00180fe0 	cmpeqi	zero,zero,24639
  180fd8:	00180fdc 	xori	zero,zero,24639
	case ADV7513_VIC_576p50_16_9:	// 720x576p 50Hz
	case ADV7513_VIC_720p50_16_9:	// 1280x720p 50Hz
	case ADV7513_VIC_1080i50_16_9:	// 1920x1080i 50Hz
	case ADV7513_VIC_576i50x2_16_9:	// 720(1440)x576i 50Hz
	case ADV7513_VIC_288p50x2_16_9:	// 720(1440)x288p 50Hz
		avi->pict_ar = 2;			// picture aspect ratio (16:9)
  180fdc:	00800084 	movi	r2,2
  180fe0:	80800e15 	stw	r2,56(r16)
	//   0x55[6:5]
	//   0x56[5:4]

	// 0x44[4] avi infoframe enable 0)disable 1)enable
	// 0x44[3] audio infoframe enable 0)disable 1)enable
	if (reg_update_bits(ec, 0x44, 0x10, 1 << 4) != 0)
  180fe4:	01800404 	movi	r6,16
  180fe8:	8009883a 	mov	r4,r16
  180fec:	01401104 	movi	r5,68
  180ff0:	300f883a 	mov	r7,r6
  180ff4:	01865bc0 	call	1865bc <reg_update_bits>
  180ff8:	103fa21e 	bne	r2,zero,180e84 <__alt_data_end+0xfff80e84>

	// 0x4a[7] <- auto checksum
	// 0x4a[6] avi infoframe packet update 0)locked-by-packet_buffer 1)locked-by-i2c
	// 0x4a[5] audio infoframe packet update 0)locked-by-packet_buffer 1)locked-by-i2c
	// 0x4a[4] gc packet update 0)locked-by-packet_buffer 1)locked-by-i2c
	if (reg_update_bits(ec, 0x4a, 0xc0, 3 << 6) != 0)
  180ffc:	01803004 	movi	r6,192
  181000:	8009883a 	mov	r4,r16
  181004:	01401284 	movi	r5,74
  181008:	300f883a 	mov	r7,r6
  18100c:	01865bc0 	call	1865bc <reg_update_bits>
  181010:	103f9c1e 	bne	r2,zero,180e84 <__alt_data_end+0xfff80e84>

	// 0x55[6:5] <- output format 0)rgb 1)ycbcr422 2)ycbcr444
	// 0x55[4]   <- active format indicator 0)no-data 1)valid (bar, scan, colorimetry, non-uniform-scaling, active-aspect-ratio)
	// 0x55[3:2] <- bar 0)invalid-bar 1)vertical 2)horizontal 3)both
	// 0x55[1:0] <- scan 0)no-data 1)tv 2)pc 3)none
	regv = ((avi->rgb_ycbcr & 0x03) << 5) | ((avi->active_fmt & 0x01) << 4) | ((avi->bar_info & 0x03) << 2) | ((avi->scan_info & 0x03) << 0);
  181014:	80800c17 	ldw	r2,48(r16)
	if (reg_update_bits(ec, 0x55, 0x70, regv) != 0)
  181018:	8009883a 	mov	r4,r16
  18101c:	01401544 	movi	r5,85

	// 0x55[6:5] <- output format 0)rgb 1)ycbcr422 2)ycbcr444
	// 0x55[4]   <- active format indicator 0)no-data 1)valid (bar, scan, colorimetry, non-uniform-scaling, active-aspect-ratio)
	// 0x55[3:2] <- bar 0)invalid-bar 1)vertical 2)horizontal 3)both
	// 0x55[1:0] <- scan 0)no-data 1)tv 2)pc 3)none
	regv = ((avi->rgb_ycbcr & 0x03) << 5) | ((avi->active_fmt & 0x01) << 4) | ((avi->bar_info & 0x03) << 2) | ((avi->scan_info & 0x03) << 0);
  181020:	108000cc 	andi	r2,r2,3
  181024:	100e917a 	slli	r7,r2,5
  181028:	80800b17 	ldw	r2,44(r16)
	if (reg_update_bits(ec, 0x55, 0x70, regv) != 0)
  18102c:	01801c04 	movi	r6,112

	// 0x55[6:5] <- output format 0)rgb 1)ycbcr422 2)ycbcr444
	// 0x55[4]   <- active format indicator 0)no-data 1)valid (bar, scan, colorimetry, non-uniform-scaling, active-aspect-ratio)
	// 0x55[3:2] <- bar 0)invalid-bar 1)vertical 2)horizontal 3)both
	// 0x55[1:0] <- scan 0)no-data 1)tv 2)pc 3)none
	regv = ((avi->rgb_ycbcr & 0x03) << 5) | ((avi->active_fmt & 0x01) << 4) | ((avi->bar_info & 0x03) << 2) | ((avi->scan_info & 0x03) << 0);
  181030:	1080004c 	andi	r2,r2,1
  181034:	1004913a 	slli	r2,r2,4
  181038:	3884b03a 	or	r2,r7,r2
  18103c:	81c00917 	ldw	r7,36(r16)
  181040:	39c000cc 	andi	r7,r7,3
  181044:	11ceb03a 	or	r7,r2,r7
  181048:	80800a17 	ldw	r2,40(r16)
  18104c:	108000cc 	andi	r2,r2,3
  181050:	1085883a 	add	r2,r2,r2
  181054:	1085883a 	add	r2,r2,r2
	if (reg_update_bits(ec, 0x55, 0x70, regv) != 0)
  181058:	388eb03a 	or	r7,r7,r2
  18105c:	01865bc0 	call	1865bc <reg_update_bits>
  181060:	103f881e 	bne	r2,zero,180e84 <__alt_data_end+0xfff80e84>
		return -1;

	// 0x56[7:6] <- colorimetry 0)no-data 1)ITU601 2)ITU709 3)extended <- 0x57[6:4]
	// 0x56[5:4] <- picture aspect ratio 0)no-data 1)4:3 2)16:9 3)none
	// 0x56[3:0] <- active aspect ratio 8)same as 0x56[5:4] 9)4:3 10)16:0 11)14:9
	regv = ((avi->colorimetry & 0x03) << 6) | ((avi->pict_ar & 0x03) << 4) | ((avi->active_fmt_ar & 0x0f) << 0);
  181064:	81800f17 	ldw	r6,60(r16)
  181068:	80800e17 	ldw	r2,56(r16)
	if (reg_write(ec, 0x56, regv) != 0)
  18106c:	8009883a 	mov	r4,r16
		return -1;

	// 0x56[7:6] <- colorimetry 0)no-data 1)ITU601 2)ITU709 3)extended <- 0x57[6:4]
	// 0x56[5:4] <- picture aspect ratio 0)no-data 1)4:3 2)16:9 3)none
	// 0x56[3:0] <- active aspect ratio 8)same as 0x56[5:4] 9)4:3 10)16:0 11)14:9
	regv = ((avi->colorimetry & 0x03) << 6) | ((avi->pict_ar & 0x03) << 4) | ((avi->active_fmt_ar & 0x0f) << 0);
  181070:	300c91ba 	slli	r6,r6,6
  181074:	108000cc 	andi	r2,r2,3
  181078:	1004913a 	slli	r2,r2,4
  18107c:	31803fcc 	andi	r6,r6,255
	if (reg_write(ec, 0x56, regv) != 0)
  181080:	01401584 	movi	r5,86
		return -1;

	// 0x56[7:6] <- colorimetry 0)no-data 1)ITU601 2)ITU709 3)extended <- 0x57[6:4]
	// 0x56[5:4] <- picture aspect ratio 0)no-data 1)4:3 2)16:9 3)none
	// 0x56[3:0] <- active aspect ratio 8)same as 0x56[5:4] 9)4:3 10)16:0 11)14:9
	regv = ((avi->colorimetry & 0x03) << 6) | ((avi->pict_ar & 0x03) << 4) | ((avi->active_fmt_ar & 0x0f) << 0);
  181084:	3084b03a 	or	r2,r6,r2
  181088:	81800d17 	ldw	r6,52(r16)
  18108c:	318003cc 	andi	r6,r6,15
	if (reg_write(ec, 0x56, regv) != 0)
  181090:	118cb03a 	or	r6,r2,r6
  181094:	01865780 	call	186578 <reg_write>
  181098:	103f7a1e 	bne	r2,zero,180e84 <__alt_data_end+0xfff80e84>

	// 0x57[7] <- itc 0)none 1)available in 0x59[5:4]
	// 0x57[6:4] <- extended colorimetry 0)xvYCC601 1)xvYCC701 2)sYCC601 3)AdobeYCC601 4)AdobeRGB
	// 0x57[3:2] <- rgb quantization range 0)default 1)limited 2)full 11)reserved
	// 0x57[1:0] <- non-uniform picture scaling 0)unknown 1)h-scaling 2) v-scaling 3)h/v scaling
	regv = ((avi->itc & 0x01) << 7) | ((avi->colorimetry_ext & 0x07) << 4) | ((avi->quant & 0x03) << 2) | ((avi->scaling & 0x03) << 0);
  18109c:	80801317 	ldw	r2,76(r16)
	if (reg_write(ec, 0x57, regv) != 0)
  1810a0:	8009883a 	mov	r4,r16
  1810a4:	014015c4 	movi	r5,87

	// 0x57[7] <- itc 0)none 1)available in 0x59[5:4]
	// 0x57[6:4] <- extended colorimetry 0)xvYCC601 1)xvYCC701 2)sYCC601 3)AdobeYCC601 4)AdobeRGB
	// 0x57[3:2] <- rgb quantization range 0)default 1)limited 2)full 11)reserved
	// 0x57[1:0] <- non-uniform picture scaling 0)unknown 1)h-scaling 2) v-scaling 3)h/v scaling
	regv = ((avi->itc & 0x01) << 7) | ((avi->colorimetry_ext & 0x07) << 4) | ((avi->quant & 0x03) << 2) | ((avi->scaling & 0x03) << 0);
  1810a8:	100491fa 	slli	r2,r2,7
  1810ac:	11803fcc 	andi	r6,r2,255
  1810b0:	80801217 	ldw	r2,72(r16)
  1810b4:	108001cc 	andi	r2,r2,7
  1810b8:	1004913a 	slli	r2,r2,4
  1810bc:	3084b03a 	or	r2,r6,r2
  1810c0:	81801017 	ldw	r6,64(r16)
  1810c4:	318000cc 	andi	r6,r6,3
  1810c8:	118cb03a 	or	r6,r2,r6
  1810cc:	80801117 	ldw	r2,68(r16)
  1810d0:	108000cc 	andi	r2,r2,3
  1810d4:	1085883a 	add	r2,r2,r2
  1810d8:	1085883a 	add	r2,r2,r2
	if (reg_write(ec, 0x57, regv) != 0)
  1810dc:	308cb03a 	or	r6,r6,r2
  1810e0:	01865780 	call	186578 <reg_write>
  1810e4:	103f671e 	bne	r2,zero,180e84 <__alt_data_end+0xfff80e84>
		return -1;

	// 0x59[7:4] <- extended colorimetry 0)xvYCC601 1)xvYCC701 2)sYCC601 3)AdobeYCC601 4)AdobeRGB
	regv = ((avi->yq1yq0 & 0x0f) << 4);
  1810e8:	81801617 	ldw	r6,88(r16)
	if (reg_write(ec, 0x59, regv) != 0)
  1810ec:	8009883a 	mov	r4,r16
  1810f0:	01401644 	movi	r5,89
	regv = ((avi->itc & 0x01) << 7) | ((avi->colorimetry_ext & 0x07) << 4) | ((avi->quant & 0x03) << 2) | ((avi->scaling & 0x03) << 0);
	if (reg_write(ec, 0x57, regv) != 0)
		return -1;

	// 0x59[7:4] <- extended colorimetry 0)xvYCC601 1)xvYCC701 2)sYCC601 3)AdobeYCC601 4)AdobeRGB
	regv = ((avi->yq1yq0 & 0x0f) << 4);
  1810f4:	300c913a 	slli	r6,r6,4
	if (reg_write(ec, 0x59, regv) != 0)
  1810f8:	31803c0c 	andi	r6,r6,240
  1810fc:	01865780 	call	186578 <reg_write>
  181100:	103f601e 	bne	r2,zero,180e84 <__alt_data_end+0xfff80e84>
		return -1;

	// 0x5a[7:0] <- active line (bar)
	regv = avi->bar.top_e & 0xff;
	if (reg_write(ec, 0x5a, regv) != 0)
  181104:	81801703 	ldbu	r6,92(r16)
  181108:	8009883a 	mov	r4,r16
  18110c:	01401684 	movi	r5,90
  181110:	01865780 	call	186578 <reg_write>
  181114:	103f5b1e 	bne	r2,zero,180e84 <__alt_data_end+0xfff80e84>
		return -1;

	// 0x5b[7:0] <- active line (bar)
	regv = (avi->bar.top_e >> 8) & 0xff;
	if (reg_write(ec, 0x5b, regv) != 0)
  181118:	81801743 	ldbu	r6,93(r16)
  18111c:	8009883a 	mov	r4,r16
  181120:	014016c4 	movi	r5,91
  181124:	01865780 	call	186578 <reg_write>
  181128:	103f561e 	bne	r2,zero,180e84 <__alt_data_end+0xfff80e84>
		return -1;

	// 0x5c[7:0] <- active line (bar)
	regv = avi->bar.bottom_s & 0xff;
	if (reg_write(ec, 0x5c, regv) != 0)
  18112c:	81801803 	ldbu	r6,96(r16)
  181130:	8009883a 	mov	r4,r16
  181134:	01401704 	movi	r5,92
  181138:	01865780 	call	186578 <reg_write>
  18113c:	103f511e 	bne	r2,zero,180e84 <__alt_data_end+0xfff80e84>
		return -1;

	// 0x5d[7:0] <- active line (bar)
	regv = (avi->bar.bottom_s >> 8) & 0xff;
	if (reg_write(ec, 0x5d, regv) != 0)
  181140:	81801843 	ldbu	r6,97(r16)
  181144:	8009883a 	mov	r4,r16
  181148:	01401744 	movi	r5,93
  18114c:	01865780 	call	186578 <reg_write>
  181150:	103f4c1e 	bne	r2,zero,180e84 <__alt_data_end+0xfff80e84>
		return -1;

	// 0x5e[7:0] <- active line (bar)
	regv = avi->bar.left_e & 0xff;
	if (reg_write(ec, 0x5e, regv) != 0)
  181154:	81801903 	ldbu	r6,100(r16)
  181158:	8009883a 	mov	r4,r16
  18115c:	01401784 	movi	r5,94
  181160:	01865780 	call	186578 <reg_write>
  181164:	103f471e 	bne	r2,zero,180e84 <__alt_data_end+0xfff80e84>
		return -1;

	// 0x5f[7:0] <- active line (bar)
	regv = (avi->bar.left_e >> 8) & 0xff;
	if (reg_write(ec, 0x5f, regv) != 0)
  181168:	81801943 	ldbu	r6,101(r16)
  18116c:	8009883a 	mov	r4,r16
  181170:	014017c4 	movi	r5,95
  181174:	01865780 	call	186578 <reg_write>
  181178:	103f421e 	bne	r2,zero,180e84 <__alt_data_end+0xfff80e84>
		return -1;

	// 0x60[7:0] <- active line (bar)
	regv = avi->bar.right_s & 0xff;
	if (reg_write(ec, 0x60, regv) != 0)
  18117c:	81801a03 	ldbu	r6,104(r16)
  181180:	8009883a 	mov	r4,r16
  181184:	01401804 	movi	r5,96
  181188:	01865780 	call	186578 <reg_write>
  18118c:	103f3d1e 	bne	r2,zero,180e84 <__alt_data_end+0xfff80e84>
		return -1;

	// 0x61[7:0] <- active line (bar)
	regv = (avi->bar.right_s >> 8) & 0xff;
	if (reg_write(ec, 0x61, regv) != 0)
  181190:	81801a43 	ldbu	r6,105(r16)
  181194:	8009883a 	mov	r4,r16
  181198:	01401844 	movi	r5,97
  18119c:	01865780 	call	186578 <reg_write>
  1811a0:	103f381e 	bne	r2,zero,180e84 <__alt_data_end+0xfff80e84>

	// 0x4a[7] <- auto checksum
	// 0x4a[6] avi infoframe packet update 0)locked-by-packet_buffer 1)locked-by-i2c
	// 0x4a[5] audio infoframe packet update 0)locked-by-packet_buffer 1)locked-by-i2c
	// 0x4a[4] gc packet update 0)locked-by-packet_buffer 1)locked-by-i2c
	if (reg_clear_bits(ec, 0x4a, 0x40) != 0)
  1811a4:	8009883a 	mov	r4,r16
  1811a8:	01401284 	movi	r5,74
  1811ac:	01801004 	movi	r6,64
  1811b0:	01866bc0 	call	1866bc <reg_clear_bits>
  1811b4:	103f3426 	beq	r2,zero,180e88 <__alt_data_end+0xfff80e88>
  1811b8:	003f3206 	br	180e84 <__alt_data_end+0xfff80e84>

	//if (adv7513_audio_init(ec) != 0)
	//	return -1;

	return 0;
}
  1811bc:	dfc00617 	ldw	ra,24(sp)
  1811c0:	dd400517 	ldw	r21,20(sp)
  1811c4:	dd000417 	ldw	r20,16(sp)
  1811c8:	dcc00317 	ldw	r19,12(sp)
  1811cc:	dc800217 	ldw	r18,8(sp)
  1811d0:	dc400117 	ldw	r17,4(sp)
  1811d4:	dc000017 	ldw	r16,0(sp)
  1811d8:	dec00704 	addi	sp,sp,28
  1811dc:	f800283a 	ret

001811e0 <adv7513_int_setup>:

	return;
}

int adv7513_int_setup(struct hdmi_encoder *ec, const struct adv7513_int_mask *mask, alt_isr_func isr)
{
  1811e0:	defffb04 	addi	sp,sp,-20
  1811e4:	dc800315 	stw	r18,12(sp)
  1811e8:	dc400215 	stw	r17,8(sp)
  1811ec:	dc000115 	stw	r16,4(sp)
  1811f0:	dfc00415 	stw	ra,16(sp)
	};
};

static inline unsigned int adv7513_int_mask_to_long(const struct adv7513_int_mask *mask)
{
	return ((unsigned int)(mask->reg92 << 16) | (mask->reg94 << 8) | mask->reg95);
  1811f4:	28800017 	ldw	r2,0(r5)
  1811f8:	2021883a 	mov	r16,r4
  1811fc:	2823883a 	mov	r17,r5
  181200:	1006943a 	slli	r3,r2,16
  181204:	28800117 	ldw	r2,4(r5)
  181208:	3025883a 	mov	r18,r6
  18120c:	1004923a 	slli	r2,r2,8
  181210:	1884b03a 	or	r2,r3,r2
  181214:	28c00217 	ldw	r3,8(r5)
	//printf("adv7513_int_setup()\n");

	ec->int_mask = adv7513_int_mask_to_long(mask);

	// disable HDMI_TX_INT
	DISABLE_HDMI_IRQ;
  181218:	01400104 	movi	r5,4
  18121c:	10c4b03a 	or	r2,r2,r3
{
	int r = 0;

	//printf("adv7513_int_setup()\n");

	ec->int_mask = adv7513_int_mask_to_long(mask);
  181220:	20800615 	stw	r2,24(r4)

	// disable HDMI_TX_INT
	DISABLE_HDMI_IRQ;
  181224:	0009883a 	mov	r4,zero
  181228:	01965700 	call	196570 <alt_ic_irq_disable>

	r = reg_write(ec, 0x92, 0);
  18122c:	8009883a 	mov	r4,r16
  181230:	01402484 	movi	r5,146
  181234:	000d883a 	mov	r6,zero
  181238:	01865780 	call	186578 <reg_write>
	if (r != 0)
  18123c:	10000226 	beq	r2,zero,181248 <adv7513_int_setup+0x68>
		return -1;
  181240:	00bfffc4 	movi	r2,-1
  181244:	00003f06 	br	181344 <adv7513_int_setup+0x164>

	r = reg_write(ec, 0x94, 0);
  181248:	8009883a 	mov	r4,r16
  18124c:	01402504 	movi	r5,148
  181250:	000d883a 	mov	r6,zero
  181254:	01865780 	call	186578 <reg_write>
	if (r != 0)
  181258:	103ff91e 	bne	r2,zero,181240 <__alt_data_end+0xfff81240>
		return -1;

	r = reg_write(ec, 0x95, 0);
  18125c:	8009883a 	mov	r4,r16
  181260:	01402544 	movi	r5,149
  181264:	000d883a 	mov	r6,zero
  181268:	01865780 	call	186578 <reg_write>
	if (r != 0)
  18126c:	103ff41e 	bne	r2,zero,181240 <__alt_data_end+0xfff81240>
		return -1;

	// clear int flags
	CLEAR_HDMI_IRQ_FLAG;
  181270:	00800834 	movhi	r2,32
  181274:	10841304 	addi	r2,r2,4172
  181278:	10000035 	stwio	zero,0(r2)

	r = reg_write(ec, 0x93, 0xff);
  18127c:	8009883a 	mov	r4,r16
  181280:	014024c4 	movi	r5,147
  181284:	01803fc4 	movi	r6,255
  181288:	01865780 	call	186578 <reg_write>
	if (r != 0)
  18128c:	103fec1e 	bne	r2,zero,181240 <__alt_data_end+0xfff81240>
		return -1;

	r = reg_write(ec, 0x96, 0xff);
  181290:	8009883a 	mov	r4,r16
  181294:	01402584 	movi	r5,150
  181298:	01803fc4 	movi	r6,255
  18129c:	01865780 	call	186578 <reg_write>
	if (r != 0)
  1812a0:	103fe71e 	bne	r2,zero,181240 <__alt_data_end+0xfff81240>
		return -1;

	r = reg_write(ec, 0x97, 0xff);
  1812a4:	8009883a 	mov	r4,r16
  1812a8:	014025c4 	movi	r5,151
  1812ac:	01803fc4 	movi	r6,255
  1812b0:	01865780 	call	186578 <reg_write>
	if (r != 0)
  1812b4:	103fe21e 	bne	r2,zero,181240 <__alt_data_end+0xfff81240>
		return -1;

	// enable interrupt
	if (ec->int_mask > 0) {
  1812b8:	80800617 	ldw	r2,24(r16)
  1812bc:	10002026 	beq	r2,zero,181340 <adv7513_int_setup+0x160>
		// register isr
		if (isr) {
  1812c0:	9000061e 	bne	r18,zero,1812dc <adv7513_int_setup+0xfc>
			if (r != 0)
				return -1;
		}

		// enable interrupts
		r = reg_write(ec, 0x92, mask->reg92);
  1812c4:	89800017 	ldw	r6,0(r17)
  1812c8:	8009883a 	mov	r4,r16
  1812cc:	01402484 	movi	r5,146
  1812d0:	01865780 	call	186578 <reg_write>
		if (r != 0)
  1812d4:	10000926 	beq	r2,zero,1812fc <adv7513_int_setup+0x11c>
  1812d8:	003fd906 	br	181240 <__alt_data_end+0xfff81240>
	// enable interrupt
	if (ec->int_mask > 0) {
		// register isr
		if (isr) {
			// register interrupt handler
			r = REGISTER_HDMI_ISR(ec,isr);
  1812dc:	d8000015 	stw	zero,0(sp)
  1812e0:	0009883a 	mov	r4,zero
  1812e4:	01400104 	movi	r5,4
  1812e8:	900d883a 	mov	r6,r18
  1812ec:	800f883a 	mov	r7,r16
  1812f0:	01964800 	call	196480 <alt_ic_isr_register>
			if (r != 0)
  1812f4:	103ff326 	beq	r2,zero,1812c4 <__alt_data_end+0xfff812c4>
  1812f8:	003fd106 	br	181240 <__alt_data_end+0xfff81240>
		// enable interrupts
		r = reg_write(ec, 0x92, mask->reg92);
		if (r != 0)
			return -1;

		r = reg_write(ec, 0x94, mask->reg94);
  1812fc:	89800117 	ldw	r6,4(r17)
  181300:	8009883a 	mov	r4,r16
  181304:	01402504 	movi	r5,148
  181308:	01865780 	call	186578 <reg_write>
		if (r != 0)
  18130c:	103fcc1e 	bne	r2,zero,181240 <__alt_data_end+0xfff81240>
			return -1;

		r = reg_write(ec, 0x95, mask->reg95);
  181310:	89800217 	ldw	r6,8(r17)
  181314:	8009883a 	mov	r4,r16
  181318:	01402544 	movi	r5,149
  18131c:	01865780 	call	186578 <reg_write>
		if (r != 0)
  181320:	103fc71e 	bne	r2,zero,181240 <__alt_data_end+0xfff81240>
			return -1;

		ENABLE_HDMI_IRQ;
  181324:	00800834 	movhi	r2,32
  181328:	10841204 	addi	r2,r2,4168
  18132c:	00c00044 	movi	r3,1
  181330:	10c00035 	stwio	r3,0(r2)
  181334:	0009883a 	mov	r4,zero
  181338:	01400104 	movi	r5,4
  18133c:	01964d00 	call	1964d0 <alt_ic_irq_enable>

	}

	return 0;
  181340:	0005883a 	mov	r2,zero
}
  181344:	dfc00417 	ldw	ra,16(sp)
  181348:	dc800317 	ldw	r18,12(sp)
  18134c:	dc400217 	ldw	r17,8(sp)
  181350:	dc000117 	ldw	r16,4(sp)
  181354:	dec00504 	addi	sp,sp,20
  181358:	f800283a 	ret

0018135c <adv7513_init>:


int adv7513_init()	{
  18135c:	defffb04 	addi	sp,sp,-20

	int r = 0, rr = 0;

	struct adv7513_int_mask ie_mask;

	memset(&ie_mask, 0, sizeof(ie_mask));
  181360:	d809883a 	mov	r4,sp
  181364:	000b883a 	mov	r5,zero
  181368:	01800304 	movi	r6,12

	return 0;
}


int adv7513_init()	{
  18136c:	dfc00415 	stw	ra,16(sp)
  181370:	dc000315 	stw	r16,12(sp)

	int r = 0, rr = 0;

	struct adv7513_int_mask ie_mask;

	memset(&ie_mask, 0, sizeof(ie_mask));
  181374:	0188fb80 	call	188fb8 <memset>

	adv7513_encoder.slave_addr = ADV7513_SALVE_ADDR8;
  181378:	040006b4 	movhi	r16,26
  18137c:	840bda04 	addi	r16,r16,12136
  181380:	00801c84 	movi	r2,114
	adv7513_encoder.edid_addr  = ADV7513_EDID_ADDR8;
	adv7513_encoder.hpd	       = 0;

	printf("[adv7513_init] Identifying Chip\n");
  181384:	010006b4 	movhi	r4,26

	struct adv7513_int_mask ie_mask;

	memset(&ie_mask, 0, sizeof(ie_mask));

	adv7513_encoder.slave_addr = ADV7513_SALVE_ADDR8;
  181388:	80800015 	stw	r2,0(r16)
	adv7513_encoder.edid_addr  = ADV7513_EDID_ADDR8;
	adv7513_encoder.hpd	       = 0;

	printf("[adv7513_init] Identifying Chip\n");
  18138c:	212d0a04 	addi	r4,r4,-19416
	struct adv7513_int_mask ie_mask;

	memset(&ie_mask, 0, sizeof(ie_mask));

	adv7513_encoder.slave_addr = ADV7513_SALVE_ADDR8;
	adv7513_encoder.edid_addr  = ADV7513_EDID_ADDR8;
  181390:	00801f84 	movi	r2,126
  181394:	80800115 	stw	r2,4(r16)
	adv7513_encoder.hpd	       = 0;
  181398:	80000515 	stw	zero,20(r16)

	printf("[adv7513_init] Identifying Chip\n");
  18139c:	018920c0 	call	18920c <puts>

	r = adv7513_chip_identify(&adv7513_encoder);
  1813a0:	8009883a 	mov	r4,r16
  1813a4:	01803ac0 	call	1803ac <adv7513_chip_identify>
	if (r != 0) {
  1813a8:	10000326 	beq	r2,zero,1813b8 <adv7513_init+0x5c>
		printf("[adv7513_init][error] failed to do chip-identification! (%d)\n", r);
  1813ac:	010006b4 	movhi	r4,26
  1813b0:	212d1204 	addi	r4,r4,-19384
  1813b4:	00001c06 	br	181428 <adv7513_init+0xcc>
		rr = -1;
		goto _safe_exit;
	}

	if ((adv7513_encoder.chip_id[0] == 0x11) && (adv7513_encoder.chip_id[1] == 0x75)) {
  1813b8:	8100070b 	ldhu	r4,28(r16)
  1813bc:	00dd4444 	movi	r3,29969
  1813c0:	80800743 	ldbu	r2,29(r16)
  1813c4:	81800703 	ldbu	r6,28(r16)
  1813c8:	81c00803 	ldbu	r7,32(r16)
  1813cc:	20c0041e 	bne	r4,r3,1813e0 <adv7513_init+0x84>
		printf("[adv7513_init] encoder chip : ADV%02x%02x rev: 0x%02x\n", adv7513_encoder.chip_id[1], adv7513_encoder.chip_id[0], adv7513_encoder.chip_rev[0]);
  1813d0:	010006b4 	movhi	r4,26
  1813d4:	212d2204 	addi	r4,r4,-19320
  1813d8:	100b883a 	mov	r5,r2
  1813dc:	00000406 	br	1813f0 <adv7513_init+0x94>
	} else {
		printf("[adv7513_init] encoder chip : unknown (id: 0x%02x 0x%02x rev: 0x%02x)\n", adv7513_encoder.chip_id[0], adv7513_encoder.chip_id[1], adv7513_encoder.chip_rev[0]);
  1813e0:	010006b4 	movhi	r4,26
  1813e4:	300b883a 	mov	r5,r6
  1813e8:	212d3004 	addi	r4,r4,-19264
  1813ec:	100d883a 	mov	r6,r2
  1813f0:	01891080 	call	189108 <printf>
	}

	ie_mask.reg94_bits.hpd = 1;
  1813f4:	d8c00103 	ldbu	r3,4(sp)
  1813f8:	00bff004 	movi	r2,-64
	ie_mask.reg94_bits.monitor_sense = 1;

	r = adv7513_int_setup(&adv7513_encoder, &ie_mask, adv7513_int_handler);
  1813fc:	010006b4 	movhi	r4,26
  181400:	01800634 	movhi	r6,24
	} else {
		printf("[adv7513_init] encoder chip : unknown (id: 0x%02x 0x%02x rev: 0x%02x)\n", adv7513_encoder.chip_id[0], adv7513_encoder.chip_id[1], adv7513_encoder.chip_rev[0]);
	}

	ie_mask.reg94_bits.hpd = 1;
	ie_mask.reg94_bits.monitor_sense = 1;
  181404:	1884b03a 	or	r2,r3,r2

	r = adv7513_int_setup(&adv7513_encoder, &ie_mask, adv7513_int_handler);
  181408:	210bda04 	addi	r4,r4,12136
  18140c:	d80b883a 	mov	r5,sp
  181410:	3182c204 	addi	r6,r6,2824
	} else {
		printf("[adv7513_init] encoder chip : unknown (id: 0x%02x 0x%02x rev: 0x%02x)\n", adv7513_encoder.chip_id[0], adv7513_encoder.chip_id[1], adv7513_encoder.chip_rev[0]);
	}

	ie_mask.reg94_bits.hpd = 1;
	ie_mask.reg94_bits.monitor_sense = 1;
  181414:	d8800105 	stb	r2,4(sp)

	r = adv7513_int_setup(&adv7513_encoder, &ie_mask, adv7513_int_handler);
  181418:	01811e00 	call	1811e0 <adv7513_int_setup>

	if (r != 0) {
  18141c:	10000626 	beq	r2,zero,181438 <adv7513_init+0xdc>
		printf("[adv7513_init][error] failed to do HDMI_TX_INT interrupt setup! (%d)\n", r);
  181420:	010006b4 	movhi	r4,26
  181424:	212d4204 	addi	r4,r4,-19192
  181428:	100b883a 	mov	r5,r2
  18142c:	01891080 	call	189108 <printf>

	return 0;

	_safe_exit:

	return -1;
  181430:	00bfffc4 	movi	r2,-1
	r = adv7513_int_setup(&adv7513_encoder, &ie_mask, adv7513_int_handler);

	if (r != 0) {
		printf("[adv7513_init][error] failed to do HDMI_TX_INT interrupt setup! (%d)\n", r);
		rr = -1;
		goto _safe_exit;
  181434:	00000a06 	br	181460 <adv7513_init+0x104>
	} else {
		printf("[adv7513_init]success to setup HDMI_TX_INT interrupt handler.\n");
  181438:	010006b4 	movhi	r4,26
  18143c:	212d5404 	addi	r4,r4,-19120
  181440:	018920c0 	call	18920c <puts>
	}

	adv7513_kick_up(&adv7513_encoder);
  181444:	010006b4 	movhi	r4,26
  181448:	210bda04 	addi	r4,r4,12136
  18144c:	01805b80 	call	1805b8 <adv7513_kick_up>

	printf("[adv7513_init] Device Ready\n");
  181450:	010006b4 	movhi	r4,26
  181454:	212d6404 	addi	r4,r4,-19056
  181458:	018920c0 	call	18920c <puts>


	return 0;
  18145c:	0005883a 	mov	r2,zero

	_safe_exit:

	return -1;
}
  181460:	dfc00417 	ldw	ra,16(sp)
  181464:	dc000317 	ldw	r16,12(sp)
  181468:	dec00504 	addi	sp,sp,20
  18146c:	f800283a 	ret

00181470 <eb_establish_timing>:
	int rb;			// reduced blanking
};

static inline void eb_establish_timing(struct eb_established_timing *et, int x, int y, int r, int valid)
{
	if (valid) {
  181470:	d8800017 	ldw	r2,0(sp)
  181474:	10000626 	beq	r2,zero,181490 <eb_establish_timing+0x20>
		et->valid = 1;
  181478:	00800044 	movi	r2,1
  18147c:	20800015 	stw	r2,0(r4)
		et->width = x;
  181480:	21400115 	stw	r5,4(r4)
		et->height = y;
  181484:	21800215 	stw	r6,8(r4)
		et->refresh = r;
  181488:	21c00315 	stw	r7,12(r4)
  18148c:	00000406 	br	1814a0 <eb_establish_timing+0x30>
		et->interlaced = 0;
		et->rb = 0;
	} else {
		et->valid = 0;
  181490:	20000015 	stw	zero,0(r4)
		et->width = 0;
  181494:	20000115 	stw	zero,4(r4)
		et->height = 0;
  181498:	20000215 	stw	zero,8(r4)
		et->refresh = 0;
  18149c:	20000315 	stw	zero,12(r4)
		et->interlaced = 0;
  1814a0:	20000415 	stw	zero,16(r4)
		et->rb = 0;
  1814a4:	20000515 	stw	zero,20(r4)
  1814a8:	f800283a 	ret

001814ac <edid_decode_cea>:
}
#endif

int edid_decode_cea(struct base_edid *edid, const unsigned char *edid_bin, int ext_idx)
{
	u8 *ext_bin = (u8 *)&edid_bin[128 * (ext_idx + 1)];
  1814ac:	30c00044 	addi	r3,r6,1
  1814b0:	180691fa 	slli	r3,r3,7
    return v;
}
#endif

int edid_decode_cea(struct base_edid *edid, const unsigned char *edid_bin, int ext_idx)
{
  1814b4:	deffe804 	addi	sp,sp,-96
  1814b8:	dd001215 	stw	r20,72(sp)
  1814bc:	dfc01715 	stw	ra,92(sp)
  1814c0:	df001615 	stw	fp,88(sp)
  1814c4:	ddc01515 	stw	r23,84(sp)
  1814c8:	dd801415 	stw	r22,80(sp)
  1814cc:	dd401315 	stw	r21,76(sp)
  1814d0:	dcc01115 	stw	r19,68(sp)
  1814d4:	dc801015 	stw	r18,64(sp)
  1814d8:	dc400f15 	stw	r17,60(sp)
  1814dc:	dc000e15 	stw	r16,56(sp)
	u8 *ext_bin = (u8 *)&edid_bin[128 * (ext_idx + 1)];
  1814e0:	28e9883a 	add	r20,r5,r3
	struct edid_cea *cea = &ext_data->cea_ext;

	c = &ext_bin[1];

	// version
	if (*c != 0x03)
  1814e4:	a0c00043 	ldbu	r3,1(r20)
  1814e8:	008000c4 	movi	r2,3
  1814ec:	1883bc1e 	bne	r3,r2,1823e0 <edid_decode_cea+0xf34>
  1814f0:	2021883a 	mov	r16,r4
		return -1;	// todo: support v1 / v2

	ext_data->ext_tag = EDID_EXT_TAG_CEA;
  1814f4:	01416f04 	movi	r5,1468
  1814f8:	3009883a 	mov	r4,r6
  1814fc:	3023883a 	mov	r17,r6
  181500:	0187dd80 	call	187dd8 <__mulsi3>
  181504:	8087883a 	add	r3,r16,r2
  181508:	01000084 	movi	r4,2
  18150c:	19060b15 	stw	r4,6188(r3)
	cea->rev = *c;
  181510:	1805883a 	mov	r2,r3
  181514:	a0c00043 	ldbu	r3,1(r20)
  181518:	10c60c15 	stw	r3,6192(r2)

	// obtain offset to detail timing descriptor
	c = &ext_bin[2];
	if (*c > 4)
  18151c:	a5400083 	ldbu	r21,2(r20)
  181520:	00800104 	movi	r2,4
  181524:	1540032e 	bgeu	r2,r21,181534 <edid_decode_cea+0x88>
		dtd = &ext_bin[*c];
  181528:	a547883a 	add	r3,r20,r21
  18152c:	d8c00015 	stw	r3,0(sp)
  181530:	00000106 	br	181538 <edid_decode_cea+0x8c>
#endif

int edid_decode_cea(struct base_edid *edid, const unsigned char *edid_bin, int ext_idx)
{
	u8 *ext_bin = (u8 *)&edid_bin[128 * (ext_idx + 1)];
	u8 *c, *hv, *dtd = 0;
  181534:	d8000015 	stw	zero,0(sp)
	// obtain offset to detail timing descriptor
	c = &ext_bin[2];
	if (*c > 4)
		dtd = &ext_bin[*c];

	cea->off_dtd = c[0];
  181538:	8809883a 	mov	r4,r17
  18153c:	01416f04 	movi	r5,1468
  181540:	0187dd80 	call	187dd8 <__mulsi3>
  181544:	1025883a 	mov	r18,r2
  181548:	8085883a 	add	r2,r16,r2
  18154c:	15461115 	stw	r21,6212(r2)
	cea->nr_dtd = c[1] & 0x0f;
  181550:	1007883a 	mov	r3,r2
  181554:	a08000c3 	ldbu	r2,3(r20)
	cea->flags.audio = ((c[1] & 0x40) > 0) ? 1 : 0;
	cea->flags.ycbcr444 = ((c[1] & 0x20) > 0) ? 1 : 0;
	cea->flags.ycbcr422 = ((c[1] & 0x10) > 0) ? 1 : 0;

	// data block collection
	c = &ext_bin[4];
  181558:	a4c00104 	addi	r19,r20,4
				if (cea->db_vsdb_hdmi.multi_3d == 2) {
					cea->db_vsdb_hdmi.struct_all_3d = (d[0] << 8) | d[1];
					cea->db_vsdb_hdmi.mask_3d = (d[2] << 8) | d[3];
					vic = &d[4];
					vic_l = cea->db_vsdb_hdmi.hdmi_3d_len - 4;
				} else if (cea->db_vsdb_hdmi.multi_3d == 1) {
  18155c:	07000044 	movi	fp,1
	c = &ext_bin[2];
	if (*c > 4)
		dtd = &ext_bin[*c];

	cea->off_dtd = c[0];
	cea->nr_dtd = c[1] & 0x0f;
  181560:	108003cc 	andi	r2,r2,15
  181564:	18861215 	stw	r2,6216(r3)

	cea->flags.underscan = ((c[1] & 0x80) > 0) ? 1 : 0;
  181568:	a08000c3 	ldbu	r2,3(r20)
  18156c:	1004d1fa 	srli	r2,r2,7
  181570:	18860d15 	stw	r2,6196(r3)
	cea->flags.audio = ((c[1] & 0x40) > 0) ? 1 : 0;
  181574:	a08000c3 	ldbu	r2,3(r20)
  181578:	1080100c 	andi	r2,r2,64
  18157c:	1004c03a 	cmpne	r2,r2,zero
  181580:	18860e15 	stw	r2,6200(r3)
	cea->flags.ycbcr444 = ((c[1] & 0x20) > 0) ? 1 : 0;
  181584:	a08000c3 	ldbu	r2,3(r20)
  181588:	1080080c 	andi	r2,r2,32
  18158c:	1004c03a 	cmpne	r2,r2,zero
  181590:	18860f15 	stw	r2,6204(r3)
	cea->flags.ycbcr422 = ((c[1] & 0x10) > 0) ? 1 : 0;
  181594:	a08000c3 	ldbu	r2,3(r20)

	// data block collection
	c = &ext_bin[4];

	cea->nr_dbcs = 0;
  181598:	18061315 	stw	zero,6220(r3)
	cea->nr_dtd = c[1] & 0x0f;

	cea->flags.underscan = ((c[1] & 0x80) > 0) ? 1 : 0;
	cea->flags.audio = ((c[1] & 0x40) > 0) ? 1 : 0;
	cea->flags.ycbcr444 = ((c[1] & 0x20) > 0) ? 1 : 0;
	cea->flags.ycbcr422 = ((c[1] & 0x10) > 0) ? 1 : 0;
  18159c:	1080040c 	andi	r2,r2,16
  1815a0:	1004c03a 	cmpne	r2,r2,zero
  1815a4:	18861015 	stw	r2,6208(r3)
  1815a8:	90867504 	addi	r2,r18,6612
  1815ac:	8085883a 	add	r2,r16,r2
  1815b0:	d8800115 	stw	r2,4(sp)
  1815b4:	90863404 	addi	r2,r18,6352
  1815b8:	8085883a 	add	r2,r16,r2
  1815bc:	d8800215 	stw	r2,8(sp)

	// data block collection
	c = &ext_bin[4];

	cea->nr_dbcs = 0;
	while (c < dtd) {
  1815c0:	d8c00017 	ldw	r3,0(sp)
  1815c4:	98c2802e 	bgeu	r19,r3,181fc8 <edid_decode_cea+0xb1c>
		switch (*c >> 5) {
  1815c8:	98800003 	ldbu	r2,0(r19)
  1815cc:	01000184 	movi	r4,6
  1815d0:	1004d17a 	srli	r2,r2,5
  1815d4:	10bfffc4 	addi	r2,r2,-1
  1815d8:	10803fcc 	andi	r2,r2,255
  1815dc:	20827a36 	bltu	r4,r2,181fc8 <edid_decode_cea+0xb1c>
  1815e0:	100490ba 	slli	r2,r2,2
  1815e4:	00c00634 	movhi	r3,24
  1815e8:	18c57e04 	addi	r3,r3,5624
  1815ec:	10c5883a 	add	r2,r2,r3
  1815f0:	10800017 	ldw	r2,0(r2)
  1815f4:	1000683a 	jmp	r2
  1815f8:	00181614 	movui	zero,24664
  1815fc:	00181714 	movui	zero,24668
  181600:	00181798 	cmpnei	zero,zero,24670
  181604:	00181d04 	movi	zero,24692
  181608:	00181d44 	movi	zero,24693
  18160c:	00181fc8 	cmpgei	zero,zero,24703
  181610:	00181d74 	movhi	zero,24693
		case CEA_DB_AUDIO:
			cea->dbc_tags[cea->nr_dbcs++] = CEA_DB_AUDIO;
  181614:	8809883a 	mov	r4,r17
  181618:	01416f04 	movi	r5,1468
  18161c:	0187dd80 	call	187dd8 <__mulsi3>
  181620:	11461304 	addi	r5,r2,6220
  181624:	814b883a 	add	r5,r16,r5
  181628:	29000017 	ldw	r4,0(r5)
  18162c:	00c00044 	movi	r3,1
  181630:	9d4000c4 	addi	r21,r19,3
  181634:	21800044 	addi	r6,r4,1
  181638:	29800015 	stw	r6,0(r5)
  18163c:	808b883a 	add	r5,r16,r2
  181640:	2909883a 	add	r4,r5,r4
  181644:	20c61405 	stb	r3,6224(r4)
			cea->db_audio.nr_sad = (int)(*c & 0x1f) / 3;
  181648:	99000003 	ldbu	r4,0(r19)
  18164c:	10867404 	addi	r2,r2,6608
  181650:	014000c4 	movi	r5,3
  181654:	210007cc 	andi	r4,r4,31
  181658:	80a9883a 	add	r20,r16,r2
  18165c:	0187d180 	call	187d18 <__divsi3>
  181660:	a0800015 	stw	r2,0(r20)
			for (i = 0; i < cea->db_audio.nr_sad; ++i) {
  181664:	dd000117 	ldw	r20,4(sp)
  181668:	9dc00044 	addi	r23,r19,1
  18166c:	99c00084 	addi	r7,r19,2
  181670:	000d883a 	mov	r6,zero
				cea->db_audio.sad[i].freq = (int)(sad_bin[1] & 0x7f);

				if (cea->db_audio.sad[i].format == CEA_SAD_FMT_LPCM) {
					cea->db_audio.sad[i].resolution = (int)(sad_bin[2] & 0x07);
				} else if (cea->db_audio.sad[i].format != 0) {
					if (cea->db_audio.sad[i].format <= CEA_SAD_FMT_ATRAC) {
  181674:	02000204 	movi	r8,8
	while (c < dtd) {
		switch (*c >> 5) {
		case CEA_DB_AUDIO:
			cea->dbc_tags[cea->nr_dbcs++] = CEA_DB_AUDIO;
			cea->db_audio.nr_sad = (int)(*c & 0x1f) / 3;
			for (i = 0; i < cea->db_audio.nr_sad; ++i) {
  181678:	8809883a 	mov	r4,r17
  18167c:	01416f04 	movi	r5,1468
  181680:	d9800d15 	stw	r6,52(sp)
  181684:	d9c00b15 	stw	r7,44(sp)
  181688:	da000c15 	stw	r8,48(sp)
  18168c:	0187dd80 	call	187dd8 <__mulsi3>
  181690:	8085883a 	add	r2,r16,r2
  181694:	10867417 	ldw	r2,6608(r2)
  181698:	d9800d17 	ldw	r6,52(sp)
  18169c:	d9c00b17 	ldw	r7,44(sp)
  1816a0:	da000c17 	ldw	r8,48(sp)
  1816a4:	3082430e 	bge	r6,r2,181fb4 <edid_decode_cea+0xb08>
				u8 *sad_bin = &c[1+3*i];
				cea->db_audio.sad[i].format = (int)((*sad_bin >> 3) & 0xf);
  1816a8:	b8800003 	ldbu	r2,0(r23)
  1816ac:	1004d0fa 	srli	r2,r2,3
  1816b0:	108003cc 	andi	r2,r2,15
  1816b4:	a0800015 	stw	r2,0(r20)
				cea->db_audio.sad[i].channels = (int)(*sad_bin & 0x7) + 1;
  1816b8:	b9000003 	ldbu	r4,0(r23)
  1816bc:	210001cc 	andi	r4,r4,7
  1816c0:	21000044 	addi	r4,r4,1
  1816c4:	a1000115 	stw	r4,4(r20)
				cea->db_audio.sad[i].freq = (int)(sad_bin[1] & 0x7f);
  1816c8:	39000003 	ldbu	r4,0(r7)
  1816cc:	21001fcc 	andi	r4,r4,127
  1816d0:	a1000215 	stw	r4,8(r20)

				if (cea->db_audio.sad[i].format == CEA_SAD_FMT_LPCM) {
  1816d4:	1700041e 	bne	r2,fp,1816e8 <edid_decode_cea+0x23c>
					cea->db_audio.sad[i].resolution = (int)(sad_bin[2] & 0x07);
  1816d8:	a8800003 	ldbu	r2,0(r21)
  1816dc:	108001cc 	andi	r2,r2,7
  1816e0:	a0800315 	stw	r2,12(r20)
  1816e4:	00000506 	br	1816fc <edid_decode_cea+0x250>
				} else if (cea->db_audio.sad[i].format != 0) {
  1816e8:	10000426 	beq	r2,zero,1816fc <edid_decode_cea+0x250>
					if (cea->db_audio.sad[i].format <= CEA_SAD_FMT_ATRAC) {
  1816ec:	40800316 	blt	r8,r2,1816fc <edid_decode_cea+0x250>
						cea->db_audio.sad[i].bitrate = (int)sad_bin[2] * 8;
  1816f0:	a8800003 	ldbu	r2,0(r21)
  1816f4:	100490fa 	slli	r2,r2,3
  1816f8:	a0800415 	stw	r2,16(r20)
	while (c < dtd) {
		switch (*c >> 5) {
		case CEA_DB_AUDIO:
			cea->dbc_tags[cea->nr_dbcs++] = CEA_DB_AUDIO;
			cea->db_audio.nr_sad = (int)(*c & 0x1f) / 3;
			for (i = 0; i < cea->db_audio.nr_sad; ++i) {
  1816fc:	31800044 	addi	r6,r6,1
  181700:	ad4000c4 	addi	r21,r21,3
  181704:	bdc000c4 	addi	r23,r23,3
  181708:	a5000504 	addi	r20,r20,20
  18170c:	39c000c4 	addi	r7,r7,3
  181710:	003fd906 	br	181678 <__alt_data_end+0xfff81678>
			}
			c += (*c & 0x1f) + 1;
			break;

		case CEA_DB_VIDEO:
			cea->dbc_tags[cea->nr_dbcs++] = CEA_DB_VIDEO;
  181714:	8809883a 	mov	r4,r17
  181718:	01416f04 	movi	r5,1468
  18171c:	0187dd80 	call	187dd8 <__mulsi3>
  181720:	11461304 	addi	r5,r2,6220
  181724:	814b883a 	add	r5,r16,r5
  181728:	29000017 	ldw	r4,0(r5)
  18172c:	00c00084 	movi	r3,2
			cea->db_video.nr_svd = (int)(*c & 0x1f);
			for (i = 0; i < cea->db_video.nr_svd; ++i) {
  181730:	dd400217 	ldw	r21,8(sp)
			}
			c += (*c & 0x1f) + 1;
			break;

		case CEA_DB_VIDEO:
			cea->dbc_tags[cea->nr_dbcs++] = CEA_DB_VIDEO;
  181734:	21800044 	addi	r6,r4,1
  181738:	29800015 	stw	r6,0(r5)
  18173c:	808b883a 	add	r5,r16,r2
  181740:	2909883a 	add	r4,r5,r4
  181744:	20c61405 	stb	r3,6224(r4)
			cea->db_video.nr_svd = (int)(*c & 0x1f);
  181748:	99000003 	ldbu	r4,0(r19)
			for (i = 0; i < cea->db_video.nr_svd; ++i) {
  18174c:	9829883a 	mov	r20,r19
			c += (*c & 0x1f) + 1;
			break;

		case CEA_DB_VIDEO:
			cea->dbc_tags[cea->nr_dbcs++] = CEA_DB_VIDEO;
			cea->db_video.nr_svd = (int)(*c & 0x1f);
  181750:	210007cc 	andi	r4,r4,31
  181754:	29063315 	stw	r4,6348(r5)
			for (i = 0; i < cea->db_video.nr_svd; ++i) {
  181758:	8809883a 	mov	r4,r17
  18175c:	01416f04 	movi	r5,1468
  181760:	0187dd80 	call	187dd8 <__mulsi3>
  181764:	8085883a 	add	r2,r16,r2
  181768:	10863317 	ldw	r2,6348(r2)
  18176c:	a4efc83a 	sub	r23,r20,r19
  181770:	a5000044 	addi	r20,r20,1
  181774:	b8820f0e 	bge	r23,r2,181fb4 <edid_decode_cea+0xb08>
				cea->db_video.svd[i].native = c[1 + i] & 0x80 ? 1 : 0;
  181778:	a0800007 	ldb	r2,0(r20)
  18177c:	ad400204 	addi	r21,r21,8
  181780:	1004d7fa 	srli	r2,r2,31
  181784:	a8bffe15 	stw	r2,-8(r21)
				cea->db_video.svd[i].vic = (int)(c[1 + i] & 0x7f);
  181788:	a0800003 	ldbu	r2,0(r20)
  18178c:	10801fcc 	andi	r2,r2,127
  181790:	a8bfff15 	stw	r2,-4(r21)
  181794:	003ff006 	br	181758 <__alt_data_end+0xfff81758>
			}
			c += (*c & 0x1f) + 1;
			break;

		case CEA_DB_VENDOR:
			cea->dbc_tags[cea->nr_dbcs++] = CEA_DB_VENDOR;
  181798:	8809883a 	mov	r4,r17
  18179c:	01416f04 	movi	r5,1468
  1817a0:	0187dd80 	call	187dd8 <__mulsi3>
  1817a4:	11461304 	addi	r5,r2,6220
  1817a8:	814b883a 	add	r5,r16,r5
  1817ac:	29000017 	ldw	r4,0(r5)
  1817b0:	00c000c4 	movi	r3,3
  1817b4:	21800044 	addi	r6,r4,1
  1817b8:	29800015 	stw	r6,0(r5)
  1817bc:	808b883a 	add	r5,r16,r2
  1817c0:	2909883a 	add	r4,r5,r4
  1817c4:	20c61405 	stb	r3,6224(r4)

			if ((c[1] != 0x03) || (c[2] != 0x0c) || (c[3] != 0x00)) {
  1817c8:	99000043 	ldbu	r4,1(r19)
  1817cc:	00c000c4 	movi	r3,3
  1817d0:	20c0051e 	bne	r4,r3,1817e8 <edid_decode_cea+0x33c>
  1817d4:	99000083 	ldbu	r4,2(r19)
  1817d8:	00c00304 	movi	r3,12
  1817dc:	20c0021e 	bne	r4,r3,1817e8 <edid_decode_cea+0x33c>
  1817e0:	990000c3 	ldbu	r4,3(r19)
  1817e4:	20000626 	beq	r4,zero,181800 <edid_decode_cea+0x354>
				cea->db_vsdb_hdmi.ieee_reg_id = 0;
  1817e8:	8809883a 	mov	r4,r17
  1817ec:	01416f04 	movi	r5,1468
  1817f0:	0187dd80 	call	187dd8 <__mulsi3>
  1817f4:	8085883a 	add	r2,r16,r2
  1817f8:	1006a915 	stw	zero,6820(r2)
  1817fc:	0001ed06 	br	181fb4 <edid_decode_cea+0xb08>
				c += (*c & 0x1f) + 1;
				break;
			}

			cea->db_vsdb_hdmi.ext_len = (int)(*c & 0x1f);
  181800:	99000003 	ldbu	r4,0(r19)
  181804:	808b883a 	add	r5,r16,r2
			cea->db_vsdb_hdmi.ieee_reg_id = (c[3] << 16) | (c[2] << 8) | c[1];
  181808:	280d883a 	mov	r6,r5
				cea->db_vsdb_hdmi.ieee_reg_id = 0;
				c += (*c & 0x1f) + 1;
				break;
			}

			cea->db_vsdb_hdmi.ext_len = (int)(*c & 0x1f);
  18180c:	210007cc 	andi	r4,r4,31
  181810:	2906a815 	stw	r4,6816(r5)
			cea->db_vsdb_hdmi.ieee_reg_id = (c[3] << 16) | (c[2] << 8) | c[1];
  181814:	990000c3 	ldbu	r4,3(r19)
  181818:	1206ae04 	addi	r8,r2,6840
			cea->db_vsdb_hdmi.addr_a = (int)(c[4] >> 4);
			cea->db_vsdb_hdmi.addr_b = (int)(c[4] & 0x0f);
			cea->db_vsdb_hdmi.addr_c = (int)(c[5] >> 4);
			cea->db_vsdb_hdmi.addr_d = (int)(c[5] & 0x0f);

			if ((*c & 0x1f) >= 6) {
  18181c:	00c00144 	movi	r3,5
				c += (*c & 0x1f) + 1;
				break;
			}

			cea->db_vsdb_hdmi.ext_len = (int)(*c & 0x1f);
			cea->db_vsdb_hdmi.ieee_reg_id = (c[3] << 16) | (c[2] << 8) | c[1];
  181820:	200a943a 	slli	r5,r4,16
  181824:	99000083 	ldbu	r4,2(r19)
  181828:	11c6b104 	addi	r7,r2,6852
			cea->db_vsdb_hdmi.addr_b = (int)(c[4] & 0x0f);
			cea->db_vsdb_hdmi.addr_c = (int)(c[5] >> 4);
			cea->db_vsdb_hdmi.addr_d = (int)(c[5] & 0x0f);

			if ((*c & 0x1f) >= 6) {
				cea->db_vsdb_hdmi.ai = (c[6] & 0x80) ? 1 : 0;
  18182c:	8211883a 	add	r8,r16,r8
				c += (*c & 0x1f) + 1;
				break;
			}

			cea->db_vsdb_hdmi.ext_len = (int)(*c & 0x1f);
			cea->db_vsdb_hdmi.ieee_reg_id = (c[3] << 16) | (c[2] << 8) | c[1];
  181830:	2008923a 	slli	r4,r4,8
  181834:	2908b03a 	or	r4,r5,r4
  181838:	99400043 	ldbu	r5,1(r19)
  18183c:	2148b03a 	or	r4,r4,r5
  181840:	3106a915 	stw	r4,6820(r6)

			cea->db_vsdb_hdmi.addr_a = (int)(c[4] >> 4);
  181844:	99000103 	ldbu	r4,4(r19)
  181848:	1146af04 	addi	r5,r2,6844
  18184c:	2008d13a 	srli	r4,r4,4
  181850:	3106aa15 	stw	r4,6824(r6)
			cea->db_vsdb_hdmi.addr_b = (int)(c[4] & 0x0f);
  181854:	99000103 	ldbu	r4,4(r19)
  181858:	210003cc 	andi	r4,r4,15
  18185c:	3106ab15 	stw	r4,6828(r6)
			cea->db_vsdb_hdmi.addr_c = (int)(c[5] >> 4);
  181860:	99000143 	ldbu	r4,5(r19)
  181864:	2008d13a 	srli	r4,r4,4
  181868:	3106ac15 	stw	r4,6832(r6)
			cea->db_vsdb_hdmi.addr_d = (int)(c[5] & 0x0f);
  18186c:	99000143 	ldbu	r4,5(r19)
  181870:	210003cc 	andi	r4,r4,15
  181874:	3106ad15 	stw	r4,6836(r6)

			if ((*c & 0x1f) >= 6) {
  181878:	9a400003 	ldbu	r9,0(r19)
  18187c:	1186b004 	addi	r6,r2,6848
  181880:	1106b204 	addi	r4,r2,6856
  181884:	4a4007cc 	andi	r9,r9,31
  181888:	1086b304 	addi	r2,r2,6860
  18188c:	1a401c2e 	bgeu	r3,r9,181900 <edid_decode_cea+0x454>
				cea->db_vsdb_hdmi.ai = (c[6] & 0x80) ? 1 : 0;
  181890:	9a400187 	ldb	r9,6(r19)
				cea->db_vsdb_hdmi.bpp48 = (c[6] & 0x40) ? 1 : 0;
  181894:	81cf883a 	add	r7,r16,r7
				cea->db_vsdb_hdmi.bpp36 = (c[6] & 0x20) ? 1 : 0;
  181898:	818d883a 	add	r6,r16,r6
			cea->db_vsdb_hdmi.addr_b = (int)(c[4] & 0x0f);
			cea->db_vsdb_hdmi.addr_c = (int)(c[5] >> 4);
			cea->db_vsdb_hdmi.addr_d = (int)(c[5] & 0x0f);

			if ((*c & 0x1f) >= 6) {
				cea->db_vsdb_hdmi.ai = (c[6] & 0x80) ? 1 : 0;
  18189c:	4812d7fa 	srli	r9,r9,31
				cea->db_vsdb_hdmi.bpp48 = (c[6] & 0x40) ? 1 : 0;
				cea->db_vsdb_hdmi.bpp36 = (c[6] & 0x20) ? 1 : 0;
				cea->db_vsdb_hdmi.bpp30 = (c[6] & 0x10) ? 1 : 0;
  1818a0:	814b883a 	add	r5,r16,r5
				cea->db_vsdb_hdmi.ycbcr444 = (c[6] & 0x08) ? 1 : 0;
  1818a4:	8109883a 	add	r4,r16,r4
			cea->db_vsdb_hdmi.addr_b = (int)(c[4] & 0x0f);
			cea->db_vsdb_hdmi.addr_c = (int)(c[5] >> 4);
			cea->db_vsdb_hdmi.addr_d = (int)(c[5] & 0x0f);

			if ((*c & 0x1f) >= 6) {
				cea->db_vsdb_hdmi.ai = (c[6] & 0x80) ? 1 : 0;
  1818a8:	42400015 	stw	r9,0(r8)
				cea->db_vsdb_hdmi.bpp48 = (c[6] & 0x40) ? 1 : 0;
  1818ac:	9a000183 	ldbu	r8,6(r19)
				cea->db_vsdb_hdmi.bpp36 = (c[6] & 0x20) ? 1 : 0;
				cea->db_vsdb_hdmi.bpp30 = (c[6] & 0x10) ? 1 : 0;
				cea->db_vsdb_hdmi.ycbcr444 = (c[6] & 0x08) ? 1 : 0;
				cea->db_vsdb_hdmi.dvi_dual = (c[6] & 0x01) ? 1 : 0;
  1818b0:	8085883a 	add	r2,r16,r2
			cea->db_vsdb_hdmi.addr_c = (int)(c[5] >> 4);
			cea->db_vsdb_hdmi.addr_d = (int)(c[5] & 0x0f);

			if ((*c & 0x1f) >= 6) {
				cea->db_vsdb_hdmi.ai = (c[6] & 0x80) ? 1 : 0;
				cea->db_vsdb_hdmi.bpp48 = (c[6] & 0x40) ? 1 : 0;
  1818b4:	4010d1ba 	srli	r8,r8,6
  1818b8:	4200004c 	andi	r8,r8,1
  1818bc:	3a000015 	stw	r8,0(r7)
				cea->db_vsdb_hdmi.bpp36 = (c[6] & 0x20) ? 1 : 0;
  1818c0:	99c00183 	ldbu	r7,6(r19)
  1818c4:	38ced83a 	srl	r7,r7,r3
  1818c8:	39c0004c 	andi	r7,r7,1
  1818cc:	31c00015 	stw	r7,0(r6)
				cea->db_vsdb_hdmi.bpp30 = (c[6] & 0x10) ? 1 : 0;
  1818d0:	99800183 	ldbu	r6,6(r19)
  1818d4:	300cd13a 	srli	r6,r6,4
  1818d8:	3180004c 	andi	r6,r6,1
  1818dc:	29800015 	stw	r6,0(r5)
				cea->db_vsdb_hdmi.ycbcr444 = (c[6] & 0x08) ? 1 : 0;
  1818e0:	99400183 	ldbu	r5,6(r19)
  1818e4:	280ad0fa 	srli	r5,r5,3
  1818e8:	2940004c 	andi	r5,r5,1
  1818ec:	21400015 	stw	r5,0(r4)
				cea->db_vsdb_hdmi.dvi_dual = (c[6] & 0x01) ? 1 : 0;
  1818f0:	99000183 	ldbu	r4,6(r19)
  1818f4:	2100004c 	andi	r4,r4,1
  1818f8:	11000015 	stw	r4,0(r2)
  1818fc:	00000b06 	br	18192c <edid_decode_cea+0x480>
			} else {
				cea->db_vsdb_hdmi.ai = 0;
  181900:	40000015 	stw	zero,0(r8)
				cea->db_vsdb_hdmi.bpp48 = 0;
  181904:	81cf883a 	add	r7,r16,r7
  181908:	38000015 	stw	zero,0(r7)
				cea->db_vsdb_hdmi.bpp36 = 0;
  18190c:	818d883a 	add	r6,r16,r6
  181910:	30000015 	stw	zero,0(r6)
				cea->db_vsdb_hdmi.bpp30 = 0;
  181914:	814b883a 	add	r5,r16,r5
  181918:	28000015 	stw	zero,0(r5)
				cea->db_vsdb_hdmi.ycbcr444 = 0;
  18191c:	8109883a 	add	r4,r16,r4
  181920:	20000015 	stw	zero,0(r4)
				cea->db_vsdb_hdmi.dvi_dual = 0;
  181924:	8085883a 	add	r2,r16,r2
  181928:	10000015 	stw	zero,0(r2)
			}

			if ((*c & 0x1f) >= 7) {
  18192c:	98800003 	ldbu	r2,0(r19)
  181930:	01000184 	movi	r4,6
  181934:	108007cc 	andi	r2,r2,31
  181938:	20800a2e 	bgeu	r4,r2,181964 <edid_decode_cea+0x4b8>
				cea->db_vsdb_hdmi.max_tmds_clk = c[7] * 5;
  18193c:	8809883a 	mov	r4,r17
  181940:	01416f04 	movi	r5,1468
  181944:	0187dd80 	call	187dd8 <__mulsi3>
  181948:	990001c3 	ldbu	r4,7(r19)
  18194c:	1086b704 	addi	r2,r2,6876
  181950:	01400144 	movi	r5,5
  181954:	80a9883a 	add	r20,r16,r2
  181958:	0187dd80 	call	187dd8 <__mulsi3>
  18195c:	a0800015 	stw	r2,0(r20)
  181960:	00000506 	br	181978 <edid_decode_cea+0x4cc>
			} else {
				cea->db_vsdb_hdmi.max_tmds_clk = 0;
  181964:	8809883a 	mov	r4,r17
  181968:	01416f04 	movi	r5,1468
  18196c:	0187dd80 	call	187dd8 <__mulsi3>
  181970:	8085883a 	add	r2,r16,r2
  181974:	1006b715 	stw	zero,6876(r2)
			}

			cea->db_vsdb_hdmi.p_latency = 0;
  181978:	8809883a 	mov	r4,r17
  18197c:	01416f04 	movi	r5,1468
  181980:	0187dd80 	call	187dd8 <__mulsi3>
  181984:	1186b404 	addi	r6,r2,6864
  181988:	818d883a 	add	r6,r16,r6
  18198c:	30000015 	stw	zero,0(r6)
			cea->db_vsdb_hdmi.i_latency = 0;
  181990:	8089883a 	add	r4,r16,r2
			cea->db_vsdb_hdmi.hdmi_video = 0;

			cea->db_vsdb_hdmi.vid_latency_p = 0;
  181994:	1146b804 	addi	r5,r2,6880
			} else {
				cea->db_vsdb_hdmi.max_tmds_clk = 0;
			}

			cea->db_vsdb_hdmi.p_latency = 0;
			cea->db_vsdb_hdmi.i_latency = 0;
  181998:	2006b515 	stw	zero,6868(r4)
			cea->db_vsdb_hdmi.hdmi_video = 0;
  18199c:	2006b615 	stw	zero,6872(r4)

			cea->db_vsdb_hdmi.vid_latency_p = 0;
  1819a0:	814b883a 	add	r5,r16,r5
			cea->db_vsdb_hdmi.aud_latency_p = 0;
  1819a4:	1106b904 	addi	r4,r2,6884

			cea->db_vsdb_hdmi.p_latency = 0;
			cea->db_vsdb_hdmi.i_latency = 0;
			cea->db_vsdb_hdmi.hdmi_video = 0;

			cea->db_vsdb_hdmi.vid_latency_p = 0;
  1819a8:	28000015 	stw	zero,0(r5)
			cea->db_vsdb_hdmi.aud_latency_p = 0;
  1819ac:	8109883a 	add	r4,r16,r4
  1819b0:	20000015 	stw	zero,0(r4)
			cea->db_vsdb_hdmi.vid_latency_i = 0;
  1819b4:	808f883a 	add	r7,r16,r2
  1819b8:	3806ba15 	stw	zero,6888(r7)
			cea->db_vsdb_hdmi.aud_latency_i = 0;
  1819bc:	3806bb15 	stw	zero,6892(r7)

			if ((*c & 0x1f) >= 8) {
  1819c0:	98800003 	ldbu	r2,0(r19)
  1819c4:	00c001c4 	movi	r3,7
  1819c8:	108007cc 	andi	r2,r2,31
  1819cc:	1880292e 	bgeu	r3,r2,181a74 <edid_decode_cea+0x5c8>
				u8 c8 = c[8];
  1819d0:	9d000203 	ldbu	r20,8(r19)
				hv = &c[9];
				if (c8 & 0x80) {
  1819d4:	a0803fcc 	andi	r2,r20,255
  1819d8:	1080201c 	xori	r2,r2,128
  1819dc:	10bfe004 	addi	r2,r2,-128
  1819e0:	10000216 	blt	r2,zero,1819ec <edid_decode_cea+0x540>
			cea->db_vsdb_hdmi.vid_latency_i = 0;
			cea->db_vsdb_hdmi.aud_latency_i = 0;

			if ((*c & 0x1f) >= 8) {
				u8 c8 = c[8];
				hv = &c[9];
  1819e4:	9d800244 	addi	r22,r19,9
  1819e8:	00000a06 	br	181a14 <edid_decode_cea+0x568>
				if (c8 & 0x80) {
					cea->db_vsdb_hdmi.p_latency = 1;
  1819ec:	37000015 	stw	fp,0(r6)
					cea->db_vsdb_hdmi.vid_latency_p = (hv[0] - 1) * 2;  // (ms)
  1819f0:	98800243 	ldbu	r2,9(r19)
					cea->db_vsdb_hdmi.aud_latency_p = (hv[1] - 1) * 2;  // (ms)
					hv += 2;
  1819f4:	9d8002c4 	addi	r22,r19,11
			if ((*c & 0x1f) >= 8) {
				u8 c8 = c[8];
				hv = &c[9];
				if (c8 & 0x80) {
					cea->db_vsdb_hdmi.p_latency = 1;
					cea->db_vsdb_hdmi.vid_latency_p = (hv[0] - 1) * 2;  // (ms)
  1819f8:	10bfffc4 	addi	r2,r2,-1
  1819fc:	1085883a 	add	r2,r2,r2
  181a00:	28800015 	stw	r2,0(r5)
					cea->db_vsdb_hdmi.aud_latency_p = (hv[1] - 1) * 2;  // (ms)
  181a04:	98800283 	ldbu	r2,10(r19)
  181a08:	10bfffc4 	addi	r2,r2,-1
  181a0c:	1085883a 	add	r2,r2,r2
  181a10:	20800015 	stw	r2,0(r4)
					hv += 2;
				}
				if (c8 & 0x40) {
  181a14:	a080100c 	andi	r2,r20,64
  181a18:	10000f26 	beq	r2,zero,181a58 <edid_decode_cea+0x5ac>
					cea->db_vsdb_hdmi.i_latency = 1;
  181a1c:	8809883a 	mov	r4,r17
  181a20:	01416f04 	movi	r5,1468
  181a24:	0187dd80 	call	187dd8 <__mulsi3>
  181a28:	8089883a 	add	r4,r16,r2
  181a2c:	2706b515 	stw	fp,6868(r4)
					cea->db_vsdb_hdmi.vid_latency_i = (hv[0] - 1) * 2;  // (ms)
  181a30:	200b883a 	mov	r5,r4
  181a34:	b1000003 	ldbu	r4,0(r22)
					cea->db_vsdb_hdmi.aud_latency_i = (hv[1] - 1) * 2;  // (ms)
					hv += 2;
  181a38:	b5800084 	addi	r22,r22,2
					cea->db_vsdb_hdmi.aud_latency_p = (hv[1] - 1) * 2;  // (ms)
					hv += 2;
				}
				if (c8 & 0x40) {
					cea->db_vsdb_hdmi.i_latency = 1;
					cea->db_vsdb_hdmi.vid_latency_i = (hv[0] - 1) * 2;  // (ms)
  181a3c:	213fffc4 	addi	r4,r4,-1
  181a40:	2109883a 	add	r4,r4,r4
  181a44:	2906ba15 	stw	r4,6888(r5)
					cea->db_vsdb_hdmi.aud_latency_i = (hv[1] - 1) * 2;  // (ms)
  181a48:	b13fffc3 	ldbu	r4,-1(r22)
  181a4c:	213fffc4 	addi	r4,r4,-1
  181a50:	2109883a 	add	r4,r4,r4
  181a54:	2906bb15 	stw	r4,6892(r5)
					hv += 2;
				}
				if (c8 & 0x20) {
  181a58:	a500080c 	andi	r20,r20,32
  181a5c:	a0000526 	beq	r20,zero,181a74 <edid_decode_cea+0x5c8>
					cea->db_vsdb_hdmi.hdmi_video = 1;
  181a60:	8809883a 	mov	r4,r17
  181a64:	01416f04 	movi	r5,1468
  181a68:	0187dd80 	call	187dd8 <__mulsi3>
  181a6c:	8085883a 	add	r2,r16,r2
  181a70:	1706b615 	stw	fp,6872(r2)
				}
			}

			if (cea->db_vsdb_hdmi.hdmi_video > 0) {
  181a74:	8809883a 	mov	r4,r17
  181a78:	01416f04 	movi	r5,1468
  181a7c:	0187dd80 	call	187dd8 <__mulsi3>
  181a80:	8089883a 	add	r4,r16,r2
  181a84:	2206b617 	ldw	r8,6872(r4)
  181a88:	1186bc04 	addi	r6,r2,6896
  181a8c:	1146bd04 	addi	r5,r2,6900
  181a90:	1106be04 	addi	r4,r2,6904
  181a94:	11c6bf04 	addi	r7,r2,6908
				cea->db_vsdb_hdmi.present_3d = hv[0] & 0x80 ? 1 : 0;
  181a98:	818d883a 	add	r6,r16,r6
  181a9c:	1086c004 	addi	r2,r2,6912
				if (c8 & 0x20) {
					cea->db_vsdb_hdmi.hdmi_video = 1;
				}
			}

			if (cea->db_vsdb_hdmi.hdmi_video > 0) {
  181aa0:	0200160e 	bge	zero,r8,181afc <edid_decode_cea+0x650>
				cea->db_vsdb_hdmi.present_3d = hv[0] & 0x80 ? 1 : 0;
  181aa4:	b2000007 	ldb	r8,0(r22)
				cea->db_vsdb_hdmi.multi_3d = (hv[0] >> 5) & 0x03;
  181aa8:	814b883a 	add	r5,r16,r5
				cea->db_vsdb_hdmi.image_size = (hv[0] >> 3) & 0x03;
  181aac:	8109883a 	add	r4,r16,r4
					cea->db_vsdb_hdmi.hdmi_video = 1;
				}
			}

			if (cea->db_vsdb_hdmi.hdmi_video > 0) {
				cea->db_vsdb_hdmi.present_3d = hv[0] & 0x80 ? 1 : 0;
  181ab0:	4010d7fa 	srli	r8,r8,31
				cea->db_vsdb_hdmi.multi_3d = (hv[0] >> 5) & 0x03;
				cea->db_vsdb_hdmi.image_size = (hv[0] >> 3) & 0x03;
				cea->db_vsdb_hdmi.hdmi_xx_len = hv[1] >> 5;
  181ab4:	81cf883a 	add	r7,r16,r7
				cea->db_vsdb_hdmi.hdmi_3d_len = hv[1] & 0x1f;
  181ab8:	8085883a 	add	r2,r16,r2
					cea->db_vsdb_hdmi.hdmi_video = 1;
				}
			}

			if (cea->db_vsdb_hdmi.hdmi_video > 0) {
				cea->db_vsdb_hdmi.present_3d = hv[0] & 0x80 ? 1 : 0;
  181abc:	32000015 	stw	r8,0(r6)
				cea->db_vsdb_hdmi.multi_3d = (hv[0] >> 5) & 0x03;
  181ac0:	b1800003 	ldbu	r6,0(r22)
  181ac4:	300cd17a 	srli	r6,r6,5
  181ac8:	318000cc 	andi	r6,r6,3
  181acc:	29800015 	stw	r6,0(r5)
				cea->db_vsdb_hdmi.image_size = (hv[0] >> 3) & 0x03;
  181ad0:	b1400003 	ldbu	r5,0(r22)
  181ad4:	280ad0fa 	srli	r5,r5,3
  181ad8:	294000cc 	andi	r5,r5,3
  181adc:	21400015 	stw	r5,0(r4)
				cea->db_vsdb_hdmi.hdmi_xx_len = hv[1] >> 5;
  181ae0:	b1000043 	ldbu	r4,1(r22)
  181ae4:	2008d17a 	srli	r4,r4,5
  181ae8:	39000015 	stw	r4,0(r7)
				cea->db_vsdb_hdmi.hdmi_3d_len = hv[1] & 0x1f;
  181aec:	b1000043 	ldbu	r4,1(r22)
  181af0:	210007cc 	andi	r4,r4,31
  181af4:	11000015 	stw	r4,0(r2)
  181af8:	00000906 	br	181b20 <edid_decode_cea+0x674>
			} else {
				cea->db_vsdb_hdmi.present_3d = 0;
  181afc:	30000015 	stw	zero,0(r6)
				cea->db_vsdb_hdmi.multi_3d = 0;
  181b00:	814b883a 	add	r5,r16,r5
  181b04:	28000015 	stw	zero,0(r5)
				cea->db_vsdb_hdmi.image_size = 0;
  181b08:	8109883a 	add	r4,r16,r4
  181b0c:	20000015 	stw	zero,0(r4)
				cea->db_vsdb_hdmi.hdmi_xx_len = 0;
  181b10:	81cf883a 	add	r7,r16,r7
  181b14:	38000015 	stw	zero,0(r7)
				cea->db_vsdb_hdmi.hdmi_3d_len = 0;
  181b18:	8085883a 	add	r2,r16,r2
  181b1c:	10000015 	stw	zero,0(r2)
			}

			if (cea->db_vsdb_hdmi.hdmi_3d_len > 0) {
  181b20:	8809883a 	mov	r4,r17
  181b24:	01416f04 	movi	r5,1468
  181b28:	0187dd80 	call	187dd8 <__mulsi3>
  181b2c:	8089883a 	add	r4,r16,r2
  181b30:	25c6c017 	ldw	r23,6912(r4)
  181b34:	1146c104 	addi	r5,r2,6916
  181b38:	1106c204 	addi	r4,r2,6920
  181b3c:	05c06c0e 	bge	zero,r23,181cf0 <edid_decode_cea+0x844>
				u8 *d = &hv[2 + cea->db_vsdb_hdmi.hdmi_xx_len];  // data pointer starting from 3D_Structure_ALL_15...8
  181b40:	808d883a 	add	r6,r16,r2
  181b44:	3506bf17 	ldw	r20,6908(r6)
				u8 *vic = 0;	// data pointer starting from 2D_VIC_Order_1 + 3D_Structure_1
				int vic_l = 0;  // remaining 3D size starting from 2D_VIC_Order_1 + 3D_Structure_1

				if (cea->db_vsdb_hdmi.multi_3d == 2) {
  181b48:	3086bd17 	ldw	r2,6900(r6)
  181b4c:	00c00084 	movi	r3,2
				cea->db_vsdb_hdmi.hdmi_xx_len = 0;
				cea->db_vsdb_hdmi.hdmi_3d_len = 0;
			}

			if (cea->db_vsdb_hdmi.hdmi_3d_len > 0) {
				u8 *d = &hv[2 + cea->db_vsdb_hdmi.hdmi_xx_len];  // data pointer starting from 3D_Structure_ALL_15...8
  181b50:	a5000084 	addi	r20,r20,2
  181b54:	b529883a 	add	r20,r22,r20
				u8 *vic = 0;	// data pointer starting from 2D_VIC_Order_1 + 3D_Structure_1
				int vic_l = 0;  // remaining 3D size starting from 2D_VIC_Order_1 + 3D_Structure_1

				if (cea->db_vsdb_hdmi.multi_3d == 2) {
					cea->db_vsdb_hdmi.struct_all_3d = (d[0] << 8) | d[1];
  181b58:	814b883a 	add	r5,r16,r5
			if (cea->db_vsdb_hdmi.hdmi_3d_len > 0) {
				u8 *d = &hv[2 + cea->db_vsdb_hdmi.hdmi_xx_len];  // data pointer starting from 3D_Structure_ALL_15...8
				u8 *vic = 0;	// data pointer starting from 2D_VIC_Order_1 + 3D_Structure_1
				int vic_l = 0;  // remaining 3D size starting from 2D_VIC_Order_1 + 3D_Structure_1

				if (cea->db_vsdb_hdmi.multi_3d == 2) {
  181b5c:	10c00e1e 	bne	r2,r3,181b98 <edid_decode_cea+0x6ec>
					cea->db_vsdb_hdmi.struct_all_3d = (d[0] << 8) | d[1];
  181b60:	a0800003 	ldbu	r2,0(r20)
					cea->db_vsdb_hdmi.mask_3d = (d[2] << 8) | d[3];
  181b64:	8109883a 	add	r4,r16,r4
					vic = &d[4];
  181b68:	a5000104 	addi	r20,r20,4
				u8 *d = &hv[2 + cea->db_vsdb_hdmi.hdmi_xx_len];  // data pointer starting from 3D_Structure_ALL_15...8
				u8 *vic = 0;	// data pointer starting from 2D_VIC_Order_1 + 3D_Structure_1
				int vic_l = 0;  // remaining 3D size starting from 2D_VIC_Order_1 + 3D_Structure_1

				if (cea->db_vsdb_hdmi.multi_3d == 2) {
					cea->db_vsdb_hdmi.struct_all_3d = (d[0] << 8) | d[1];
  181b6c:	100c923a 	slli	r6,r2,8
  181b70:	a0bfff43 	ldbu	r2,-3(r20)
					cea->db_vsdb_hdmi.mask_3d = (d[2] << 8) | d[3];
					vic = &d[4];
					vic_l = cea->db_vsdb_hdmi.hdmi_3d_len - 4;
  181b74:	bdffff04 	addi	r23,r23,-4
				u8 *d = &hv[2 + cea->db_vsdb_hdmi.hdmi_xx_len];  // data pointer starting from 3D_Structure_ALL_15...8
				u8 *vic = 0;	// data pointer starting from 2D_VIC_Order_1 + 3D_Structure_1
				int vic_l = 0;  // remaining 3D size starting from 2D_VIC_Order_1 + 3D_Structure_1

				if (cea->db_vsdb_hdmi.multi_3d == 2) {
					cea->db_vsdb_hdmi.struct_all_3d = (d[0] << 8) | d[1];
  181b78:	3084b03a 	or	r2,r6,r2
  181b7c:	28800015 	stw	r2,0(r5)
					cea->db_vsdb_hdmi.mask_3d = (d[2] << 8) | d[3];
  181b80:	a0bfff83 	ldbu	r2,-2(r20)
  181b84:	100a923a 	slli	r5,r2,8
  181b88:	a0bfffc3 	ldbu	r2,-1(r20)
  181b8c:	2884b03a 	or	r2,r5,r2
  181b90:	20800015 	stw	r2,0(r4)
  181b94:	00001006 	br	181bd8 <edid_decode_cea+0x72c>
					vic = &d[4];
					vic_l = cea->db_vsdb_hdmi.hdmi_3d_len - 4;
				} else if (cea->db_vsdb_hdmi.multi_3d == 1) {
  181b98:	17000a1e 	bne	r2,fp,181bc4 <edid_decode_cea+0x718>
					cea->db_vsdb_hdmi.struct_all_3d = (d[0] << 8) | d[1];
  181b9c:	a0800003 	ldbu	r2,0(r20)
					cea->db_vsdb_hdmi.mask_3d = 0;
  181ba0:	8109883a 	add	r4,r16,r4
					vic = &d[2];
  181ba4:	a5000084 	addi	r20,r20,2
					cea->db_vsdb_hdmi.struct_all_3d = (d[0] << 8) | d[1];
					cea->db_vsdb_hdmi.mask_3d = (d[2] << 8) | d[3];
					vic = &d[4];
					vic_l = cea->db_vsdb_hdmi.hdmi_3d_len - 4;
				} else if (cea->db_vsdb_hdmi.multi_3d == 1) {
					cea->db_vsdb_hdmi.struct_all_3d = (d[0] << 8) | d[1];
  181ba8:	100c923a 	slli	r6,r2,8
  181bac:	a0bfffc3 	ldbu	r2,-1(r20)
					cea->db_vsdb_hdmi.mask_3d = 0;
					vic = &d[2];
					vic_l = cea->db_vsdb_hdmi.hdmi_3d_len - 2;
  181bb0:	bdffff84 	addi	r23,r23,-2
					cea->db_vsdb_hdmi.struct_all_3d = (d[0] << 8) | d[1];
					cea->db_vsdb_hdmi.mask_3d = (d[2] << 8) | d[3];
					vic = &d[4];
					vic_l = cea->db_vsdb_hdmi.hdmi_3d_len - 4;
				} else if (cea->db_vsdb_hdmi.multi_3d == 1) {
					cea->db_vsdb_hdmi.struct_all_3d = (d[0] << 8) | d[1];
  181bb4:	3084b03a 	or	r2,r6,r2
  181bb8:	28800015 	stw	r2,0(r5)
					cea->db_vsdb_hdmi.mask_3d = 0;
  181bbc:	20000015 	stw	zero,0(r4)
  181bc0:	00000506 	br	181bd8 <edid_decode_cea+0x72c>
					vic = &d[2];
					vic_l = cea->db_vsdb_hdmi.hdmi_3d_len - 2;
				} else {
					cea->db_vsdb_hdmi.struct_all_3d = 0;
  181bc4:	28000015 	stw	zero,0(r5)
					cea->db_vsdb_hdmi.mask_3d = 0;
  181bc8:	8109883a 	add	r4,r16,r4
  181bcc:	20000015 	stw	zero,0(r4)
			}

			if (cea->db_vsdb_hdmi.hdmi_3d_len > 0) {
				u8 *d = &hv[2 + cea->db_vsdb_hdmi.hdmi_xx_len];  // data pointer starting from 3D_Structure_ALL_15...8
				u8 *vic = 0;	// data pointer starting from 2D_VIC_Order_1 + 3D_Structure_1
				int vic_l = 0;  // remaining 3D size starting from 2D_VIC_Order_1 + 3D_Structure_1
  181bd0:	002f883a 	mov	r23,zero
				cea->db_vsdb_hdmi.hdmi_3d_len = 0;
			}

			if (cea->db_vsdb_hdmi.hdmi_3d_len > 0) {
				u8 *d = &hv[2 + cea->db_vsdb_hdmi.hdmi_xx_len];  // data pointer starting from 3D_Structure_ALL_15...8
				u8 *vic = 0;	// data pointer starting from 2D_VIC_Order_1 + 3D_Structure_1
  181bd4:	0029883a 	mov	r20,zero
				} else {
					cea->db_vsdb_hdmi.struct_all_3d = 0;
					cea->db_vsdb_hdmi.mask_3d = 0;
				}

				cea->db_vsdb_hdmi.nr_vic_3d = 0;
  181bd8:	8809883a 	mov	r4,r17
  181bdc:	01416f04 	movi	r5,1468
  181be0:	0187dd80 	call	187dd8 <__mulsi3>
  181be4:	8085883a 	add	r2,r16,r2
  181be8:	1006c315 	stw	zero,6924(r2)
				while (vic_l > 0) {
  181bec:	05c0f10e 	bge	zero,r23,181fb4 <edid_decode_cea+0xb08>
					cea->db_vsdb_hdmi.vic_3d[cea->db_vsdb_hdmi.nr_vic_3d].vic_2d = vic[0] >> 4;
  181bf0:	8809883a 	mov	r4,r17
  181bf4:	01416f04 	movi	r5,1468
  181bf8:	0187dd80 	call	187dd8 <__mulsi3>
  181bfc:	1186c304 	addi	r6,r2,6924
  181c00:	818d883a 	add	r6,r16,r6
  181c04:	31000017 	ldw	r4,0(r6)
  181c08:	01400304 	movi	r5,12
  181c0c:	102b883a 	mov	r21,r2
  181c10:	d9800d15 	stw	r6,52(sp)
  181c14:	0187dd80 	call	187dd8 <__mulsi3>
  181c18:	a1000003 	ldbu	r4,0(r20)
  181c1c:	1545883a 	add	r2,r2,r21
  181c20:	8085883a 	add	r2,r16,r2
  181c24:	2008d13a 	srli	r4,r4,4
					cea->db_vsdb_hdmi.vic_3d[cea->db_vsdb_hdmi.nr_vic_3d].struct_3d = vic[0] & 0x0f;
  181c28:	01400304 	movi	r5,12
					cea->db_vsdb_hdmi.mask_3d = 0;
				}

				cea->db_vsdb_hdmi.nr_vic_3d = 0;
				while (vic_l > 0) {
					cea->db_vsdb_hdmi.vic_3d[cea->db_vsdb_hdmi.nr_vic_3d].vic_2d = vic[0] >> 4;
  181c2c:	1106c415 	stw	r4,6928(r2)
					cea->db_vsdb_hdmi.vic_3d[cea->db_vsdb_hdmi.nr_vic_3d].struct_3d = vic[0] & 0x0f;
  181c30:	d9800d17 	ldw	r6,52(sp)
  181c34:	31000017 	ldw	r4,0(r6)
  181c38:	0187dd80 	call	187dd8 <__mulsi3>
  181c3c:	a1000003 	ldbu	r4,0(r20)
  181c40:	1545883a 	add	r2,r2,r21
  181c44:	8085883a 	add	r2,r16,r2
  181c48:	210003cc 	andi	r4,r4,15
  181c4c:	1106c515 	stw	r4,6932(r2)
					if (cea->db_vsdb_hdmi.vic_3d[cea->db_vsdb_hdmi.nr_vic_3d].struct_3d >= 0x08) {
  181c50:	d9800d17 	ldw	r6,52(sp)
  181c54:	01400304 	movi	r5,12
  181c58:	31800017 	ldw	r6,0(r6)
  181c5c:	3009883a 	mov	r4,r6
  181c60:	d9800d15 	stw	r6,52(sp)
  181c64:	0187dd80 	call	187dd8 <__mulsi3>
  181c68:	1545883a 	add	r2,r2,r21
  181c6c:	8085883a 	add	r2,r16,r2
  181c70:	1086c517 	ldw	r2,6932(r2)
  181c74:	010001c4 	movi	r4,7
  181c78:	d9800d17 	ldw	r6,52(sp)
  181c7c:	20800b0e 	bge	r4,r2,181cac <edid_decode_cea+0x800>
						cea->db_vsdb_hdmi.vic_3d[cea->db_vsdb_hdmi.nr_vic_3d].detail_3d = vic[1] >> 4;
  181c80:	3009883a 	mov	r4,r6
  181c84:	01400304 	movi	r5,12
  181c88:	0187dd80 	call	187dd8 <__mulsi3>
  181c8c:	a1000043 	ldbu	r4,1(r20)
  181c90:	1545883a 	add	r2,r2,r21
  181c94:	8085883a 	add	r2,r16,r2
  181c98:	2008d13a 	srli	r4,r4,4
						vic += 2;
  181c9c:	a5000084 	addi	r20,r20,2
						vic_l -= 2;
  181ca0:	bdffff84 	addi	r23,r23,-2
				cea->db_vsdb_hdmi.nr_vic_3d = 0;
				while (vic_l > 0) {
					cea->db_vsdb_hdmi.vic_3d[cea->db_vsdb_hdmi.nr_vic_3d].vic_2d = vic[0] >> 4;
					cea->db_vsdb_hdmi.vic_3d[cea->db_vsdb_hdmi.nr_vic_3d].struct_3d = vic[0] & 0x0f;
					if (cea->db_vsdb_hdmi.vic_3d[cea->db_vsdb_hdmi.nr_vic_3d].struct_3d >= 0x08) {
						cea->db_vsdb_hdmi.vic_3d[cea->db_vsdb_hdmi.nr_vic_3d].detail_3d = vic[1] >> 4;
  181ca4:	1106c615 	stw	r4,6936(r2)
  181ca8:	00000806 	br	181ccc <edid_decode_cea+0x820>
						vic += 2;
						vic_l -= 2;
					} else {
						cea->db_vsdb_hdmi.vic_3d[cea->db_vsdb_hdmi.nr_vic_3d].detail_3d = 0;
  181cac:	3009883a 	mov	r4,r6
  181cb0:	01400304 	movi	r5,12
  181cb4:	0187dd80 	call	187dd8 <__mulsi3>
  181cb8:	1545883a 	add	r2,r2,r21
  181cbc:	8085883a 	add	r2,r16,r2
  181cc0:	1006c615 	stw	zero,6936(r2)
						++vic;
  181cc4:	a5000044 	addi	r20,r20,1
						--vic_l;
  181cc8:	bdffffc4 	addi	r23,r23,-1
					}
					++cea->db_vsdb_hdmi.nr_vic_3d;
  181ccc:	8809883a 	mov	r4,r17
  181cd0:	01416f04 	movi	r5,1468
  181cd4:	0187dd80 	call	187dd8 <__mulsi3>
  181cd8:	1086c304 	addi	r2,r2,6924
  181cdc:	8085883a 	add	r2,r16,r2
  181ce0:	11000017 	ldw	r4,0(r2)
  181ce4:	21000044 	addi	r4,r4,1
  181ce8:	11000015 	stw	r4,0(r2)
  181cec:	003fbf06 	br	181bec <__alt_data_end+0xfff81bec>
				}
			} else {
				cea->db_vsdb_hdmi.struct_all_3d = 0;
  181cf0:	814b883a 	add	r5,r16,r5
  181cf4:	28000015 	stw	zero,0(r5)
				cea->db_vsdb_hdmi.mask_3d = 0;
  181cf8:	8109883a 	add	r4,r16,r4
  181cfc:	20000015 	stw	zero,0(r4)
  181d00:	0000ac06 	br	181fb4 <edid_decode_cea+0xb08>

			c += (*c & 0x1f) + 1;
			break;

		case CEA_DB_SPEAKER:
			cea->dbc_tags[cea->nr_dbcs++] = CEA_DB_SPEAKER;
  181d04:	8809883a 	mov	r4,r17
  181d08:	01416f04 	movi	r5,1468
  181d0c:	0187dd80 	call	187dd8 <__mulsi3>
  181d10:	11461304 	addi	r5,r2,6220
  181d14:	814b883a 	add	r5,r16,r5
  181d18:	29000017 	ldw	r4,0(r5)
  181d1c:	00c00104 	movi	r3,4
  181d20:	21800044 	addi	r6,r4,1
  181d24:	29800015 	stw	r6,0(r5)
  181d28:	808b883a 	add	r5,r16,r2
  181d2c:	2909883a 	add	r4,r5,r4
  181d30:	20c61405 	stb	r3,6224(r4)
			cea->db_speaker.designation = (int)(c[1] & 0x7f);
  181d34:	99000043 	ldbu	r4,1(r19)
  181d38:	21001fcc 	andi	r4,r4,127
  181d3c:	2906a715 	stw	r4,6812(r5)
  181d40:	00009c06 	br	181fb4 <edid_decode_cea+0xb08>
			c += (*c & 0x1f) + 1;
			break;

		case CEA_DB_DTC:
			cea->dbc_tags[cea->nr_dbcs++] = CEA_DB_DTC;
  181d44:	8809883a 	mov	r4,r17
  181d48:	01416f04 	movi	r5,1468
  181d4c:	0187dd80 	call	187dd8 <__mulsi3>
  181d50:	11461304 	addi	r5,r2,6220
  181d54:	814b883a 	add	r5,r16,r5
  181d58:	29000017 	ldw	r4,0(r5)
  181d5c:	8085883a 	add	r2,r16,r2
  181d60:	21800044 	addi	r6,r4,1
  181d64:	29800015 	stw	r6,0(r5)
  181d68:	1109883a 	add	r4,r2,r4
  181d6c:	00800144 	movi	r2,5
  181d70:	00008f06 	br	181fb0 <edid_decode_cea+0xb04>
			c += (*c & 0x1f) + 1;
			break;

		case CEA_DB_EXTENDED:
			switch (c[1]) {
  181d74:	98800043 	ldbu	r2,1(r19)
  181d78:	00c00484 	movi	r3,18
  181d7c:	18808136 	bltu	r3,r2,181f84 <edid_decode_cea+0xad8>
  181d80:	100490ba 	slli	r2,r2,2
  181d84:	01000634 	movhi	r4,24
  181d88:	21076604 	addi	r4,r4,7576
  181d8c:	1105883a 	add	r2,r2,r4
  181d90:	10800017 	ldw	r2,0(r2)
  181d94:	1000683a 	jmp	r2
  181d98:	00181de4 	muli	zero,zero,24695
  181d9c:	00181e44 	movi	zero,24697
  181da0:	00181e68 	cmpgeui	zero,zero,24697
  181da4:	00181e8c 	andi	zero,zero,24698
  181da8:	00181eb4 	movhi	zero,24698
  181dac:	00181ed8 	cmpnei	zero,zero,24699
  181db0:	00181f84 	movi	zero,24702
  181db4:	00181f84 	movi	zero,24702
  181db8:	00181f84 	movi	zero,24702
  181dbc:	00181f84 	movi	zero,24702
  181dc0:	00181f84 	movi	zero,24702
  181dc4:	00181f84 	movi	zero,24702
  181dc8:	00181f84 	movi	zero,24702
  181dcc:	00181f84 	movi	zero,24702
  181dd0:	00181f84 	movi	zero,24702
  181dd4:	00181f84 	movi	zero,24702
  181dd8:	00181f18 	cmpnei	zero,zero,24700
  181ddc:	00181f3c 	xorhi	zero,zero,24700
  181de0:	00181f60 	cmpeqi	zero,zero,24701
			case CEA_DBE_VIDEO_CAP:
				cea->dbe_tags[cea->nr_dbcs] = CEA_DBE_VIDEO_CAP;
  181de4:	8809883a 	mov	r4,r17
  181de8:	01416f04 	movi	r5,1468
  181dec:	0187dd80 	call	187dd8 <__mulsi3>
  181df0:	8089883a 	add	r4,r16,r2
  181df4:	21061317 	ldw	r4,6220(r4)
  181df8:	808b883a 	add	r5,r16,r2
  181dfc:	2909883a 	add	r4,r5,r4
  181e00:	20062385 	stb	zero,6286(r4)
				cea->db_vcdb.quant_range_sel = (c[2] & 0x40) ? 1 : 0;
  181e04:	99000083 	ldbu	r4,2(r19)
  181e08:	2008d1ba 	srli	r4,r4,6
  181e0c:	2100004c 	andi	r4,r4,1
  181e10:	2906f615 	stw	r4,7128(r5)
				cea->db_vcdb.pt_scan_behavior = (int)((c[2] >> 4) & 0x03);
  181e14:	99000083 	ldbu	r4,2(r19)
  181e18:	2008d13a 	srli	r4,r4,4
  181e1c:	210000cc 	andi	r4,r4,3
  181e20:	2906f715 	stw	r4,7132(r5)
				cea->db_vcdb.it_scan_behavior = (int)((c[2] >> 2) & 0x03);
  181e24:	99000083 	ldbu	r4,2(r19)
  181e28:	2008d0ba 	srli	r4,r4,2
  181e2c:	210000cc 	andi	r4,r4,3
  181e30:	2906f815 	stw	r4,7136(r5)
				cea->db_vcdb.ce_scan_behavior = (int)(c[2] & 0x03);
  181e34:	99000083 	ldbu	r4,2(r19)
  181e38:	210000cc 	andi	r4,r4,3
  181e3c:	2906f915 	stw	r4,7140(r5)
				break;
  181e40:	00005006 	br	181f84 <edid_decode_cea+0xad8>
			case CEA_DBE_VIDEO_VENDOR:
				cea->dbe_tags[cea->nr_dbcs] = CEA_DBE_VIDEO_VENDOR;
  181e44:	8809883a 	mov	r4,r17
  181e48:	01416f04 	movi	r5,1468
  181e4c:	0187dd80 	call	187dd8 <__mulsi3>
  181e50:	8089883a 	add	r4,r16,r2
  181e54:	21061317 	ldw	r4,6220(r4)
  181e58:	8085883a 	add	r2,r16,r2
  181e5c:	00c00044 	movi	r3,1
  181e60:	1105883a 	add	r2,r2,r4
  181e64:	00001106 	br	181eac <edid_decode_cea+0xa00>
				break;
			case CEA_DBE_VIDEO_DDI:
				cea->dbe_tags[cea->nr_dbcs] = CEA_DBE_VIDEO_DDI;
  181e68:	8809883a 	mov	r4,r17
  181e6c:	01416f04 	movi	r5,1468
  181e70:	0187dd80 	call	187dd8 <__mulsi3>
  181e74:	8089883a 	add	r4,r16,r2
  181e78:	21061317 	ldw	r4,6220(r4)
  181e7c:	8085883a 	add	r2,r16,r2
  181e80:	1105883a 	add	r2,r2,r4
  181e84:	01000084 	movi	r4,2
  181e88:	00003d06 	br	181f80 <edid_decode_cea+0xad4>
				break;
			case CEA_DBE_VIDEO_VESA:
				cea->dbe_tags[cea->nr_dbcs] = CEA_DBE_VIDEO_VESA;
  181e8c:	8809883a 	mov	r4,r17
  181e90:	01416f04 	movi	r5,1468
  181e94:	0187dd80 	call	187dd8 <__mulsi3>
  181e98:	8089883a 	add	r4,r16,r2
  181e9c:	21061317 	ldw	r4,6220(r4)
  181ea0:	8085883a 	add	r2,r16,r2
  181ea4:	00c000c4 	movi	r3,3
  181ea8:	1105883a 	add	r2,r2,r4
  181eac:	10c62385 	stb	r3,6286(r2)
				break;
  181eb0:	00003406 	br	181f84 <edid_decode_cea+0xad8>
			case CEA_DBE_VIDEO_HDMI:
				cea->dbe_tags[cea->nr_dbcs] = CEA_DBE_VIDEO_HDMI;
  181eb4:	8809883a 	mov	r4,r17
  181eb8:	01416f04 	movi	r5,1468
  181ebc:	0187dd80 	call	187dd8 <__mulsi3>
  181ec0:	8089883a 	add	r4,r16,r2
  181ec4:	21061317 	ldw	r4,6220(r4)
  181ec8:	8085883a 	add	r2,r16,r2
  181ecc:	1105883a 	add	r2,r2,r4
  181ed0:	01000104 	movi	r4,4
  181ed4:	00002a06 	br	181f80 <edid_decode_cea+0xad4>
				break;
			case CEA_DBE_COLORIMETRY:
				cea->dbe_tags[cea->nr_dbcs] = CEA_DBE_COLORIMETRY;
  181ed8:	8809883a 	mov	r4,r17
  181edc:	01416f04 	movi	r5,1468
  181ee0:	0187dd80 	call	187dd8 <__mulsi3>
  181ee4:	8089883a 	add	r4,r16,r2
  181ee8:	21061317 	ldw	r4,6220(r4)
  181eec:	808b883a 	add	r5,r16,r2
  181ef0:	00c00144 	movi	r3,5
  181ef4:	2909883a 	add	r4,r5,r4
  181ef8:	20c62385 	stb	r3,6286(r4)
				cea->db_colorimetry.xvYCC = (int)(c[2] & 0x03);
  181efc:	99000083 	ldbu	r4,2(r19)
  181f00:	210000cc 	andi	r4,r4,3
  181f04:	2906f415 	stw	r4,7120(r5)
				cea->db_colorimetry.metadata = (int)(c[3] & 0x07);
  181f08:	990000c3 	ldbu	r4,3(r19)
  181f0c:	210001cc 	andi	r4,r4,7
  181f10:	2906f515 	stw	r4,7124(r5)
				break;
  181f14:	00001b06 	br	181f84 <edid_decode_cea+0xad8>
			case CEA_DBE_AUDIO_MISC:
				cea->dbe_tags[cea->nr_dbcs] = CEA_DBE_AUDIO_MISC;
  181f18:	8809883a 	mov	r4,r17
  181f1c:	01416f04 	movi	r5,1468
  181f20:	0187dd80 	call	187dd8 <__mulsi3>
  181f24:	8089883a 	add	r4,r16,r2
  181f28:	21061317 	ldw	r4,6220(r4)
  181f2c:	8085883a 	add	r2,r16,r2
  181f30:	1105883a 	add	r2,r2,r4
  181f34:	01000404 	movi	r4,16
  181f38:	00001106 	br	181f80 <edid_decode_cea+0xad4>
				break;
			case CEA_DBE_AUDIO_VENDOR:
				cea->dbe_tags[cea->nr_dbcs] = CEA_DBE_AUDIO_VENDOR;
  181f3c:	8809883a 	mov	r4,r17
  181f40:	01416f04 	movi	r5,1468
  181f44:	0187dd80 	call	187dd8 <__mulsi3>
  181f48:	8089883a 	add	r4,r16,r2
  181f4c:	21061317 	ldw	r4,6220(r4)
  181f50:	8085883a 	add	r2,r16,r2
  181f54:	00c00444 	movi	r3,17
  181f58:	1105883a 	add	r2,r2,r4
  181f5c:	003fd306 	br	181eac <__alt_data_end+0xfff81eac>
				break;
			case CEA_DBE_AUDIO_HDMI:
				cea->dbe_tags[cea->nr_dbcs] = CEA_DBE_AUDIO_HDMI;
  181f60:	8809883a 	mov	r4,r17
  181f64:	01416f04 	movi	r5,1468
  181f68:	0187dd80 	call	187dd8 <__mulsi3>
  181f6c:	8089883a 	add	r4,r16,r2
  181f70:	21061317 	ldw	r4,6220(r4)
  181f74:	8085883a 	add	r2,r16,r2
  181f78:	1105883a 	add	r2,r2,r4
  181f7c:	01000484 	movi	r4,18
  181f80:	11062385 	stb	r4,6286(r2)
				break;
			}

			cea->dbc_tags[cea->nr_dbcs++] = CEA_DB_EXTENDED;
  181f84:	8809883a 	mov	r4,r17
  181f88:	01416f04 	movi	r5,1468
  181f8c:	0187dd80 	call	187dd8 <__mulsi3>
  181f90:	11461304 	addi	r5,r2,6220
  181f94:	814b883a 	add	r5,r16,r5
  181f98:	29000017 	ldw	r4,0(r5)
  181f9c:	8085883a 	add	r2,r16,r2
  181fa0:	21800044 	addi	r6,r4,1
  181fa4:	29800015 	stw	r6,0(r5)
  181fa8:	1109883a 	add	r4,r2,r4
  181fac:	008001c4 	movi	r2,7
  181fb0:	20861405 	stb	r2,6224(r4)

			c += (*c & 0x1f) + 1;
  181fb4:	98800003 	ldbu	r2,0(r19)
  181fb8:	108007cc 	andi	r2,r2,31
  181fbc:	10800044 	addi	r2,r2,1
  181fc0:	98a7883a 	add	r19,r19,r2
			break;
  181fc4:	003d7e06 	br	1815c0 <__alt_data_end+0xfff815c0>
			break;
		}
	}

	// detail timing descriptor
	if (dtd == 0)
  181fc8:	d8c00017 	ldw	r3,0(sp)
  181fcc:	1800e326 	beq	r3,zero,18235c <edid_decode_cea+0xeb0>
  181fd0:	1827883a 	mov	r19,r3
  181fd4:	95470904 	addi	r21,r18,7204
  181fd8:	84a9883a 	add	r20,r16,r18
  181fdc:	94870804 	addi	r18,r18,7200
  181fe0:	1d800444 	addi	r22,r3,17
  181fe4:	1b400044 	addi	r13,r3,1
  181fe8:	856b883a 	add	r21,r16,r21
  181fec:	84a5883a 	add	r18,r16,r18
  181ff0:	18c00104 	addi	r3,r3,4
  181ff4:	9b000084 	addi	r12,r19,2
  181ff8:	9f0001c4 	addi	fp,r19,7
  181ffc:	9ac00144 	addi	r11,r19,5
  182000:	9a8000c4 	addi	r10,r19,3
  182004:	9a400184 	addi	r9,r19,6
  182008:	9dc002c4 	addi	r23,r19,11
  18200c:	9a000204 	addi	r8,r19,8
  182010:	99800284 	addi	r6,r19,10
  182014:	9b800244 	addi	r14,r19,9
  182018:	99c00384 	addi	r7,r19,14
  18201c:	9bc00304 	addi	r15,r19,12
  182020:	d8000015 	stw	zero,0(sp)
  182024:	0000b006 	br	1822e8 <edid_decode_cea+0xe3c>
		return 0;

	for (i = 0; i < (int)cea->nr_dtd; ++i) {
		c = &dtd[18 * i];

        cea->detailed_timing[i].pixel_clock = (((int)c[1] << 8) | (int)c[0]) * 10000;
  182028:	68800003 	ldbu	r2,0(r13)
  18202c:	99000003 	ldbu	r4,0(r19)
  182030:	0149c404 	movi	r5,10000
  182034:	1004923a 	slli	r2,r2,8
  182038:	d8c00715 	stw	r3,28(sp)
  18203c:	d9800d15 	stw	r6,52(sp)
  182040:	1108b03a 	or	r4,r2,r4
  182044:	d9c00b15 	stw	r7,44(sp)
  182048:	da000c15 	stw	r8,48(sp)
  18204c:	da400315 	stw	r9,12(sp)
  182050:	da800415 	stw	r10,16(sp)
  182054:	dac00515 	stw	r11,20(sp)
  182058:	db000615 	stw	r12,24(sp)
  18205c:	db400815 	stw	r13,32(sp)
  182060:	db800915 	stw	r14,36(sp)
  182064:	dbc00a15 	stw	r15,40(sp)
  182068:	0187dd80 	call	187dd8 <__mulsi3>
  18206c:	a086fa15 	stw	r2,7144(r20)
        cea->detailed_timing[i].width = (((int)c[4] << 4) & 0xf00) | (int)c[2];
  182070:	d8c00717 	ldw	r3,28(sp)
  182074:	db000617 	ldw	r12,24(sp)
  182078:	18800003 	ldbu	r2,0(r3)
  18207c:	61000003 	ldbu	r4,0(r12)
  182080:	1004913a 	slli	r2,r2,4
  182084:	1083c00c 	andi	r2,r2,3840
  182088:	1104b03a 	or	r2,r2,r4
  18208c:	a086fb15 	stw	r2,7148(r20)
        cea->detailed_timing[i].height = (((int)c[7] << 4) & 0xf00) | (int)c[5];
  182090:	e0800003 	ldbu	r2,0(fp)
  182094:	dac00517 	ldw	r11,20(sp)
  182098:	1004913a 	slli	r2,r2,4
  18209c:	59000003 	ldbu	r4,0(r11)
  1820a0:	1083c00c 	andi	r2,r2,3840
  1820a4:	1104b03a 	or	r2,r2,r4
  1820a8:	a086fc15 	stw	r2,7152(r20)
        cea->detailed_timing[i].h_blank = (((int)c[4] << 8) & 0xf00) | (int)c[3];
  1820ac:	18800003 	ldbu	r2,0(r3)
  1820b0:	da800417 	ldw	r10,16(sp)
  1820b4:	1004923a 	slli	r2,r2,8
  1820b8:	51000003 	ldbu	r4,0(r10)
  1820bc:	1083c00c 	andi	r2,r2,3840
  1820c0:	1104b03a 	or	r2,r2,r4
  1820c4:	a086fd15 	stw	r2,7156(r20)
        cea->detailed_timing[i].v_blank = (((int)c[7] << 8) & 0xf00) | (int)c[6];
  1820c8:	e0800003 	ldbu	r2,0(fp)
  1820cc:	da400317 	ldw	r9,12(sp)
  1820d0:	1004923a 	slli	r2,r2,8
  1820d4:	49000003 	ldbu	r4,0(r9)
  1820d8:	1083c00c 	andi	r2,r2,3840
  1820dc:	1104b03a 	or	r2,r2,r4
  1820e0:	a086fe15 	stw	r2,7160(r20)
        cea->detailed_timing[i].h_fp = (((int)c[11] << 2) & 0x300) | (int)c[8];
  1820e4:	b8800003 	ldbu	r2,0(r23)
  1820e8:	da000c17 	ldw	r8,48(sp)
  1820ec:	1085883a 	add	r2,r2,r2
  1820f0:	41000003 	ldbu	r4,0(r8)
  1820f4:	1085883a 	add	r2,r2,r2
  1820f8:	1080c00c 	andi	r2,r2,768
  1820fc:	1104b03a 	or	r2,r2,r4
  182100:	a086ff15 	stw	r2,7164(r20)
        cea->detailed_timing[i].v_fp = (((int)c[11] << 2) & 0x30) | ((int)c[10] >> 4);
  182104:	d9800d17 	ldw	r6,52(sp)
  182108:	b8800003 	ldbu	r2,0(r23)
  18210c:	31000003 	ldbu	r4,0(r6)
  182110:	1085883a 	add	r2,r2,r2
  182114:	1085883a 	add	r2,r2,r2
  182118:	2008d13a 	srli	r4,r4,4
  18211c:	10800c0c 	andi	r2,r2,48
  182120:	1104b03a 	or	r2,r2,r4
  182124:	a0870015 	stw	r2,7168(r20)
        cea->detailed_timing[i].h_sync = (((int)c[11] << 4) & 0x300) | (int)c[9];
  182128:	b8800003 	ldbu	r2,0(r23)
  18212c:	db800917 	ldw	r14,36(sp)
  182130:	1004913a 	slli	r2,r2,4
  182134:	71000003 	ldbu	r4,0(r14)
  182138:	1080c00c 	andi	r2,r2,768
  18213c:	1104b03a 	or	r2,r2,r4
  182140:	a0870115 	stw	r2,7172(r20)
        cea->detailed_timing[i].v_sync = (((int)c[11] << 4) & 0x30) | ((int)c[10] & 0x0f);
  182144:	b8800003 	ldbu	r2,0(r23)
  182148:	1004913a 	slli	r2,r2,4
  18214c:	11000c0c 	andi	r4,r2,48
  182150:	30800003 	ldbu	r2,0(r6)
  182154:	108003cc 	andi	r2,r2,15
  182158:	2084b03a 	or	r2,r4,r2
  18215c:	a0870215 	stw	r2,7176(r20)
        cea->detailed_timing[i].h_size = (((int)c[14] << 4) & 0xf00) | (int)c[12];
  182160:	d9c00b17 	ldw	r7,44(sp)
  182164:	dbc00a17 	ldw	r15,40(sp)
  182168:	38800003 	ldbu	r2,0(r7)
  18216c:	79000003 	ldbu	r4,0(r15)
  182170:	1004913a 	slli	r2,r2,4
  182174:	1083c00c 	andi	r2,r2,3840
  182178:	1104b03a 	or	r2,r2,r4
  18217c:	a0870315 	stw	r2,7180(r20)
        cea->detailed_timing[i].v_size = (((int)c[14] << 8) & 0xf00) | (int)c[13];
  182180:	38800003 	ldbu	r2,0(r7)
  182184:	99000343 	ldbu	r4,13(r19)
  182188:	1004923a 	slli	r2,r2,8
  18218c:	1083c00c 	andi	r2,r2,3840
  182190:	1104b03a 	or	r2,r2,r4
  182194:	a0870415 	stw	r2,7184(r20)
        cea->detailed_timing[i].border_lr = (int)c[15];
  182198:	988003c3 	ldbu	r2,15(r19)
        cea->detailed_timing[i].border_tb = (int)c[16];

        cea->detailed_timing[i].interlaced = (c[17] & 0x80) ? 1 : 0;

        cea->detailed_timing[i].stereo = STEREO_NONE;
		if ((c[17] & 0x61) == 0x20)
  18219c:	01000804 	movi	r4,32
        cea->detailed_timing[i].v_fp = (((int)c[11] << 2) & 0x30) | ((int)c[10] >> 4);
        cea->detailed_timing[i].h_sync = (((int)c[11] << 4) & 0x300) | (int)c[9];
        cea->detailed_timing[i].v_sync = (((int)c[11] << 4) & 0x30) | ((int)c[10] & 0x0f);
        cea->detailed_timing[i].h_size = (((int)c[14] << 4) & 0xf00) | (int)c[12];
        cea->detailed_timing[i].v_size = (((int)c[14] << 8) & 0xf00) | (int)c[13];
        cea->detailed_timing[i].border_lr = (int)c[15];
  1821a0:	a0870515 	stw	r2,7188(r20)
        cea->detailed_timing[i].border_tb = (int)c[16];
  1821a4:	98800403 	ldbu	r2,16(r19)
  1821a8:	a0870615 	stw	r2,7192(r20)

        cea->detailed_timing[i].interlaced = (c[17] & 0x80) ? 1 : 0;
  1821ac:	b0800007 	ldb	r2,0(r22)
  1821b0:	1004d7fa 	srli	r2,r2,31
  1821b4:	a0870715 	stw	r2,7196(r20)

        cea->detailed_timing[i].stereo = STEREO_NONE;
  1821b8:	90000015 	stw	zero,0(r18)
		if ((c[17] & 0x61) == 0x20)
  1821bc:	b0800003 	ldbu	r2,0(r22)
  1821c0:	db400817 	ldw	r13,32(sp)
  1821c4:	1080184c 	andi	r2,r2,97
  1821c8:	1100021e 	bne	r2,r4,1821d4 <edid_decode_cea+0xd28>
			cea->detailed_timing[i].stereo |= STEREO_FIELD_SEQUENTIAL_RIGHT_SYNC;
  1821cc:	00800084 	movi	r2,2
  1821d0:	90800015 	stw	r2,0(r18)
		if ((c[17] & 0x61) == 0x40)
  1821d4:	b0800003 	ldbu	r2,0(r22)
  1821d8:	01001004 	movi	r4,64
  1821dc:	1080184c 	andi	r2,r2,97
  1821e0:	1100031e 	bne	r2,r4,1821f0 <edid_decode_cea+0xd44>
			cea->detailed_timing[i].stereo |= STEREO_FIELD_SEQUENTIAL_LEFT_SYNC;
  1821e4:	90800017 	ldw	r2,0(r18)
  1821e8:	10800114 	ori	r2,r2,4
  1821ec:	90800015 	stw	r2,0(r18)
		if ((c[17] & 0x61) == 0x21)
  1821f0:	b0800003 	ldbu	r2,0(r22)
  1821f4:	01000844 	movi	r4,33
  1821f8:	1080184c 	andi	r2,r2,97
  1821fc:	1100031e 	bne	r2,r4,18220c <edid_decode_cea+0xd60>
			cea->detailed_timing[i].stereo |= STEREO_2WAY_INTERLEAVE_RIGHT_EVEN;
  182200:	90800017 	ldw	r2,0(r18)
  182204:	10800214 	ori	r2,r2,8
  182208:	90800015 	stw	r2,0(r18)
		if ((c[17] & 0x61) == 0x41)
  18220c:	b0800003 	ldbu	r2,0(r22)
  182210:	01001044 	movi	r4,65
  182214:	1080184c 	andi	r2,r2,97
  182218:	1100031e 	bne	r2,r4,182228 <edid_decode_cea+0xd7c>
			cea->detailed_timing[i].stereo |= STEREO_2WAY_INTERLEAVE_LEFT_EVEN;
  18221c:	90800017 	ldw	r2,0(r18)
  182220:	10800414 	ori	r2,r2,16
  182224:	90800015 	stw	r2,0(r18)
		if ((c[17] & 0x61) == 0x60)
  182228:	b0800003 	ldbu	r2,0(r22)
  18222c:	01001804 	movi	r4,96
  182230:	1080184c 	andi	r2,r2,97
  182234:	1100031e 	bne	r2,r4,182244 <edid_decode_cea+0xd98>
			cea->detailed_timing[i].stereo |= STEREO_4WAY_INTERLEAVE;
  182238:	90800017 	ldw	r2,0(r18)
  18223c:	10800814 	ori	r2,r2,32
  182240:	90800015 	stw	r2,0(r18)
		if ((c[17] & 0x61) == 0x61)
  182244:	b0800003 	ldbu	r2,0(r22)
  182248:	01001844 	movi	r4,97
  18224c:	1080184c 	andi	r2,r2,97
  182250:	1100031e 	bne	r2,r4,182260 <edid_decode_cea+0xdb4>
			cea->detailed_timing[i].stereo |= STEREO_SIDE_BY_SIDE_INTERLEAVE;
  182254:	90800017 	ldw	r2,0(r18)
  182258:	10801014 	ori	r2,r2,64
  18225c:	90800015 	stw	r2,0(r18)

		cea->detailed_timing[i].sync = 0;
  182260:	a8000015 	stw	zero,0(r21)
        if (c[17] & 0x10) {
  182264:	b0800003 	ldbu	r2,0(r22)
  182268:	1100040c 	andi	r4,r2,16
  18226c:	20003d1e 	bne	r4,zero,182364 <edid_decode_cea+0xeb8>
            	cea->detailed_timing[i].sync |= D_COMPOSITE_SYNC;
            	if (c[17] & 0x04)
                	cea->detailed_timing[i].sync |= D_COMPOSITE_SERRATION;
            }
        } else {
        	if (c[17] & 0x80) {
  182270:	10803fcc 	andi	r2,r2,255
  182274:	1080201c 	xori	r2,r2,128
  182278:	10bfe004 	addi	r2,r2,-128
  18227c:	1000550e 	bge	r2,zero,1823d4 <edid_decode_cea+0xf28>
        		cea->detailed_timing[i].sync |= A_BIPOLAR_COMPOSITE_SYNC;
  182280:	01000084 	movi	r4,2
  182284:	a9000015 	stw	r4,0(r21)
        		if (c[17] & 0x40) {
  182288:	b0800003 	ldbu	r2,0(r22)
  18228c:	1080100c 	andi	r2,r2,64
  182290:	1000461e 	bne	r2,zero,1823ac <edid_decode_cea+0xf00>

	// detail timing descriptor
	if (dtd == 0)
		return 0;

	for (i = 0; i < (int)cea->nr_dtd; ++i) {
  182294:	d8800017 	ldw	r2,0(sp)
  182298:	ad401004 	addi	r21,r21,64
  18229c:	a5001004 	addi	r20,r20,64
  1822a0:	10800044 	addi	r2,r2,1
  1822a4:	d8800015 	stw	r2,0(sp)
  1822a8:	b5800484 	addi	r22,r22,18
  1822ac:	9cc00484 	addi	r19,r19,18
  1822b0:	94801004 	addi	r18,r18,64
  1822b4:	6b400484 	addi	r13,r13,18
  1822b8:	18c00484 	addi	r3,r3,18
  1822bc:	63000484 	addi	r12,r12,18
  1822c0:	e7000484 	addi	fp,fp,18
  1822c4:	5ac00484 	addi	r11,r11,18
  1822c8:	52800484 	addi	r10,r10,18
  1822cc:	4a400484 	addi	r9,r9,18
  1822d0:	bdc00484 	addi	r23,r23,18
  1822d4:	42000484 	addi	r8,r8,18
  1822d8:	31800484 	addi	r6,r6,18
  1822dc:	73800484 	addi	r14,r14,18
  1822e0:	39c00484 	addi	r7,r7,18
  1822e4:	7bc00484 	addi	r15,r15,18
  1822e8:	8809883a 	mov	r4,r17
  1822ec:	01416f04 	movi	r5,1468
  1822f0:	d8c00715 	stw	r3,28(sp)
  1822f4:	d9800d15 	stw	r6,52(sp)
  1822f8:	d9c00b15 	stw	r7,44(sp)
  1822fc:	da000c15 	stw	r8,48(sp)
  182300:	da400315 	stw	r9,12(sp)
  182304:	da800415 	stw	r10,16(sp)
  182308:	dac00515 	stw	r11,20(sp)
  18230c:	db000615 	stw	r12,24(sp)
  182310:	db400815 	stw	r13,32(sp)
  182314:	db800915 	stw	r14,36(sp)
  182318:	dbc00a15 	stw	r15,40(sp)
  18231c:	0187dd80 	call	187dd8 <__mulsi3>
  182320:	8085883a 	add	r2,r16,r2
  182324:	10861217 	ldw	r2,6216(r2)
  182328:	d9000017 	ldw	r4,0(sp)
  18232c:	d8c00717 	ldw	r3,28(sp)
  182330:	d9800d17 	ldw	r6,52(sp)
  182334:	d9c00b17 	ldw	r7,44(sp)
  182338:	da000c17 	ldw	r8,48(sp)
  18233c:	da400317 	ldw	r9,12(sp)
  182340:	da800417 	ldw	r10,16(sp)
  182344:	dac00517 	ldw	r11,20(sp)
  182348:	db000617 	ldw	r12,24(sp)
  18234c:	db400817 	ldw	r13,32(sp)
  182350:	db800917 	ldw	r14,36(sp)
  182354:	dbc00a17 	ldw	r15,40(sp)
  182358:	20bf3316 	blt	r4,r2,182028 <__alt_data_end+0xfff82028>
		}
	}

	// detail timing descriptor
	if (dtd == 0)
		return 0;
  18235c:	0005883a 	mov	r2,zero
  182360:	00002006 	br	1823e4 <edid_decode_cea+0xf38>
		if ((c[17] & 0x61) == 0x61)
			cea->detailed_timing[i].stereo |= STEREO_SIDE_BY_SIDE_INTERLEAVE;

		cea->detailed_timing[i].sync = 0;
        if (c[17] & 0x10) {
            if (c[17] & 0x08) {
  182364:	1080020c 	andi	r2,r2,8
  182368:	10000926 	beq	r2,zero,182390 <edid_decode_cea+0xee4>
            	cea->detailed_timing[i].sync |= D_SEPERATE_SYNC;
  18236c:	00802004 	movi	r2,128
  182370:	a8800015 	stw	r2,0(r21)
            	if (c[17] & 0x04)
  182374:	b0800003 	ldbu	r2,0(r22)
  182378:	1080010c 	andi	r2,r2,4
  18237c:	10000226 	beq	r2,zero,182388 <edid_decode_cea+0xedc>
                	cea->detailed_timing[i].sync |= D_SEPERATE_VSYNC_P;
  182380:	0100a004 	movi	r4,640
  182384:	00001406 	br	1823d8 <edid_decode_cea+0xf2c>
            	else
            		cea->detailed_timing[i].sync |= D_SEPERATE_VSYNC_N;
  182388:	00806004 	movi	r2,384
  18238c:	00000f06 	br	1823cc <edid_decode_cea+0xf20>
            } else {
            	cea->detailed_timing[i].sync |= D_COMPOSITE_SYNC;
  182390:	01000804 	movi	r4,32
  182394:	a9000015 	stw	r4,0(r21)
            	if (c[17] & 0x04)
  182398:	b0800003 	ldbu	r2,0(r22)
  18239c:	1080010c 	andi	r2,r2,4
  1823a0:	103fbc26 	beq	r2,zero,182294 <__alt_data_end+0xfff82294>
                	cea->detailed_timing[i].sync |= D_COMPOSITE_SERRATION;
  1823a4:	00801804 	movi	r2,96
  1823a8:	00000806 	br	1823cc <edid_decode_cea+0xf20>
            }
        } else {
        	if (c[17] & 0x80) {
        		cea->detailed_timing[i].sync |= A_BIPOLAR_COMPOSITE_SYNC;
        		if (c[17] & 0x40) {
            		cea->detailed_timing[i].sync |= A_BIPOLAR_SERRATION;
  1823ac:	00800184 	movi	r2,6
  1823b0:	a8800015 	stw	r2,0(r21)
            		if (c[17] & 0x20)
  1823b4:	b0800003 	ldbu	r2,0(r22)
  1823b8:	1080080c 	andi	r2,r2,32
  1823bc:	10000226 	beq	r2,zero,1823c8 <edid_decode_cea+0xf1c>
                		cea->detailed_timing[i].sync |= A_BIPOLAR_SERRATION_SYNC_RGB;
  1823c0:	01000584 	movi	r4,22
  1823c4:	00000406 	br	1823d8 <edid_decode_cea+0xf2c>
            		else
                		cea->detailed_timing[i].sync |= A_BIPOLAR_SERRATION_SYNC_G;
  1823c8:	00800384 	movi	r2,14
  1823cc:	a8800015 	stw	r2,0(r21)
  1823d0:	003fb006 	br	182294 <__alt_data_end+0xfff82294>
        		}
        	} else {
        		cea->detailed_timing[i].sync |= A_COMPOSITE_SYNC;
  1823d4:	01000044 	movi	r4,1
  1823d8:	a9000015 	stw	r4,0(r21)
  1823dc:	003fad06 	br	182294 <__alt_data_end+0xfff82294>

	c = &ext_bin[1];

	// version
	if (*c != 0x03)
		return -1;	// todo: support v1 / v2
  1823e0:	00bfffc4 	movi	r2,-1
        	}
        }
	}

	return 0;
}
  1823e4:	dfc01717 	ldw	ra,92(sp)
  1823e8:	df001617 	ldw	fp,88(sp)
  1823ec:	ddc01517 	ldw	r23,84(sp)
  1823f0:	dd801417 	ldw	r22,80(sp)
  1823f4:	dd401317 	ldw	r21,76(sp)
  1823f8:	dd001217 	ldw	r20,72(sp)
  1823fc:	dcc01117 	ldw	r19,68(sp)
  182400:	dc801017 	ldw	r18,64(sp)
  182404:	dc400f17 	ldw	r17,60(sp)
  182408:	dc000e17 	ldw	r16,56(sp)
  18240c:	dec01804 	addi	sp,sp,96
  182410:	f800283a 	ret

00182414 <edid_print_cea>:

void edid_print_cea(struct base_edid *edid, int ext_idx)
{
  182414:	deffee04 	addi	sp,sp,-72
  182418:	dc400915 	stw	r17,36(sp)
  18241c:	dc000815 	stw	r16,32(sp)
  182420:	2823883a 	mov	r17,r5
  182424:	2021883a 	mov	r16,r4
	int i, t;

	struct ext_data *ext_data = &edid->ext_data[ext_idx];
	struct edid_cea *cea = &ext_data->cea_ext;

	printf("\n[%02d] extension block -- CEA-Extension Revision-%02d ...\n\n", ext_idx, cea->rev);
  182428:	2809883a 	mov	r4,r5
  18242c:	01416f04 	movi	r5,1468

	return 0;
}

void edid_print_cea(struct base_edid *edid, int ext_idx)
{
  182430:	dfc01115 	stw	ra,68(sp)
  182434:	dc800a15 	stw	r18,40(sp)
  182438:	df001015 	stw	fp,64(sp)
  18243c:	ddc00f15 	stw	r23,60(sp)
  182440:	dd800e15 	stw	r22,56(sp)
  182444:	dd400d15 	stw	r21,52(sp)
  182448:	dd000c15 	stw	r20,48(sp)
  18244c:	dcc00b15 	stw	r19,44(sp)
	int i, t;

	struct ext_data *ext_data = &edid->ext_data[ext_idx];
	struct edid_cea *cea = &ext_data->cea_ext;

	printf("\n[%02d] extension block -- CEA-Extension Revision-%02d ...\n\n", ext_idx, cea->rev);
  182450:	0187dd80 	call	187dd8 <__mulsi3>
  182454:	1025883a 	mov	r18,r2
  182458:	8085883a 	add	r2,r16,r2
  18245c:	11860c17 	ldw	r6,6192(r2)
  182460:	010006b4 	movhi	r4,26
  182464:	212f6304 	addi	r4,r4,-17012
  182468:	880b883a 	mov	r5,r17
  18246c:	01891080 	call	189108 <printf>

	printf("  number of DBCs (data block collections)      : %d\n", cea->nr_dbcs);
  182470:	8485883a 	add	r2,r16,r18
  182474:	11461317 	ldw	r5,6220(r2)
  182478:	010006b4 	movhi	r4,26
  18247c:	212f7304 	addi	r4,r4,-16948
  182480:	01891080 	call	189108 <printf>
	printf("  number of DTDs (detailed timing descriptors) : %d\n", cea->nr_dtd);
  182484:	8485883a 	add	r2,r16,r18
  182488:	11461217 	ldw	r5,6216(r2)
  18248c:	010006b4 	movhi	r4,26
  182490:	212f8104 	addi	r4,r4,-16892
  182494:	01891080 	call	189108 <printf>
	printf("  offset to DTD                                : %d\n", cea->off_dtd);
  182498:	8485883a 	add	r2,r16,r18
  18249c:	11461117 	ldw	r5,6212(r2)
  1824a0:	010006b4 	movhi	r4,26
  1824a4:	212f8f04 	addi	r4,r4,-16836
  1824a8:	01891080 	call	189108 <printf>
	printf("  monitor underscans IT formats                : %s\n", cea->flags.underscan ? "yes" : "no");
  1824ac:	84a5883a 	add	r18,r16,r18
  1824b0:	90860d17 	ldw	r2,6196(r18)
  1824b4:	1000031e 	bne	r2,zero,1824c4 <edid_print_cea+0xb0>
  1824b8:	014006b4 	movhi	r5,26
  1824bc:	296f5f04 	addi	r5,r5,-17028
  1824c0:	00000206 	br	1824cc <edid_print_cea+0xb8>
  1824c4:	014006b4 	movhi	r5,26
  1824c8:	296f5e04 	addi	r5,r5,-17032
  1824cc:	010006b4 	movhi	r4,26
  1824d0:	212f9d04 	addi	r4,r4,-16780
  1824d4:	01891080 	call	189108 <printf>
	printf("  supports audio                               : %s\n", cea->flags.audio ? "yes" : "no");
  1824d8:	8809883a 	mov	r4,r17
  1824dc:	01416f04 	movi	r5,1468
  1824e0:	0187dd80 	call	187dd8 <__mulsi3>
  1824e4:	8085883a 	add	r2,r16,r2
  1824e8:	10860e17 	ldw	r2,6200(r2)
  1824ec:	1000031e 	bne	r2,zero,1824fc <edid_print_cea+0xe8>
  1824f0:	014006b4 	movhi	r5,26
  1824f4:	296f5f04 	addi	r5,r5,-17028
  1824f8:	00000206 	br	182504 <edid_print_cea+0xf0>
  1824fc:	014006b4 	movhi	r5,26
  182500:	296f5e04 	addi	r5,r5,-17032
  182504:	010006b4 	movhi	r4,26
  182508:	212fab04 	addi	r4,r4,-16724
  18250c:	01891080 	call	189108 <printf>
	printf("  supports YCbCr 4:4:4 in addition to RGB      : %s\n", cea->flags.ycbcr444 ? "yes" : "no");
  182510:	8809883a 	mov	r4,r17
  182514:	01416f04 	movi	r5,1468
  182518:	0187dd80 	call	187dd8 <__mulsi3>
  18251c:	8085883a 	add	r2,r16,r2
  182520:	10860f17 	ldw	r2,6204(r2)
  182524:	1000031e 	bne	r2,zero,182534 <edid_print_cea+0x120>
  182528:	014006b4 	movhi	r5,26
  18252c:	296f5f04 	addi	r5,r5,-17028
  182530:	00000206 	br	18253c <edid_print_cea+0x128>
  182534:	014006b4 	movhi	r5,26
  182538:	296f5e04 	addi	r5,r5,-17032
  18253c:	010006b4 	movhi	r4,26
  182540:	212fb904 	addi	r4,r4,-16668
  182544:	01891080 	call	189108 <printf>
	printf("  supports YCbCr 4:2:2 in addition to RGB      : %s\n", cea->flags.ycbcr422 ? "yes" : "no");
  182548:	8809883a 	mov	r4,r17
  18254c:	01416f04 	movi	r5,1468
  182550:	0187dd80 	call	187dd8 <__mulsi3>
  182554:	8085883a 	add	r2,r16,r2
  182558:	10861017 	ldw	r2,6208(r2)
  18255c:	1000031e 	bne	r2,zero,18256c <edid_print_cea+0x158>
  182560:	014006b4 	movhi	r5,26
  182564:	296f5f04 	addi	r5,r5,-17028
  182568:	00000206 	br	182574 <edid_print_cea+0x160>
  18256c:	014006b4 	movhi	r5,26
  182570:	296f5e04 	addi	r5,r5,-17032
  182574:	010006b4 	movhi	r4,26
  182578:	212fc704 	addi	r4,r4,-16612
  18257c:	01891080 	call	189108 <printf>

	printf("\n  data block collections\n  ---------------------------------\n");
  182580:	010006b4 	movhi	r4,26
  182584:	212fd504 	addi	r4,r4,-16556
  182588:	018920c0 	call	18920c <puts>
  18258c:	8809883a 	mov	r4,r17
  182590:	01416f04 	movi	r5,1468
  182594:	0187dd80 	call	187dd8 <__mulsi3>
  182598:	1025883a 	mov	r18,r2
  18259c:	90c67504 	addi	r3,r18,6612
  1825a0:	80c7883a 	add	r3,r16,r3
  1825a4:	d8c00415 	stw	r3,16(sp)
  1825a8:	90c63404 	addi	r3,r18,6352
  1825ac:	80c7883a 	add	r3,r16,r3
  1825b0:	d8c00515 	stw	r3,20(sp)
  1825b4:	90c6c504 	addi	r3,r18,6932
  1825b8:	80c7883a 	add	r3,r16,r3
  1825bc:	14c62384 	addi	r19,r2,6286
  1825c0:	d8c00615 	stw	r3,24(sp)
  1825c4:	8085883a 	add	r2,r16,r2
  1825c8:	00f9dc84 	movi	r3,-6286
  1825cc:	1887c83a 	sub	r3,r3,r2
  1825d0:	84e7883a 	add	r19,r16,r19
  1825d4:	d8c00715 	stw	r3,28(sp)
  1825d8:	d8c00717 	ldw	r3,28(sp)

	// data block collection
	for (t = 0; t < cea->nr_dbcs; ++t) {
  1825dc:	8809883a 	mov	r4,r17
  1825e0:	01416f04 	movi	r5,1468
  1825e4:	1ce9883a 	add	r20,r3,r19
  1825e8:	0187dd80 	call	187dd8 <__mulsi3>
  1825ec:	8087883a 	add	r3,r16,r2
  1825f0:	18c61317 	ldw	r3,6220(r3)
  1825f4:	a0c3420e 	bge	r20,r3,183300 <edid_print_cea+0xeec>

		switch (cea->dbc_tags[t]) {
  1825f8:	99bff083 	ldbu	r6,-62(r19)
  1825fc:	00c00184 	movi	r3,6
  182600:	30bfffc4 	addi	r2,r6,-1
  182604:	10803fcc 	andi	r2,r2,255
  182608:	18833636 	bltu	r3,r2,1832e4 <edid_print_cea+0xed0>
  18260c:	100490ba 	slli	r2,r2,2
  182610:	00c00634 	movhi	r3,24
  182614:	18c98904 	addi	r3,r3,9764
  182618:	10c5883a 	add	r2,r2,r3
  18261c:	10800017 	ldw	r2,0(r2)
  182620:	1000683a 	jmp	r2
  182624:	00182640 	call	18264 <__alt_mem_sram-0x167d9c>
  182628:	0018277c 	xorhi	zero,zero,24733
  18262c:	00182858 	cmpnei	zero,zero,24737
  182630:	00182ea0 	cmpeqi	zero,zero,24762
  182634:	00183054 	movui	zero,24769
  182638:	001832e4 	muli	zero,zero,24779
  18263c:	00183060 	cmpeqi	zero,zero,24769
		case CEA_DB_AUDIO:
			printf("\n  [%02d] audio data block ...\n", t);
  182640:	010006b4 	movhi	r4,26
  182644:	a00b883a 	mov	r5,r20
  182648:	212fe504 	addi	r4,r4,-16492
  18264c:	01891080 	call	189108 <printf>
			printf("       number of SADs (short audio descriptor) : %d\n", cea->db_audio.nr_sad);
  182650:	8809883a 	mov	r4,r17
  182654:	01416f04 	movi	r5,1468
  182658:	0187dd80 	call	187dd8 <__mulsi3>
  18265c:	8085883a 	add	r2,r16,r2
  182660:	11467417 	ldw	r5,6608(r2)
  182664:	010006b4 	movhi	r4,26
  182668:	212fed04 	addi	r4,r4,-16460
  18266c:	01891080 	call	189108 <printf>

			for (i = 0; i < cea->db_audio.nr_sad; ++i) {
  182670:	dd000417 	ldw	r20,16(sp)
					"DST",
					"WMA Pro",
					"unknown (15)",
				};

				printf("       %02d) format      : %s\n", i, sad_format[cea->db_audio.sad[i].format]);
  182674:	058006b4 	movhi	r22,26
		switch (cea->dbc_tags[t]) {
		case CEA_DB_AUDIO:
			printf("\n  [%02d] audio data block ...\n", t);
			printf("       number of SADs (short audio descriptor) : %d\n", cea->db_audio.nr_sad);

			for (i = 0; i < cea->db_audio.nr_sad; ++i) {
  182678:	002b883a 	mov	r21,zero
					"DST",
					"WMA Pro",
					"unknown (15)",
				};

				printf("       %02d) format      : %s\n", i, sad_format[cea->db_audio.sad[i].format]);
  18267c:	b5b9d704 	addi	r22,r22,-6308
		switch (cea->dbc_tags[t]) {
		case CEA_DB_AUDIO:
			printf("\n  [%02d] audio data block ...\n", t);
			printf("       number of SADs (short audio descriptor) : %d\n", cea->db_audio.nr_sad);

			for (i = 0; i < cea->db_audio.nr_sad; ++i) {
  182680:	8809883a 	mov	r4,r17
  182684:	01416f04 	movi	r5,1468
  182688:	0187dd80 	call	187dd8 <__mulsi3>
  18268c:	8085883a 	add	r2,r16,r2
  182690:	10867417 	ldw	r2,6608(r2)
  182694:	a883180e 	bge	r21,r2,1832f8 <edid_print_cea+0xee4>
					"DST",
					"WMA Pro",
					"unknown (15)",
				};

				printf("       %02d) format      : %s\n", i, sad_format[cea->db_audio.sad[i].format]);
  182698:	a0800017 	ldw	r2,0(r20)
  18269c:	010006b4 	movhi	r4,26
  1826a0:	212ffb04 	addi	r4,r4,-16404
  1826a4:	1085883a 	add	r2,r2,r2
  1826a8:	1085883a 	add	r2,r2,r2
  1826ac:	b085883a 	add	r2,r22,r2
  1826b0:	11800017 	ldw	r6,0(r2)
  1826b4:	a80b883a 	mov	r5,r21
  1826b8:	01891080 	call	189108 <printf>
				printf("           channels    : %d\n", cea->db_audio.sad[i].channels);
  1826bc:	a1400117 	ldw	r5,4(r20)
  1826c0:	010006b4 	movhi	r4,26
  1826c4:	21300304 	addi	r4,r4,-16372
  1826c8:	01891080 	call	189108 <printf>
				printf("           frequency   : 192K)%d 176.4k)%d 96k)%d 88.2k)%d 48k)%d 44.1k)%d 32k)%d\n",
					cea->db_audio.sad[i].freq & CEA_SAD_SF_192K ? 1 : 0,
  1826cc:	a0800217 	ldw	r2,8(r20)
					"unknown (15)",
				};

				printf("       %02d) format      : %s\n", i, sad_format[cea->db_audio.sad[i].format]);
				printf("           channels    : %d\n", cea->db_audio.sad[i].channels);
				printf("           frequency   : 192K)%d 176.4k)%d 96k)%d 88.2k)%d 48k)%d 44.1k)%d 32k)%d\n",
  1826d0:	010006b4 	movhi	r4,26
  1826d4:	21300b04 	addi	r4,r4,-16340
  1826d8:	1006d0fa 	srli	r3,r2,3
  1826dc:	100ad1ba 	srli	r5,r2,6
  1826e0:	100cd17a 	srli	r6,r2,5
  1826e4:	18c0004c 	andi	r3,r3,1
  1826e8:	d8c00015 	stw	r3,0(sp)
  1826ec:	1006d0ba 	srli	r3,r2,2
  1826f0:	100ed13a 	srli	r7,r2,4
  1826f4:	2940004c 	andi	r5,r5,1
  1826f8:	18c0004c 	andi	r3,r3,1
  1826fc:	d8c00115 	stw	r3,4(sp)
  182700:	1006d07a 	srli	r3,r2,1
					cea->db_audio.sad[i].freq & CEA_SAD_SF_176P4K ? 1 : 0,
					cea->db_audio.sad[i].freq & CEA_SAD_SF_96K ? 1 : 0,
					cea->db_audio.sad[i].freq & CEA_SAD_SF_88P2K ? 1 : 0,
					cea->db_audio.sad[i].freq & CEA_SAD_SF_48K ? 1 : 0,
					cea->db_audio.sad[i].freq & CEA_SAD_SF_44P1K ? 1 : 0,
					cea->db_audio.sad[i].freq & CEA_SAD_SF_32K ? 1 : 0);
  182704:	1080004c 	andi	r2,r2,1
					"unknown (15)",
				};

				printf("       %02d) format      : %s\n", i, sad_format[cea->db_audio.sad[i].format]);
				printf("           channels    : %d\n", cea->db_audio.sad[i].channels);
				printf("           frequency   : 192K)%d 176.4k)%d 96k)%d 88.2k)%d 48k)%d 44.1k)%d 32k)%d\n",
  182708:	d8800315 	stw	r2,12(sp)
  18270c:	18c0004c 	andi	r3,r3,1
  182710:	d8c00215 	stw	r3,8(sp)
  182714:	3180004c 	andi	r6,r6,1
  182718:	39c0004c 	andi	r7,r7,1
  18271c:	01891080 	call	189108 <printf>
					cea->db_audio.sad[i].freq & CEA_SAD_SF_88P2K ? 1 : 0,
					cea->db_audio.sad[i].freq & CEA_SAD_SF_48K ? 1 : 0,
					cea->db_audio.sad[i].freq & CEA_SAD_SF_44P1K ? 1 : 0,
					cea->db_audio.sad[i].freq & CEA_SAD_SF_32K ? 1 : 0);

				switch (cea->db_audio.sad[i].format) {
  182720:	a0800017 	ldw	r2,0(r20)
  182724:	00c00044 	movi	r3,1
  182728:	10c00826 	beq	r2,r3,18274c <edid_print_cea+0x338>
  18272c:	0080100e 	bge	zero,r2,182770 <edid_print_cea+0x35c>
  182730:	00c00204 	movi	r3,8
  182734:	18800e16 	blt	r3,r2,182770 <edid_print_cea+0x35c>
				case CEA_SAD_FMT_MP3:
				case CEA_SAD_FMT_MPEG2:
				case CEA_SAD_FMT_AAC:
				case CEA_SAD_FMT_DTS:
				case CEA_SAD_FMT_ATRAC:
					printf("           bitrate max : %d (kHz)\n", cea->db_audio.sad[i].bitrate);
  182738:	a1400417 	ldw	r5,16(r20)
  18273c:	010006b4 	movhi	r4,26
  182740:	21302e04 	addi	r4,r4,-16200
  182744:	01891080 	call	189108 <printf>
					break;
  182748:	00000906 	br	182770 <edid_print_cea+0x35c>
					cea->db_audio.sad[i].freq & CEA_SAD_SF_32K ? 1 : 0);

				switch (cea->db_audio.sad[i].format) {
				case CEA_SAD_FMT_LPCM:
					printf("           resolution  : 24-bit)%d 20-bit)%d 16-bit)%d\n",
						cea->db_audio.sad[i].resolution & 0x04 ? 1 : 0,
  18274c:	a1c00317 	ldw	r7,12(r20)
					cea->db_audio.sad[i].freq & CEA_SAD_SF_44P1K ? 1 : 0,
					cea->db_audio.sad[i].freq & CEA_SAD_SF_32K ? 1 : 0);

				switch (cea->db_audio.sad[i].format) {
				case CEA_SAD_FMT_LPCM:
					printf("           resolution  : 24-bit)%d 20-bit)%d 16-bit)%d\n",
  182750:	010006b4 	movhi	r4,26
  182754:	21302004 	addi	r4,r4,-16256
  182758:	380ad0ba 	srli	r5,r7,2
  18275c:	380cd07a 	srli	r6,r7,1
  182760:	39c0004c 	andi	r7,r7,1
  182764:	2940004c 	andi	r5,r5,1
  182768:	3180004c 	andi	r6,r6,1
  18276c:	01891080 	call	189108 <printf>
		switch (cea->dbc_tags[t]) {
		case CEA_DB_AUDIO:
			printf("\n  [%02d] audio data block ...\n", t);
			printf("       number of SADs (short audio descriptor) : %d\n", cea->db_audio.nr_sad);

			for (i = 0; i < cea->db_audio.nr_sad; ++i) {
  182770:	ad400044 	addi	r21,r21,1
  182774:	a5000504 	addi	r20,r20,20
  182778:	003fc106 	br	182680 <__alt_data_end+0xfff82680>
				"720x480p       @239.76/240 Hz (16:9)",
				"720(1440)x480i @239.76/240 Hz (4:3)",
				"720(1440)x480i @239.76/240 Hz (16:9)",
			};

			printf("\n  [%02d] video data block ...\n", t);
  18277c:	010006b4 	movhi	r4,26
  182780:	a00b883a 	mov	r5,r20
  182784:	21303704 	addi	r4,r4,-16164
  182788:	01891080 	call	189108 <printf>
			printf("       number of SVDs (short video descriptor) : %d\n", cea->db_video.nr_svd);
  18278c:	8809883a 	mov	r4,r17
  182790:	01416f04 	movi	r5,1468
  182794:	0187dd80 	call	187dd8 <__mulsi3>
  182798:	8085883a 	add	r2,r16,r2
  18279c:	11463317 	ldw	r5,6348(r2)
  1827a0:	010006b4 	movhi	r4,26
  1827a4:	21303f04 	addi	r4,r4,-16132
  1827a8:	01891080 	call	189108 <printf>

			for (i = 0; i < cea->db_video.nr_svd; ++i) {
  1827ac:	dd000517 	ldw	r20,20(sp)
				if (cea->db_video.svd[i].vic < 60)
					printf("       %02d) VIC-%02d %s %s\n", i, cea->db_video.svd[i].vic, vic_table[cea->db_video.svd[i].vic], cea->db_video.svd[i].native ? "(native)" : " ");
  1827b0:	054006b4 	movhi	r21,26
			};

			printf("\n  [%02d] video data block ...\n", t);
			printf("       number of SVDs (short video descriptor) : %d\n", cea->db_video.nr_svd);

			for (i = 0; i < cea->db_video.nr_svd; ++i) {
  1827b4:	002d883a 	mov	r22,zero
				if (cea->db_video.svd[i].vic < 60)
					printf("       %02d) VIC-%02d %s %s\n", i, cea->db_video.svd[i].vic, vic_table[cea->db_video.svd[i].vic], cea->db_video.svd[i].native ? "(native)" : " ");
  1827b8:	ad799b04 	addi	r21,r21,-6548
			};

			printf("\n  [%02d] video data block ...\n", t);
			printf("       number of SVDs (short video descriptor) : %d\n", cea->db_video.nr_svd);

			for (i = 0; i < cea->db_video.nr_svd; ++i) {
  1827bc:	8809883a 	mov	r4,r17
  1827c0:	01416f04 	movi	r5,1468
  1827c4:	0187dd80 	call	187dd8 <__mulsi3>
  1827c8:	8085883a 	add	r2,r16,r2
  1827cc:	10863317 	ldw	r2,6348(r2)
  1827d0:	b082c90e 	bge	r22,r2,1832f8 <edid_print_cea+0xee4>
				if (cea->db_video.svd[i].vic < 60)
  1827d4:	a1800117 	ldw	r6,4(r20)
  1827d8:	00800ec4 	movi	r2,59
  1827dc:	a0c00017 	ldw	r3,0(r20)
  1827e0:	11801016 	blt	r2,r6,182824 <edid_print_cea+0x410>
					printf("       %02d) VIC-%02d %s %s\n", i, cea->db_video.svd[i].vic, vic_table[cea->db_video.svd[i].vic], cea->db_video.svd[i].native ? "(native)" : " ");
  1827e4:	3185883a 	add	r2,r6,r6
  1827e8:	1085883a 	add	r2,r2,r2
  1827ec:	a885883a 	add	r2,r21,r2
  1827f0:	11c00017 	ldw	r7,0(r2)
  1827f4:	1800031e 	bne	r3,zero,182804 <edid_print_cea+0x3f0>
  1827f8:	008006b4 	movhi	r2,26
  1827fc:	10b19a04 	addi	r2,r2,-14744
  182800:	00000206 	br	18280c <edid_print_cea+0x3f8>
  182804:	008006b4 	movhi	r2,26
  182808:	10af6004 	addi	r2,r2,-17024
  18280c:	010006b4 	movhi	r4,26
  182810:	d8800015 	stw	r2,0(sp)
  182814:	21304d04 	addi	r4,r4,-16076
  182818:	b00b883a 	mov	r5,r22
  18281c:	01891080 	call	189108 <printf>
  182820:	00000a06 	br	18284c <edid_print_cea+0x438>
				else
					printf("       %02d) VIC-%02d unknown %s\n", i, cea->db_video.svd[i].vic, cea->db_video.svd[i].native ? "(native)" : " ");
  182824:	1800031e 	bne	r3,zero,182834 <edid_print_cea+0x420>
  182828:	01c006b4 	movhi	r7,26
  18282c:	39f19a04 	addi	r7,r7,-14744
  182830:	00000206 	br	18283c <edid_print_cea+0x428>
  182834:	01c006b4 	movhi	r7,26
  182838:	39ef6004 	addi	r7,r7,-17024
  18283c:	010006b4 	movhi	r4,26
  182840:	21305504 	addi	r4,r4,-16044
  182844:	b00b883a 	mov	r5,r22
  182848:	01891080 	call	189108 <printf>
			};

			printf("\n  [%02d] video data block ...\n", t);
			printf("       number of SVDs (short video descriptor) : %d\n", cea->db_video.nr_svd);

			for (i = 0; i < cea->db_video.nr_svd; ++i) {
  18284c:	b5800044 	addi	r22,r22,1
  182850:	a5000204 	addi	r20,r20,8
  182854:	003fd906 	br	1827bc <__alt_data_end+0xfff827bc>
					printf("       %02d) VIC-%02d unknown %s\n", i, cea->db_video.svd[i].vic, cea->db_video.svd[i].native ? "(native)" : " ");
			}
			break;
		}
		case CEA_DB_VENDOR:
			if (cea->db_vsdb_hdmi.ieee_reg_id != 0x000c03) {
  182858:	8809883a 	mov	r4,r17
  18285c:	01416f04 	movi	r5,1468
  182860:	0187dd80 	call	187dd8 <__mulsi3>
  182864:	102b883a 	mov	r21,r2
  182868:	8085883a 	add	r2,r16,r2
  18286c:	10c6a917 	ldw	r3,6820(r2)
  182870:	008300c4 	movi	r2,3075
  182874:	18800326 	beq	r3,r2,182884 <edid_print_cea+0x470>
				printf("\n  [%02d] VSDB vendor specific data block ...\n", t);
  182878:	010006b4 	movhi	r4,26
  18287c:	21305e04 	addi	r4,r4,-16008
  182880:	00027606 	br	18325c <edid_print_cea+0xe48>
				break;
			}

			printf("\n  [%02d] HDMI VSDB vendor specific data block ...\n", t);
  182884:	010006b4 	movhi	r4,26
  182888:	21306a04 	addi	r4,r4,-15960
  18288c:	a00b883a 	mov	r5,r20
  182890:	01891080 	call	189108 <printf>
			printf("       source physical address         : %d.%d.%d.%d\n",
  182894:	854b883a 	add	r5,r16,r21
  182898:	2906ad17 	ldw	r4,6836(r5)
  18289c:	2807883a 	mov	r3,r5
  1828a0:	d9000015 	stw	r4,0(sp)
  1828a4:	1986ab17 	ldw	r6,6828(r3)
  1828a8:	19c6ac17 	ldw	r7,6832(r3)
  1828ac:	2946aa17 	ldw	r5,6824(r5)
  1828b0:	010006b4 	movhi	r4,26
  1828b4:	21307704 	addi	r4,r4,-15908
  1828b8:	01891080 	call	189108 <printf>
				cea->db_vsdb_hdmi.addr_a, cea->db_vsdb_hdmi.addr_b,
				cea->db_vsdb_hdmi.addr_c, cea->db_vsdb_hdmi.addr_d);

			if (cea->db_vsdb_hdmi.ext_len >= 6) {
  1828bc:	8545883a 	add	r2,r16,r21
  1828c0:	1086a817 	ldw	r2,6816(r2)
  1828c4:	00c00144 	movi	r3,5
  1828c8:	1880510e 	bge	r3,r2,182a10 <edid_print_cea+0x5fc>
				printf("       support ACP ISRC1 ISRC2 packets : %s\n", cea->db_vsdb_hdmi.ai ? "yes" : "no");
  1828cc:	856b883a 	add	r21,r16,r21
  1828d0:	a886ae17 	ldw	r2,6840(r21)
  1828d4:	1000031e 	bne	r2,zero,1828e4 <edid_print_cea+0x4d0>
  1828d8:	014006b4 	movhi	r5,26
  1828dc:	296f5f04 	addi	r5,r5,-17028
  1828e0:	00000206 	br	1828ec <edid_print_cea+0x4d8>
  1828e4:	014006b4 	movhi	r5,26
  1828e8:	296f5e04 	addi	r5,r5,-17032
  1828ec:	010006b4 	movhi	r4,26
  1828f0:	21308504 	addi	r4,r4,-15852
  1828f4:	01891080 	call	189108 <printf>
				printf("       support 48 bpp                  : %s\n", cea->db_vsdb_hdmi.bpp48 ? "yes" : "no");
  1828f8:	8809883a 	mov	r4,r17
  1828fc:	01416f04 	movi	r5,1468
  182900:	0187dd80 	call	187dd8 <__mulsi3>
  182904:	8085883a 	add	r2,r16,r2
  182908:	1086b117 	ldw	r2,6852(r2)
  18290c:	1000031e 	bne	r2,zero,18291c <edid_print_cea+0x508>
  182910:	014006b4 	movhi	r5,26
  182914:	296f5f04 	addi	r5,r5,-17028
  182918:	00000206 	br	182924 <edid_print_cea+0x510>
  18291c:	014006b4 	movhi	r5,26
  182920:	296f5e04 	addi	r5,r5,-17032
  182924:	010006b4 	movhi	r4,26
  182928:	21309104 	addi	r4,r4,-15804
  18292c:	01891080 	call	189108 <printf>
				printf("       support 36 bpp                  : %s\n", cea->db_vsdb_hdmi.bpp36 ? "yes" : "no");
  182930:	8809883a 	mov	r4,r17
  182934:	01416f04 	movi	r5,1468
  182938:	0187dd80 	call	187dd8 <__mulsi3>
  18293c:	8085883a 	add	r2,r16,r2
  182940:	1086b017 	ldw	r2,6848(r2)
  182944:	1000031e 	bne	r2,zero,182954 <edid_print_cea+0x540>
  182948:	014006b4 	movhi	r5,26
  18294c:	296f5f04 	addi	r5,r5,-17028
  182950:	00000206 	br	18295c <edid_print_cea+0x548>
  182954:	014006b4 	movhi	r5,26
  182958:	296f5e04 	addi	r5,r5,-17032
  18295c:	010006b4 	movhi	r4,26
  182960:	21309d04 	addi	r4,r4,-15756
  182964:	01891080 	call	189108 <printf>
				printf("       support 30 bpp                  : %s\n", cea->db_vsdb_hdmi.bpp30 ? "yes" : "no");
  182968:	8809883a 	mov	r4,r17
  18296c:	01416f04 	movi	r5,1468
  182970:	0187dd80 	call	187dd8 <__mulsi3>
  182974:	8085883a 	add	r2,r16,r2
  182978:	1086af17 	ldw	r2,6844(r2)
  18297c:	1000031e 	bne	r2,zero,18298c <edid_print_cea+0x578>
  182980:	014006b4 	movhi	r5,26
  182984:	296f5f04 	addi	r5,r5,-17028
  182988:	00000206 	br	182994 <edid_print_cea+0x580>
  18298c:	014006b4 	movhi	r5,26
  182990:	296f5e04 	addi	r5,r5,-17032
  182994:	010006b4 	movhi	r4,26
  182998:	2130a904 	addi	r4,r4,-15708
  18299c:	01891080 	call	189108 <printf>
				printf("       support YCbCr 4:4:4 deep color  : %s\n", cea->db_vsdb_hdmi.ycbcr444 ? "yes" : "no");
  1829a0:	8809883a 	mov	r4,r17
  1829a4:	01416f04 	movi	r5,1468
  1829a8:	0187dd80 	call	187dd8 <__mulsi3>
  1829ac:	8085883a 	add	r2,r16,r2
  1829b0:	1086b217 	ldw	r2,6856(r2)
  1829b4:	1000031e 	bne	r2,zero,1829c4 <edid_print_cea+0x5b0>
  1829b8:	014006b4 	movhi	r5,26
  1829bc:	296f5f04 	addi	r5,r5,-17028
  1829c0:	00000206 	br	1829cc <edid_print_cea+0x5b8>
  1829c4:	014006b4 	movhi	r5,26
  1829c8:	296f5e04 	addi	r5,r5,-17032
  1829cc:	010006b4 	movhi	r4,26
  1829d0:	2130b504 	addi	r4,r4,-15660
  1829d4:	01891080 	call	189108 <printf>
				printf("       support DVI dual-link           : %s\n", cea->db_vsdb_hdmi.dvi_dual ? "yes" : "no");
  1829d8:	8809883a 	mov	r4,r17
  1829dc:	01416f04 	movi	r5,1468
  1829e0:	0187dd80 	call	187dd8 <__mulsi3>
  1829e4:	8085883a 	add	r2,r16,r2
  1829e8:	1086b317 	ldw	r2,6860(r2)
  1829ec:	1000031e 	bne	r2,zero,1829fc <edid_print_cea+0x5e8>
  1829f0:	014006b4 	movhi	r5,26
  1829f4:	296f5f04 	addi	r5,r5,-17028
  1829f8:	00000206 	br	182a04 <edid_print_cea+0x5f0>
  1829fc:	014006b4 	movhi	r5,26
  182a00:	296f5e04 	addi	r5,r5,-17032
  182a04:	010006b4 	movhi	r4,26
  182a08:	2130c104 	addi	r4,r4,-15612
  182a0c:	01891080 	call	189108 <printf>
			}

			if (cea->db_vsdb_hdmi.ext_len >= 7) {
  182a10:	8809883a 	mov	r4,r17
  182a14:	01416f04 	movi	r5,1468
  182a18:	0187dd80 	call	187dd8 <__mulsi3>
  182a1c:	8087883a 	add	r3,r16,r2
  182a20:	18c6a817 	ldw	r3,6816(r3)
  182a24:	01000184 	movi	r4,6
  182a28:	20c0050e 	bge	r4,r3,182a40 <edid_print_cea+0x62c>
				printf("       max TMDS clock                  : %d (MHz)\n", cea->db_vsdb_hdmi.max_tmds_clk);
  182a2c:	8085883a 	add	r2,r16,r2
  182a30:	1146b717 	ldw	r5,6876(r2)
  182a34:	010006b4 	movhi	r4,26
  182a38:	2130cd04 	addi	r4,r4,-15564
  182a3c:	01891080 	call	189108 <printf>
			}

			if (cea->db_vsdb_hdmi.p_latency != 0) {
  182a40:	8809883a 	mov	r4,r17
  182a44:	01416f04 	movi	r5,1468
  182a48:	0187dd80 	call	187dd8 <__mulsi3>
  182a4c:	1029883a 	mov	r20,r2
  182a50:	8085883a 	add	r2,r16,r2
  182a54:	1086b417 	ldw	r2,6864(r2)
  182a58:	10000a26 	beq	r2,zero,182a84 <edid_print_cea+0x670>
				printf("       video latency (progressive)     : %d (ms)\n", cea->db_vsdb_hdmi.vid_latency_p);
  182a5c:	8505883a 	add	r2,r16,r20
  182a60:	1146b817 	ldw	r5,6880(r2)
  182a64:	010006b4 	movhi	r4,26
  182a68:	2130da04 	addi	r4,r4,-15512
  182a6c:	01891080 	call	189108 <printf>
				printf("       audio latency (progressive)     : %d (ms)\n", cea->db_vsdb_hdmi.aud_latency_p);
  182a70:	8529883a 	add	r20,r16,r20
  182a74:	a146b917 	ldw	r5,6884(r20)
  182a78:	010006b4 	movhi	r4,26
  182a7c:	2130e704 	addi	r4,r4,-15460
  182a80:	01891080 	call	189108 <printf>
			}

			if (cea->db_vsdb_hdmi.i_latency != 0) {
  182a84:	8809883a 	mov	r4,r17
  182a88:	01416f04 	movi	r5,1468
  182a8c:	0187dd80 	call	187dd8 <__mulsi3>
  182a90:	1029883a 	mov	r20,r2
  182a94:	8085883a 	add	r2,r16,r2
  182a98:	1086b517 	ldw	r2,6868(r2)
  182a9c:	10000a26 	beq	r2,zero,182ac8 <edid_print_cea+0x6b4>
				printf("       video latency (interlaced)      : %d (ms)\n", cea->db_vsdb_hdmi.vid_latency_i);
  182aa0:	8505883a 	add	r2,r16,r20
  182aa4:	1146ba17 	ldw	r5,6888(r2)
  182aa8:	010006b4 	movhi	r4,26
  182aac:	2130f404 	addi	r4,r4,-15408
  182ab0:	01891080 	call	189108 <printf>
				printf("       audio latency (interlaced)      : %d (ms)\n", cea->db_vsdb_hdmi.aud_latency_i);
  182ab4:	8529883a 	add	r20,r16,r20
  182ab8:	a146bb17 	ldw	r5,6892(r20)
  182abc:	010006b4 	movhi	r4,26
  182ac0:	21310104 	addi	r4,r4,-15356
  182ac4:	01891080 	call	189108 <printf>
			}

			printf("       HDMI video fields               : %s\n", cea->db_vsdb_hdmi.hdmi_video ? "yes" : "no");
  182ac8:	8809883a 	mov	r4,r17
  182acc:	01416f04 	movi	r5,1468
  182ad0:	0187dd80 	call	187dd8 <__mulsi3>
  182ad4:	8085883a 	add	r2,r16,r2
  182ad8:	1086b617 	ldw	r2,6872(r2)
  182adc:	1000031e 	bne	r2,zero,182aec <edid_print_cea+0x6d8>
  182ae0:	014006b4 	movhi	r5,26
  182ae4:	296f5f04 	addi	r5,r5,-17028
  182ae8:	00000206 	br	182af4 <edid_print_cea+0x6e0>
  182aec:	014006b4 	movhi	r5,26
  182af0:	296f5e04 	addi	r5,r5,-17032
  182af4:	010006b4 	movhi	r4,26
  182af8:	21310e04 	addi	r4,r4,-15304
  182afc:	01891080 	call	189108 <printf>
			printf("       HDMI 3D video fields            : %s\n", cea->db_vsdb_hdmi.present_3d ? "yes" : "no");
  182b00:	8809883a 	mov	r4,r17
  182b04:	01416f04 	movi	r5,1468
  182b08:	0187dd80 	call	187dd8 <__mulsi3>
  182b0c:	8085883a 	add	r2,r16,r2
  182b10:	1086bc17 	ldw	r2,6896(r2)
  182b14:	1000031e 	bne	r2,zero,182b24 <edid_print_cea+0x710>
  182b18:	014006b4 	movhi	r5,26
  182b1c:	296f5f04 	addi	r5,r5,-17028
  182b20:	00000206 	br	182b2c <edid_print_cea+0x718>
  182b24:	014006b4 	movhi	r5,26
  182b28:	296f5e04 	addi	r5,r5,-17032
  182b2c:	010006b4 	movhi	r4,26
  182b30:	21311a04 	addi	r4,r4,-15256
  182b34:	01891080 	call	189108 <printf>

			if (cea->db_vsdb_hdmi.hdmi_video != 0) {
  182b38:	8809883a 	mov	r4,r17
  182b3c:	01416f04 	movi	r5,1468
  182b40:	0187dd80 	call	187dd8 <__mulsi3>
  182b44:	8087883a 	add	r3,r16,r2
  182b48:	18c6b617 	ldw	r3,6872(r3)
  182b4c:	1801ea26 	beq	r3,zero,1832f8 <edid_print_cea+0xee4>
				switch (cea->db_vsdb_hdmi.multi_3d) {
  182b50:	8085883a 	add	r2,r16,r2
  182b54:	1086bd17 	ldw	r2,6900(r2)
  182b58:	00c00044 	movi	r3,1
  182b5c:	10c00c26 	beq	r2,r3,182b90 <edid_print_cea+0x77c>
  182b60:	18800416 	blt	r3,r2,182b74 <edid_print_cea+0x760>
  182b64:	1000101e 	bne	r2,zero,182ba8 <edid_print_cea+0x794>
				case 0:
					printf("         3D-Multi_present              : 2b00 (no 3D_Structure_ALL_15..0, no 3D_MASK_15..0)\n");
  182b68:	010006b4 	movhi	r4,26
  182b6c:	21312604 	addi	r4,r4,-15208
  182b70:	00000c06 	br	182ba4 <edid_print_cea+0x790>

			printf("       HDMI video fields               : %s\n", cea->db_vsdb_hdmi.hdmi_video ? "yes" : "no");
			printf("       HDMI 3D video fields            : %s\n", cea->db_vsdb_hdmi.present_3d ? "yes" : "no");

			if (cea->db_vsdb_hdmi.hdmi_video != 0) {
				switch (cea->db_vsdb_hdmi.multi_3d) {
  182b74:	00c00084 	movi	r3,2
  182b78:	10c00826 	beq	r2,r3,182b9c <edid_print_cea+0x788>
  182b7c:	00c000c4 	movi	r3,3
  182b80:	10c0091e 	bne	r2,r3,182ba8 <edid_print_cea+0x794>
					break;
				case 2:
					printf("         3D-Multi_present              : 2b10 (with 3D_Structure_ALL_15..0, with 3D_MASK_15..0)\n");
					break;
				case 3:
					printf("         3D-Multi_present              : 2b11 (no 3D_Structure_ALL_15..0, no 3D_MASK_15..0)\n");
  182b84:	010006b4 	movhi	r4,26
  182b88:	21316d04 	addi	r4,r4,-14924
  182b8c:	00000506 	br	182ba4 <edid_print_cea+0x790>
				switch (cea->db_vsdb_hdmi.multi_3d) {
				case 0:
					printf("         3D-Multi_present              : 2b00 (no 3D_Structure_ALL_15..0, no 3D_MASK_15..0)\n");
					break;
				case 1:
					printf("         3D-Multi_present              : 2b01 (with 3D_Structure_ALL_15..0, no 3D_MASK_15..0)\n");
  182b90:	010006b4 	movhi	r4,26
  182b94:	21313d04 	addi	r4,r4,-15116
  182b98:	00000206 	br	182ba4 <edid_print_cea+0x790>
					break;
				case 2:
					printf("         3D-Multi_present              : 2b10 (with 3D_Structure_ALL_15..0, with 3D_MASK_15..0)\n");
  182b9c:	010006b4 	movhi	r4,26
  182ba0:	21315504 	addi	r4,r4,-15020
					break;
				case 3:
					printf("         3D-Multi_present              : 2b11 (no 3D_Structure_ALL_15..0, no 3D_MASK_15..0)\n");
  182ba4:	018920c0 	call	18920c <puts>
					break;
				}

				if ((cea->db_vsdb_hdmi.multi_3d == 1) || (cea->db_vsdb_hdmi.multi_3d == 2)) {
  182ba8:	8809883a 	mov	r4,r17
  182bac:	01416f04 	movi	r5,1468
  182bb0:	0187dd80 	call	187dd8 <__mulsi3>
  182bb4:	8087883a 	add	r3,r16,r2
  182bb8:	18c6bd17 	ldw	r3,6900(r3)
  182bbc:	01000044 	movi	r4,1
  182bc0:	18ffffc4 	addi	r3,r3,-1
  182bc4:	20c02736 	bltu	r4,r3,182c64 <edid_print_cea+0x850>
					if (cea->db_vsdb_hdmi.struct_all_3d == 0) {
  182bc8:	1086c104 	addi	r2,r2,6916
  182bcc:	80a9883a 	add	r20,r16,r2
  182bd0:	a0800017 	ldw	r2,0(r20)
  182bd4:	1000041e 	bne	r2,zero,182be8 <edid_print_cea+0x7d4>
						printf("         3D_Structure_ALL              : none\n");
  182bd8:	010006b4 	movhi	r4,26
  182bdc:	21318404 	addi	r4,r4,-14832
  182be0:	018920c0 	call	18920c <puts>
  182be4:	00001f06 	br	182c64 <edid_print_cea+0x850>
					} else {
						printf("         3D_Structure_ALL              : ");
  182be8:	010006b4 	movhi	r4,26
  182bec:	21319004 	addi	r4,r4,-14784
  182bf0:	01891080 	call	189108 <printf>
						if (cea->db_vsdb_hdmi.struct_all_3d & 0x01)
  182bf4:	a0800017 	ldw	r2,0(r20)
  182bf8:	1080004c 	andi	r2,r2,1
  182bfc:	10000326 	beq	r2,zero,182c0c <edid_print_cea+0x7f8>
							printf("frame_packing ");
  182c00:	010006b4 	movhi	r4,26
  182c04:	21319b04 	addi	r4,r4,-14740
  182c08:	01891080 	call	189108 <printf>
						if (cea->db_vsdb_hdmi.struct_all_3d & 0x40)
  182c0c:	8809883a 	mov	r4,r17
  182c10:	01416f04 	movi	r5,1468
  182c14:	0187dd80 	call	187dd8 <__mulsi3>
  182c18:	8085883a 	add	r2,r16,r2
  182c1c:	1086c117 	ldw	r2,6916(r2)
  182c20:	1080100c 	andi	r2,r2,64
  182c24:	10000326 	beq	r2,zero,182c34 <edid_print_cea+0x820>
							printf("top-and-bottom ");
  182c28:	010006b4 	movhi	r4,26
  182c2c:	21319f04 	addi	r4,r4,-14724
  182c30:	01891080 	call	189108 <printf>
						if (cea->db_vsdb_hdmi.struct_all_3d & 0x100)
  182c34:	8809883a 	mov	r4,r17
  182c38:	01416f04 	movi	r5,1468
  182c3c:	0187dd80 	call	187dd8 <__mulsi3>
  182c40:	8085883a 	add	r2,r16,r2
  182c44:	1086c117 	ldw	r2,6916(r2)
  182c48:	1080400c 	andi	r2,r2,256
  182c4c:	10000326 	beq	r2,zero,182c5c <edid_print_cea+0x848>
							printf("side-by-side(half h_subsampling)");
  182c50:	010006b4 	movhi	r4,26
  182c54:	2131a304 	addi	r4,r4,-14708
  182c58:	01891080 	call	189108 <printf>
						printf("\n");
  182c5c:	01000284 	movi	r4,10
  182c60:	018914c0 	call	18914c <putchar>
					}
				}

				if (cea->db_vsdb_hdmi.multi_3d == 2) {
  182c64:	8809883a 	mov	r4,r17
  182c68:	01416f04 	movi	r5,1468
  182c6c:	0187dd80 	call	187dd8 <__mulsi3>
  182c70:	8087883a 	add	r3,r16,r2
  182c74:	1906bd17 	ldw	r4,6900(r3)
  182c78:	00c00084 	movi	r3,2
  182c7c:	20c0051e 	bne	r4,r3,182c94 <edid_print_cea+0x880>
					printf("         3D_MASK                       : 0x%04x\n", cea->db_vsdb_hdmi.mask_3d);
  182c80:	8085883a 	add	r2,r16,r2
  182c84:	1146c217 	ldw	r5,6920(r2)
  182c88:	010006b4 	movhi	r4,26
  182c8c:	2131ac04 	addi	r4,r4,-14672
  182c90:	01891080 	call	189108 <printf>
				}

				switch (cea->db_vsdb_hdmi.image_size) {
  182c94:	8809883a 	mov	r4,r17
  182c98:	01416f04 	movi	r5,1468
  182c9c:	0187dd80 	call	187dd8 <__mulsi3>
  182ca0:	8085883a 	add	r2,r16,r2
  182ca4:	1086be17 	ldw	r2,6904(r2)
  182ca8:	00c00044 	movi	r3,1
  182cac:	10c00c26 	beq	r2,r3,182ce0 <edid_print_cea+0x8cc>
  182cb0:	18800416 	blt	r3,r2,182cc4 <edid_print_cea+0x8b0>
  182cb4:	1000101e 	bne	r2,zero,182cf8 <edid_print_cea+0x8e4>
				case 0:
					printf("         image size extra properties   : none\n");
  182cb8:	010006b4 	movhi	r4,26
  182cbc:	2131b904 	addi	r4,r4,-14620
  182cc0:	00000c06 	br	182cf4 <edid_print_cea+0x8e0>

				if (cea->db_vsdb_hdmi.multi_3d == 2) {
					printf("         3D_MASK                       : 0x%04x\n", cea->db_vsdb_hdmi.mask_3d);
				}

				switch (cea->db_vsdb_hdmi.image_size) {
  182cc4:	00c00084 	movi	r3,2
  182cc8:	10c00826 	beq	r2,r3,182cec <edid_print_cea+0x8d8>
  182ccc:	00c000c4 	movi	r3,3
  182cd0:	10c0091e 	bne	r2,r3,182cf8 <edid_print_cea+0x8e4>
					break;
				case 2:
					printf("         image size extra properties   : size correct (1cm nearest rounded)\n");
					break;
				case 3:
					printf("         image size extra properties   : size correct (div by 5cm nearest rounded)\n");
  182cd4:	010006b4 	movhi	r4,26
  182cd8:	2131e904 	addi	r4,r4,-14428
  182cdc:	00000506 	br	182cf4 <edid_print_cea+0x8e0>
				switch (cea->db_vsdb_hdmi.image_size) {
				case 0:
					printf("         image size extra properties   : none\n");
					break;
				case 1:
					printf("         image size extra properties   : exact aspect ratio only\n");
  182ce0:	010006b4 	movhi	r4,26
  182ce4:	2131c504 	addi	r4,r4,-14572
  182ce8:	00000206 	br	182cf4 <edid_print_cea+0x8e0>
					break;
				case 2:
					printf("         image size extra properties   : size correct (1cm nearest rounded)\n");
  182cec:	010006b4 	movhi	r4,26
  182cf0:	2131d604 	addi	r4,r4,-14504
					break;
				case 3:
					printf("         image size extra properties   : size correct (div by 5cm nearest rounded)\n");
  182cf4:	018920c0 	call	18920c <puts>
				printf("       video latency (interlaced)      : %d (ms)\n", cea->db_vsdb_hdmi.vid_latency_i);
				printf("       audio latency (interlaced)      : %d (ms)\n", cea->db_vsdb_hdmi.aud_latency_i);
			}

			printf("       HDMI video fields               : %s\n", cea->db_vsdb_hdmi.hdmi_video ? "yes" : "no");
			printf("       HDMI 3D video fields            : %s\n", cea->db_vsdb_hdmi.present_3d ? "yes" : "no");
  182cf8:	dd000617 	ldw	r20,24(sp)

				for (i = 0; i < cea->db_vsdb_hdmi.nr_vic_3d; ++ i) {

					printf("         [%02d] 2D_VIC_Order)%02d ", i, cea->db_vsdb_hdmi.vic_3d[i].vic_2d);

					switch (cea->db_vsdb_hdmi.vic_3d[i].struct_3d) {
  182cfc:	05c00634 	movhi	r23,24
						printf("3D_Structure)unknown ");
						break;
					}

					if (cea->db_vsdb_hdmi.vic_3d[i].struct_3d == 0x08) {
						switch (cea->db_vsdb_hdmi.vic_3d[i].detail_3d) {
  182d00:	07000634 	movhi	fp,24
				printf("       video latency (interlaced)      : %d (ms)\n", cea->db_vsdb_hdmi.vid_latency_i);
				printf("       audio latency (interlaced)      : %d (ms)\n", cea->db_vsdb_hdmi.aud_latency_i);
			}

			printf("       HDMI video fields               : %s\n", cea->db_vsdb_hdmi.hdmi_video ? "yes" : "no");
			printf("       HDMI 3D video fields            : %s\n", cea->db_vsdb_hdmi.present_3d ? "yes" : "no");
  182d04:	002b883a 	mov	r21,zero

				for (i = 0; i < cea->db_vsdb_hdmi.nr_vic_3d; ++ i) {

					printf("         [%02d] 2D_VIC_Order)%02d ", i, cea->db_vsdb_hdmi.vic_3d[i].vic_2d);

					switch (cea->db_vsdb_hdmi.vic_3d[i].struct_3d) {
  182d08:	bdcb5604 	addi	r23,r23,11608
						printf("3D_Structure)unknown ");
						break;
					}

					if (cea->db_vsdb_hdmi.vic_3d[i].struct_3d == 0x08) {
						switch (cea->db_vsdb_hdmi.vic_3d[i].detail_3d) {
  182d0c:	e70b8304 	addi	fp,fp,11788
				case 3:
					printf("         image size extra properties   : size correct (div by 5cm nearest rounded)\n");
					break;
				}

				for (i = 0; i < cea->db_vsdb_hdmi.nr_vic_3d; ++ i) {
  182d10:	8809883a 	mov	r4,r17
  182d14:	01416f04 	movi	r5,1468
  182d18:	0187dd80 	call	187dd8 <__mulsi3>
  182d1c:	8085883a 	add	r2,r16,r2
  182d20:	1086c317 	ldw	r2,6924(r2)
  182d24:	a881740e 	bge	r21,r2,1832f8 <edid_print_cea+0xee4>

					printf("         [%02d] 2D_VIC_Order)%02d ", i, cea->db_vsdb_hdmi.vic_3d[i].vic_2d);
  182d28:	a1bfff17 	ldw	r6,-4(r20)
  182d2c:	010006b4 	movhi	r4,26
  182d30:	2131fe04 	addi	r4,r4,-14344
  182d34:	a80b883a 	mov	r5,r21
  182d38:	01891080 	call	189108 <printf>

					switch (cea->db_vsdb_hdmi.vic_3d[i].struct_3d) {
  182d3c:	a0800017 	ldw	r2,0(r20)
  182d40:	05800204 	movi	r22,8
  182d44:	b0802536 	bltu	r22,r2,182ddc <edid_print_cea+0x9c8>
  182d48:	100490ba 	slli	r2,r2,2
  182d4c:	15c5883a 	add	r2,r2,r23
  182d50:	10800017 	ldw	r2,0(r2)
  182d54:	1000683a 	jmp	r2
  182d58:	00182d7c 	xorhi	zero,zero,24757
  182d5c:	00182d88 	cmpgei	zero,zero,24758
  182d60:	00182d94 	movui	zero,24758
  182d64:	00182da0 	cmpeqi	zero,zero,24758
  182d68:	00182dac 	andhi	zero,zero,24758
  182d6c:	00182db8 	rdprs	zero,zero,24758
  182d70:	00182dc4 	movi	zero,24759
  182d74:	00182ddc 	xori	zero,zero,24759
  182d78:	00182dd0 	cmplti	zero,zero,24759
					case 0:
						printf("3D_Structure)frame_packing ");
  182d7c:	010006b4 	movhi	r4,26
  182d80:	21320704 	addi	r4,r4,-14308
  182d84:	00001706 	br	182de4 <edid_print_cea+0x9d0>
						break;
					case 1:
						printf("3D_Structure)field_alternative ");
  182d88:	010006b4 	movhi	r4,26
  182d8c:	21320e04 	addi	r4,r4,-14280
  182d90:	00001406 	br	182de4 <edid_print_cea+0x9d0>
						break;
					case 2:
						printf("3D_Structure)line_alternative ");
  182d94:	010006b4 	movhi	r4,26
  182d98:	21321604 	addi	r4,r4,-14248
  182d9c:	00001106 	br	182de4 <edid_print_cea+0x9d0>
						break;
					case 3:
						printf("3D_Structure)side-by-side(full) ");
  182da0:	010006b4 	movhi	r4,26
  182da4:	21321e04 	addi	r4,r4,-14216
  182da8:	00000e06 	br	182de4 <edid_print_cea+0x9d0>
						break;
					case 4:
						printf("3D_Structure)L+depth ");
  182dac:	010006b4 	movhi	r4,26
  182db0:	21322704 	addi	r4,r4,-14180
  182db4:	00000b06 	br	182de4 <edid_print_cea+0x9d0>
						break;
					case 5:
						printf("3D_Structure)L+depth+graphics+graphics_depth ");
  182db8:	010006b4 	movhi	r4,26
  182dbc:	21322d04 	addi	r4,r4,-14156
  182dc0:	00000806 	br	182de4 <edid_print_cea+0x9d0>
						break;
					case 6:
						printf("3D_Structure)top-and-bottom ");
  182dc4:	010006b4 	movhi	r4,26
  182dc8:	21323904 	addi	r4,r4,-14108
  182dcc:	00000506 	br	182de4 <edid_print_cea+0x9d0>
						break;
					case 8:
						printf("3D_Structure)side-by-side(half) ");
  182dd0:	010006b4 	movhi	r4,26
  182dd4:	21324104 	addi	r4,r4,-14076
  182dd8:	00000206 	br	182de4 <edid_print_cea+0x9d0>
						break;
					default:
						printf("3D_Structure)unknown ");
  182ddc:	010006b4 	movhi	r4,26
  182de0:	21324a04 	addi	r4,r4,-14040
  182de4:	01891080 	call	189108 <printf>
						break;
					}

					if (cea->db_vsdb_hdmi.vic_3d[i].struct_3d == 0x08) {
  182de8:	a0800017 	ldw	r2,0(r20)
  182dec:	1580271e 	bne	r2,r22,182e8c <edid_print_cea+0xa78>
						switch (cea->db_vsdb_hdmi.vic_3d[i].detail_3d) {
  182df0:	a0800117 	ldw	r2,4(r20)
  182df4:	00c00284 	movi	r3,10
  182df8:	18802436 	bltu	r3,r2,182e8c <edid_print_cea+0xa78>
  182dfc:	100490ba 	slli	r2,r2,2
  182e00:	1705883a 	add	r2,r2,fp
  182e04:	10800017 	ldw	r2,0(r2)
  182e08:	1000683a 	jmp	r2
  182e0c:	00182e38 	rdprs	zero,zero,24760
  182e10:	00182e44 	movi	zero,24761
  182e14:	00182e8c 	andi	zero,zero,24762
  182e18:	00182e8c 	andi	zero,zero,24762
  182e1c:	00182e8c 	andi	zero,zero,24762
  182e20:	00182e8c 	andi	zero,zero,24762
  182e24:	00182e50 	cmplti	zero,zero,24761
  182e28:	00182e5c 	xori	zero,zero,24761
  182e2c:	00182e68 	cmpgeui	zero,zero,24761
  182e30:	00182e74 	movhi	zero,24761
  182e34:	00182e80 	call	182e8 <__alt_mem_sram-0x167d18>
						case 0:
							printf("3D_Detail)h_sub_sampling+four_quincunx_matrix");
  182e38:	010006b4 	movhi	r4,26
  182e3c:	21325004 	addi	r4,r4,-14016
  182e40:	00001106 	br	182e88 <edid_print_cea+0xa74>
							break;
						case 1:
							printf("3D_Detail)h_sub_sampling");
  182e44:	010006b4 	movhi	r4,26
  182e48:	21325c04 	addi	r4,r4,-13968
  182e4c:	00000e06 	br	182e88 <edid_print_cea+0xa74>
							break;
						case 6:
							printf("3D_Detail)all_4_sub_sampling_position");
  182e50:	010006b4 	movhi	r4,26
  182e54:	21326304 	addi	r4,r4,-13940
  182e58:	00000b06 	br	182e88 <edid_print_cea+0xa74>
							break;
						case 7:
							printf("3D_Detail)odd_left+odd_right");
  182e5c:	010006b4 	movhi	r4,26
  182e60:	21326d04 	addi	r4,r4,-13900
  182e64:	00000806 	br	182e88 <edid_print_cea+0xa74>
							break;
						case 8:
							printf("3D_Detail)odd_left+even_right");
  182e68:	010006b4 	movhi	r4,26
  182e6c:	21327504 	addi	r4,r4,-13868
  182e70:	00000506 	br	182e88 <edid_print_cea+0xa74>
							break;
						case 9:
							printf("3D_Detail)even_left+odd_right");
  182e74:	010006b4 	movhi	r4,26
  182e78:	21327d04 	addi	r4,r4,-13836
  182e7c:	00000206 	br	182e88 <edid_print_cea+0xa74>
							break;
						case 10:
							printf("3D_Detail)even_left+even_right");
  182e80:	010006b4 	movhi	r4,26
  182e84:	21328504 	addi	r4,r4,-13804
  182e88:	01891080 	call	189108 <printf>
							break;
						}
					}

					printf("\n");
  182e8c:	01000284 	movi	r4,10
  182e90:	018914c0 	call	18914c <putchar>
				case 3:
					printf("         image size extra properties   : size correct (div by 5cm nearest rounded)\n");
					break;
				}

				for (i = 0; i < cea->db_vsdb_hdmi.nr_vic_3d; ++ i) {
  182e94:	ad400044 	addi	r21,r21,1
  182e98:	a5000304 	addi	r20,r20,12
  182e9c:	003f9c06 	br	182d10 <__alt_data_end+0xfff82d10>
			}

			break;

		case CEA_DB_SPEAKER:
			printf("\n  [%02d] speaker allocation data block ...\n", t);
  182ea0:	010006b4 	movhi	r4,26
  182ea4:	21328d04 	addi	r4,r4,-13772
  182ea8:	a00b883a 	mov	r5,r20
  182eac:	01891080 	call	189108 <printf>

			printf("       RLC/RRC : %s\n", cea->db_speaker.designation & CEA_SPK_RLC_RRC ? "yes" : "no");
  182eb0:	8809883a 	mov	r4,r17
  182eb4:	01416f04 	movi	r5,1468
  182eb8:	0187dd80 	call	187dd8 <__mulsi3>
  182ebc:	8085883a 	add	r2,r16,r2
  182ec0:	1086a717 	ldw	r2,6812(r2)
  182ec4:	1080100c 	andi	r2,r2,64
  182ec8:	1000031e 	bne	r2,zero,182ed8 <edid_print_cea+0xac4>
  182ecc:	014006b4 	movhi	r5,26
  182ed0:	296f5f04 	addi	r5,r5,-17028
  182ed4:	00000206 	br	182ee0 <edid_print_cea+0xacc>
  182ed8:	014006b4 	movhi	r5,26
  182edc:	296f5e04 	addi	r5,r5,-17032
  182ee0:	010006b4 	movhi	r4,26
  182ee4:	21329904 	addi	r4,r4,-13724
  182ee8:	01891080 	call	189108 <printf>
			printf("       FLC/FRC : %s\n", cea->db_speaker.designation & CEA_SPK_FLC_FRC ? "yes" : "no");
  182eec:	8809883a 	mov	r4,r17
  182ef0:	01416f04 	movi	r5,1468
  182ef4:	0187dd80 	call	187dd8 <__mulsi3>
  182ef8:	8085883a 	add	r2,r16,r2
  182efc:	1086a717 	ldw	r2,6812(r2)
  182f00:	1080080c 	andi	r2,r2,32
  182f04:	1000031e 	bne	r2,zero,182f14 <edid_print_cea+0xb00>
  182f08:	014006b4 	movhi	r5,26
  182f0c:	296f5f04 	addi	r5,r5,-17028
  182f10:	00000206 	br	182f1c <edid_print_cea+0xb08>
  182f14:	014006b4 	movhi	r5,26
  182f18:	296f5e04 	addi	r5,r5,-17032
  182f1c:	010006b4 	movhi	r4,26
  182f20:	21329f04 	addi	r4,r4,-13700
  182f24:	01891080 	call	189108 <printf>
			printf("       RC      : %s\n", cea->db_speaker.designation & CEA_SPK_RC ? "yes" : "no");
  182f28:	8809883a 	mov	r4,r17
  182f2c:	01416f04 	movi	r5,1468
  182f30:	0187dd80 	call	187dd8 <__mulsi3>
  182f34:	8085883a 	add	r2,r16,r2
  182f38:	1086a717 	ldw	r2,6812(r2)
  182f3c:	1080040c 	andi	r2,r2,16
  182f40:	1000031e 	bne	r2,zero,182f50 <edid_print_cea+0xb3c>
  182f44:	014006b4 	movhi	r5,26
  182f48:	296f5f04 	addi	r5,r5,-17028
  182f4c:	00000206 	br	182f58 <edid_print_cea+0xb44>
  182f50:	014006b4 	movhi	r5,26
  182f54:	296f5e04 	addi	r5,r5,-17032
  182f58:	010006b4 	movhi	r4,26
  182f5c:	2132a504 	addi	r4,r4,-13676
  182f60:	01891080 	call	189108 <printf>
			printf("       RL/RR   : %s\n", cea->db_speaker.designation & CEA_SPK_RL_RR ? "yes" : "no");
  182f64:	8809883a 	mov	r4,r17
  182f68:	01416f04 	movi	r5,1468
  182f6c:	0187dd80 	call	187dd8 <__mulsi3>
  182f70:	8085883a 	add	r2,r16,r2
  182f74:	1086a717 	ldw	r2,6812(r2)
  182f78:	1080020c 	andi	r2,r2,8
  182f7c:	1000031e 	bne	r2,zero,182f8c <edid_print_cea+0xb78>
  182f80:	014006b4 	movhi	r5,26
  182f84:	296f5f04 	addi	r5,r5,-17028
  182f88:	00000206 	br	182f94 <edid_print_cea+0xb80>
  182f8c:	014006b4 	movhi	r5,26
  182f90:	296f5e04 	addi	r5,r5,-17032
  182f94:	010006b4 	movhi	r4,26
  182f98:	2132ab04 	addi	r4,r4,-13652
  182f9c:	01891080 	call	189108 <printf>
			printf("       FC      : %s\n", cea->db_speaker.designation & CEA_SPK_FC ? "yes" : "no");
  182fa0:	8809883a 	mov	r4,r17
  182fa4:	01416f04 	movi	r5,1468
  182fa8:	0187dd80 	call	187dd8 <__mulsi3>
  182fac:	8085883a 	add	r2,r16,r2
  182fb0:	1086a717 	ldw	r2,6812(r2)
  182fb4:	1080010c 	andi	r2,r2,4
  182fb8:	1000031e 	bne	r2,zero,182fc8 <edid_print_cea+0xbb4>
  182fbc:	014006b4 	movhi	r5,26
  182fc0:	296f5f04 	addi	r5,r5,-17028
  182fc4:	00000206 	br	182fd0 <edid_print_cea+0xbbc>
  182fc8:	014006b4 	movhi	r5,26
  182fcc:	296f5e04 	addi	r5,r5,-17032
  182fd0:	010006b4 	movhi	r4,26
  182fd4:	2132b104 	addi	r4,r4,-13628
  182fd8:	01891080 	call	189108 <printf>
			printf("       LFE     : %s\n", cea->db_speaker.designation & CEA_SPK_LFE ? "yes" : "no");
  182fdc:	8809883a 	mov	r4,r17
  182fe0:	01416f04 	movi	r5,1468
  182fe4:	0187dd80 	call	187dd8 <__mulsi3>
  182fe8:	8085883a 	add	r2,r16,r2
  182fec:	1086a717 	ldw	r2,6812(r2)
  182ff0:	1080008c 	andi	r2,r2,2
  182ff4:	1000031e 	bne	r2,zero,183004 <edid_print_cea+0xbf0>
  182ff8:	014006b4 	movhi	r5,26
  182ffc:	296f5f04 	addi	r5,r5,-17028
  183000:	00000206 	br	18300c <edid_print_cea+0xbf8>
  183004:	014006b4 	movhi	r5,26
  183008:	296f5e04 	addi	r5,r5,-17032
  18300c:	010006b4 	movhi	r4,26
  183010:	2132b704 	addi	r4,r4,-13604
  183014:	01891080 	call	189108 <printf>
			printf("       FL/FR   : %s\n", cea->db_speaker.designation & CEA_SPK_FL_FR ? "yes" : "no");
  183018:	8809883a 	mov	r4,r17
  18301c:	01416f04 	movi	r5,1468
  183020:	0187dd80 	call	187dd8 <__mulsi3>
  183024:	8085883a 	add	r2,r16,r2
  183028:	1086a717 	ldw	r2,6812(r2)
  18302c:	1080004c 	andi	r2,r2,1
  183030:	1000031e 	bne	r2,zero,183040 <edid_print_cea+0xc2c>
  183034:	014006b4 	movhi	r5,26
  183038:	296f5f04 	addi	r5,r5,-17028
  18303c:	00000206 	br	183048 <edid_print_cea+0xc34>
  183040:	014006b4 	movhi	r5,26
  183044:	296f5e04 	addi	r5,r5,-17032
  183048:	010006b4 	movhi	r4,26
  18304c:	2132bd04 	addi	r4,r4,-13580
  183050:	00008306 	br	183260 <edid_print_cea+0xe4c>

			break;

		case CEA_DB_DTC:
			printf("\n  [%02d] VESA DTC data block ... (todo)\n", t);
  183054:	010006b4 	movhi	r4,26
  183058:	2132c304 	addi	r4,r4,-13556
  18305c:	00007f06 	br	18325c <edid_print_cea+0xe48>
			break;

		case CEA_DB_EXTENDED:
			switch (cea->dbe_tags[t]) {
  183060:	98800003 	ldbu	r2,0(r19)
  183064:	00c00484 	movi	r3,18
  183068:	1880a336 	bltu	r3,r2,1832f8 <edid_print_cea+0xee4>
  18306c:	100490ba 	slli	r2,r2,2
  183070:	00c00634 	movhi	r3,24
  183074:	18cc2104 	addi	r3,r3,12420
  183078:	10c5883a 	add	r2,r2,r3
  18307c:	10800017 	ldw	r2,0(r2)
  183080:	1000683a 	jmp	r2
  183084:	001830d0 	cmplti	zero,zero,24771
  183088:	00183248 	cmpgei	zero,zero,24777
  18308c:	00183254 	movui	zero,24777
  183090:	00183268 	cmpgeui	zero,zero,24777
  183094:	00183274 	movhi	zero,24777
  183098:	00183280 	call	18328 <__alt_mem_sram-0x167cd8>
  18309c:	001832f8 	rdprs	zero,zero,24779
  1830a0:	001832f8 	rdprs	zero,zero,24779
  1830a4:	001832f8 	rdprs	zero,zero,24779
  1830a8:	001832f8 	rdprs	zero,zero,24779
  1830ac:	001832f8 	rdprs	zero,zero,24779
  1830b0:	001832f8 	rdprs	zero,zero,24779
  1830b4:	001832f8 	rdprs	zero,zero,24779
  1830b8:	001832f8 	rdprs	zero,zero,24779
  1830bc:	001832f8 	rdprs	zero,zero,24779
  1830c0:	001832f8 	rdprs	zero,zero,24779
  1830c4:	001832c0 	call	1832c <__alt_mem_sram-0x167cd4>
  1830c8:	001832cc 	andi	zero,zero,24779
  1830cc:	001832d8 	cmpnei	zero,zero,24779
			case CEA_DBE_VIDEO_CAP:
				printf("\n  [%02d] video capability data block (ext) ...\n", t);
  1830d0:	010006b4 	movhi	r4,26
  1830d4:	2132ce04 	addi	r4,r4,-13512
  1830d8:	a00b883a 	mov	r5,r20
  1830dc:	01891080 	call	189108 <printf>

				printf("       quantization range selectable : %s\n", cea->db_vcdb.quant_range_sel ? "yes" : "no");
  1830e0:	8809883a 	mov	r4,r17
  1830e4:	01416f04 	movi	r5,1468
  1830e8:	0187dd80 	call	187dd8 <__mulsi3>
  1830ec:	8085883a 	add	r2,r16,r2
  1830f0:	1086f617 	ldw	r2,7128(r2)
  1830f4:	1000031e 	bne	r2,zero,183104 <edid_print_cea+0xcf0>
  1830f8:	014006b4 	movhi	r5,26
  1830fc:	296f5f04 	addi	r5,r5,-17028
  183100:	00000206 	br	18310c <edid_print_cea+0xcf8>
  183104:	014006b4 	movhi	r5,26
  183108:	296f5e04 	addi	r5,r5,-17032
  18310c:	010006b4 	movhi	r4,26
  183110:	2132db04 	addi	r4,r4,-13460
  183114:	01891080 	call	189108 <printf>

				switch (cea->db_vcdb.pt_scan_behavior) {
  183118:	8809883a 	mov	r4,r17
  18311c:	01416f04 	movi	r5,1468
  183120:	0187dd80 	call	187dd8 <__mulsi3>
  183124:	8085883a 	add	r2,r16,r2
  183128:	1086f717 	ldw	r2,7132(r2)
  18312c:	00c00044 	movi	r3,1
  183130:	10c00c26 	beq	r2,r3,183164 <edid_print_cea+0xd50>
  183134:	18800416 	blt	r3,r2,183148 <edid_print_cea+0xd34>
  183138:	1000101e 	bne	r2,zero,18317c <edid_print_cea+0xd68>
				case 0:
					printf("       PT scan behavior              : none\n");
  18313c:	010006b4 	movhi	r4,26
  183140:	2132e604 	addi	r4,r4,-13416
  183144:	00000c06 	br	183178 <edid_print_cea+0xd64>
			case CEA_DBE_VIDEO_CAP:
				printf("\n  [%02d] video capability data block (ext) ...\n", t);

				printf("       quantization range selectable : %s\n", cea->db_vcdb.quant_range_sel ? "yes" : "no");

				switch (cea->db_vcdb.pt_scan_behavior) {
  183148:	00c00084 	movi	r3,2
  18314c:	10c00826 	beq	r2,r3,183170 <edid_print_cea+0xd5c>
  183150:	00c000c4 	movi	r3,3
  183154:	10c0091e 	bne	r2,r3,18317c <edid_print_cea+0xd68>
					break;
				case 2:
					printf("       PT scan behavior              : underscanned always\n");
					break;
				case 3:
					printf("       PT scan behavior              : supports both over/under-scan\n");
  183158:	010006b4 	movhi	r4,26
  18315c:	21330f04 	addi	r4,r4,-13252
  183160:	00000506 	br	183178 <edid_print_cea+0xd64>
				switch (cea->db_vcdb.pt_scan_behavior) {
				case 0:
					printf("       PT scan behavior              : none\n");
					break;
				case 1:
					printf("       PT scan behavior              : overscanned always\n");
  183164:	010006b4 	movhi	r4,26
  183168:	2132f104 	addi	r4,r4,-13372
  18316c:	00000206 	br	183178 <edid_print_cea+0xd64>
					break;
				case 2:
					printf("       PT scan behavior              : underscanned always\n");
  183170:	010006b4 	movhi	r4,26
  183174:	21330004 	addi	r4,r4,-13312
					break;
				case 3:
					printf("       PT scan behavior              : supports both over/under-scan\n");
  183178:	018920c0 	call	18920c <puts>
					break;
				}

				switch (cea->db_vcdb.it_scan_behavior) {
  18317c:	8809883a 	mov	r4,r17
  183180:	01416f04 	movi	r5,1468
  183184:	0187dd80 	call	187dd8 <__mulsi3>
  183188:	8085883a 	add	r2,r16,r2
  18318c:	1086f817 	ldw	r2,7136(r2)
  183190:	00c00044 	movi	r3,1
  183194:	10c00c26 	beq	r2,r3,1831c8 <edid_print_cea+0xdb4>
  183198:	18800416 	blt	r3,r2,1831ac <edid_print_cea+0xd98>
  18319c:	1000101e 	bne	r2,zero,1831e0 <edid_print_cea+0xdcc>
				case 0:
					printf("       IT scan behavior              : none\n");
  1831a0:	010006b4 	movhi	r4,26
  1831a4:	21332104 	addi	r4,r4,-13180
  1831a8:	00000c06 	br	1831dc <edid_print_cea+0xdc8>
				case 3:
					printf("       PT scan behavior              : supports both over/under-scan\n");
					break;
				}

				switch (cea->db_vcdb.it_scan_behavior) {
  1831ac:	00c00084 	movi	r3,2
  1831b0:	10c00826 	beq	r2,r3,1831d4 <edid_print_cea+0xdc0>
  1831b4:	00c000c4 	movi	r3,3
  1831b8:	10c0091e 	bne	r2,r3,1831e0 <edid_print_cea+0xdcc>
					break;
				case 2:
					printf("       IT scan behavior              : underscanned always\n");
					break;
				case 3:
					printf("       IT scan behavior              : supports both over/under-scan\n");
  1831bc:	010006b4 	movhi	r4,26
  1831c0:	21334a04 	addi	r4,r4,-13016
  1831c4:	00000506 	br	1831dc <edid_print_cea+0xdc8>
				switch (cea->db_vcdb.it_scan_behavior) {
				case 0:
					printf("       IT scan behavior              : none\n");
					break;
				case 1:
					printf("       IT scan behavior              : overscanned always\n");
  1831c8:	010006b4 	movhi	r4,26
  1831cc:	21332c04 	addi	r4,r4,-13136
  1831d0:	00000206 	br	1831dc <edid_print_cea+0xdc8>
					break;
				case 2:
					printf("       IT scan behavior              : underscanned always\n");
  1831d4:	010006b4 	movhi	r4,26
  1831d8:	21333b04 	addi	r4,r4,-13076
					break;
				case 3:
					printf("       IT scan behavior              : supports both over/under-scan\n");
  1831dc:	018920c0 	call	18920c <puts>
					break;
				}

				switch (cea->db_vcdb.ce_scan_behavior) {
  1831e0:	8809883a 	mov	r4,r17
  1831e4:	01416f04 	movi	r5,1468
  1831e8:	0187dd80 	call	187dd8 <__mulsi3>
  1831ec:	8085883a 	add	r2,r16,r2
  1831f0:	1086f917 	ldw	r2,7140(r2)
  1831f4:	00c00044 	movi	r3,1
  1831f8:	10c00c26 	beq	r2,r3,18322c <edid_print_cea+0xe18>
  1831fc:	18800416 	blt	r3,r2,183210 <edid_print_cea+0xdfc>
  183200:	10003d1e 	bne	r2,zero,1832f8 <edid_print_cea+0xee4>
				case 0:
					printf("       CE scan behavior              : none\n");
  183204:	010006b4 	movhi	r4,26
  183208:	21335c04 	addi	r4,r4,-12944
  18320c:	00000c06 	br	183240 <edid_print_cea+0xe2c>
				case 3:
					printf("       IT scan behavior              : supports both over/under-scan\n");
					break;
				}

				switch (cea->db_vcdb.ce_scan_behavior) {
  183210:	00c00084 	movi	r3,2
  183214:	10c00826 	beq	r2,r3,183238 <edid_print_cea+0xe24>
  183218:	00c000c4 	movi	r3,3
  18321c:	10c0361e 	bne	r2,r3,1832f8 <edid_print_cea+0xee4>
					break;
				case 2:
					printf("       CE scan behavior              : underscanned always\n");
					break;
				case 3:
					printf("       CE scan behavior              : supports both over/under-scan\n");
  183220:	010006b4 	movhi	r4,26
  183224:	21338504 	addi	r4,r4,-12780
  183228:	00000506 	br	183240 <edid_print_cea+0xe2c>
				switch (cea->db_vcdb.ce_scan_behavior) {
				case 0:
					printf("       CE scan behavior              : none\n");
					break;
				case 1:
					printf("       CE scan behavior              : overscanned always\n");
  18322c:	010006b4 	movhi	r4,26
  183230:	21336704 	addi	r4,r4,-12900
  183234:	00000206 	br	183240 <edid_print_cea+0xe2c>
					break;
				case 2:
					printf("       CE scan behavior              : underscanned always\n");
  183238:	010006b4 	movhi	r4,26
  18323c:	21337604 	addi	r4,r4,-12840
					break;
				case 3:
					printf("       CE scan behavior              : supports both over/under-scan\n");
  183240:	018920c0 	call	18920c <puts>
					break;
  183244:	00002c06 	br	1832f8 <edid_print_cea+0xee4>
				}
				break;
			case CEA_DBE_VIDEO_VENDOR:
				printf("\n  [%02d] vendor-specific video data block (ext) ... (todo)\n", t);
  183248:	010006b4 	movhi	r4,26
  18324c:	21339704 	addi	r4,r4,-12708
  183250:	00000206 	br	18325c <edid_print_cea+0xe48>
				break;
			case CEA_DBE_VIDEO_DDI:
				printf("\n  [%02d] VESA video display device information data block (ext) ... (todo)\n", t);
  183254:	010006b4 	movhi	r4,26
  183258:	2133a704 	addi	r4,r4,-12644
  18325c:	a00b883a 	mov	r5,r20
  183260:	01891080 	call	189108 <printf>
				break;
  183264:	00002406 	br	1832f8 <edid_print_cea+0xee4>
			case CEA_DBE_VIDEO_VESA:
				printf("\n  [%02d] VESA video data block (ext) ... (todo)\n", t);
  183268:	010006b4 	movhi	r4,26
  18326c:	2133bb04 	addi	r4,r4,-12564
  183270:	003ffa06 	br	18325c <__alt_data_end+0xfff8325c>
				break;
			case CEA_DBE_VIDEO_HDMI:
				printf("\n  [%02d] HDMI video data block (ext) ... (todo)\n", t);
  183274:	010006b4 	movhi	r4,26
  183278:	2133c804 	addi	r4,r4,-12512
  18327c:	003ff706 	br	18325c <__alt_data_end+0xfff8325c>
				break;
			case CEA_DBE_COLORIMETRY:
